******************************************************************************
                  TI ARM Linker PC v18.12.4                    
******************************************************************************
>> Linked Sun May 30 10:51:38 2021

OUTPUT FILE NAME:   <CarMSP432.out>
ENTRY POINT SYMBOL: "_c_int00_noargs"  address: 00013399


MEMORY CONFIGURATION

         name            origin    length      used     unused   attr    fill
----------------------  --------  ---------  --------  --------  ----  --------
  MAIN                  00000000   00040000  00023463  0001cb9d  R  X
  INFO                  00200000   00004000  00000000  00004000  R  X
  SRAM_CODE             01000000   00010000  0000875a  000078a6  RW X
  SRAM_DATA             20000000   00010000  0000875a  000078a6  RW  


SEGMENT ALLOCATION MAP

run origin  load origin   length   init length attrs members
----------  ----------- ---------- ----------- ----- -------
00000000    00000000    00023470   00023470    r-x
  00000000    00000000    000000e4   000000e4    r-- .intvecs
  000000e8    000000e8    0001bf52   0001bf52    r-x .text
  0001c040    0001c040    00007099   00007099    r-- .const
  000230dc    000230dc    0000000c   0000000c    r-- .init_array
  000230e8    000230e8    00000388   00000388    r-- .cinit
20000000    20000000    0000675d   00000000    rw-
  20000000    20000000    000000e8   00000000    rw- .vtable
  200000e8    200000e8    00004000   00000000    rw- .sysmem
  200040e8    200040e8    00001885   00000000    rw- .data
  20005970    20005970    00000ded   00000000    rw- .bss
2000e000    2000e000    00002000   00000000    rw-
  2000e000    2000e000    00002000   00000000    rw- .stack


SECTION ALLOCATION MAP

 output                                  attributes/
section   page    origin      length       input sections
--------  ----  ----------  ----------   ----------------
.intvecs   0    00000000    000000e4     
                  00000000    000000e4     startup_msp432p401r_ccs.obj (.intvecs:retain)

.binit     0    00000000    00000000     

.text      0    000000e8    0001bf52     
                  000000e8    000025e4     cJSON.obj (.text)
                  000026cc    00000004     rtsv7M4_T_le_v4SPD16_eabi.lib : typeinfo.c.obj (.text:_ZN10__cxxabiv117__class_type_infoD1Ev)
                  000026d0    000010da     MyOLED.obj (.text)
                  000037aa    00000006     rtsv7M4_T_le_v4SPD16_eabi.lib : dtor_list.c.obj (.text:__cxa_ia64_exit)
                  000037b0    00000e7c     PathGenerator.obj (.text)
                  0000462c    00000004     rtsv7M4_T_le_v4SPD16_eabi.lib : typeinfo.c.obj (.text:_ZN10__cxxabiv120__si_class_type_infoD1Ev)
                  00004630    00000d00     Car.obj (.text)
                  00005330    00000b84     PIDController.obj (.text)
                  00005eb4    00000004     rtsv7M4_T_le_v4SPD16_eabi.lib : new.cpp.obj (.text:_ZdlPvj)
                  00005eb8    00000b08     PathTrackSim.obj (.text)
                  000069c0    00000a4e     rtsv7M4_T_le_v4SPD16_eabi.lib : _printfi.c.obj (.text:__TI_printfi)
                  0000740e    00000002                                   : vector.cpp.obj (.text:_ZNSt3__220__vector_base_commonILb1EEC2Ev)
                  00007410    000009c0                                   : e_pow.c.obj (.text:pow)
                  00007dd0    00000990     my_uart.obj (.text)
                  00008760    00000738     rtsv7M4_T_le_v4SPD16_eabi.lib : k_rem_pio2.c.obj (.text:__kernel_rem_pio2)
                  00008e98    00000704     CarFuzzy.obj (.text)
                  0000959c    00000004     rtsv7M4_T_le_v4SPD16_eabi.lib : new.cpp.obj (.text:_Znaj)
                  000095a0    00000594     MembershipFuction.obj (.text)
                  00009b34    0000058c     rtsv7M4_T_le_v4SPD16_eabi.lib : e_powf.c.obj (.text:powf)
                  0000a0c0    0000056c     motor_timer.obj (.text)
                  0000a62c    00000508     rtsv7M4_T_le_v4SPD16_eabi.lib : s_tan.c.obj (.text:tan)
                  0000ab34    00000004                                   : error.c.obj (.text:__abort_execution)
                  0000ab38    00000368     system_msp432p401r.obj (.text)
                  0000aea0    00000360     Task.obj (.text)
                  0000b200    00000350     CarSim.obj (.text)
                  0000b550    00000318     rtsv7M4_T_le_v4SPD16_eabi.lib : k_tan.c.obj (.text:__kernel_tan)
                  0000b868    000002cc     Encoder.obj (.text)
                  0000bb34    00000004     rtsv7M4_T_le_v4SPD16_eabi.lib : pre_init.c.obj (.text:_system_pre_init)
                  0000bb38    000002b4     PathGenerator.obj (.text:_ZNSt3__216__copy_unalignedINS_6vectorIbNS_9allocatorIbEEEELb0EEENS_14__bit_iteratorIT_Lb0ELi0EEENS5_IS6_XT0_ELi0EEES8_S7_)
                  0000bdec    00000004     rtsv7M4_T_le_v4SPD16_eabi.lib : exit.c.obj (.text:abort:abort)
                  0000bdf0    00000274     main.obj (.text)
                  0000c064    00000270     rtsv7M4_T_le_v4SPD16_eabi.lib : _printfi.c.obj (.text:_pconv_a)
                  0000c2d4    00000002                                   : stdlib_typeinfo.cpp.obj (.text:_ZNSt9type_infoD1Ev)
                  0000c2d6    00000002                                   : _lock.c.obj (.text:_nop)
                  0000c2d8    00000258     FuzzyController.obj (.text)
                  0000c530    00000204     Motor.obj (.text)
                  0000c734    000001d0     rtsv7M4_T_le_v4SPD16_eabi.lib : _printfi.c.obj (.text:_pconv_g)
                  0000c904    000001b6                                   : fd_add_t2.asm.obj (.text)
                  0000caba    00000002                                   : div0.asm.obj (.text)
                  0000cabc    00000198                                   : e_acosf.c.obj (.text:acosf)
                  0000cc54    0000015c     msp432p4xx_driverlib.lib : pcm.o (.text:__PCM_setPowerModeAdvanced)
                  0000cdb0    00000158     rtsv7M4_T_le_v4SPD16_eabi.lib : e_atan2f.c.obj (.text:atan2f)
                  0000cf08    00000158                                   : e_sqrt.c.obj (.text:sqrt)
                  0000d060    00000150                                   : s_atanf.c.obj (.text:atanf)
                  0000d1b0    0000014e     PathGenerator.obj (.text:_ZNSt3__214__copy_alignedINS_6vectorIbNS_9allocatorIbEEEELb0EEENS_14__bit_iteratorIT_Lb0ELi0EEENS5_IS6_XT0_ELi0EEES8_S7_)
                  0000d2fe    00000002     --HOLE-- [fill = 0]
                  0000d300    00000144     msp432p4xx_driverlib.lib : timer_a.o (.text:privateTimer_AProcessClockSourceDivider)
                  0000d444    00000004     --HOLE-- [fill = 0]
                  0000d448    00000140     FuzzyVar.obj (.text)
                  0000d588    0000013c     rtsv7M4_T_le_v4SPD16_eabi.lib : _printfi.c.obj (.text:_pconv_e)
                  0000d6c4    00000136                                   : fd_div_t2.asm.obj (.text)
                  0000d7fa    00000002     --HOLE-- [fill = 0]
                  0000d7fc    00000130     msp432p4xx_driverlib.lib : cs.o (.text:CS_initClockSignal)
                  0000d92c    00000124     rtsv7M4_T_le_v4SPD16_eabi.lib : _printfi.c.obj (.text:fcvt)
                  0000da50    0000011c     msp432p4xx_driverlib.lib : uart.o (.text:UART_initModule)
                  0000db6c    00000118     rtsv7M4_T_le_v4SPD16_eabi.lib : memory.c.obj (.text:aligned_alloc)
                  0000dc84    00000114                                   : fputs.c.obj (.text:fputs)
                  0000dd98    00000110                                   : s_scalbn.c.obj (.text:scalbn)
                  0000dea8    00000108     PathTrackSim.obj (.text:_ZNK5Eigen10MatrixBaseINS_6MatrixIfLi3ELi1ELi0ELi3ELi1EEEE5crossIS2_EENS3_25cross_product_return_typeIT_E4typeERKNS0_IS6_EE)
                  0000dfb0    00000108     msp432p4xx_driverlib.lib : pcm.o (.text:__PCM_setCoreVoltageLevelAdvanced)
                  0000e0b8    00000104                              : cs.o (.text:_CSComputeCLKFrequency)
                  0000e1bc    00000004     --HOLE-- [fill = 0]
                  0000e1c0    00000100     PathTrackSim.obj (.text:_ZNSt3__24listIfNS_9allocatorIfEEE6insertENS_21__list_const_iteratorIfPvEEjRKf)
                  0000e2c0    000000fc     rtsv7M4_T_le_v4SPD16_eabi.lib : fd_mul_t2.asm.obj (.text)
                  0000e3bc    000000f8     msp432p4xx_driverlib.lib : cs.o (.text:CS_getDCOFrequency)
                  0000e4b4    000000f8     rtsv7M4_T_le_v4SPD16_eabi.lib : s_floor.c.obj (.text:floor)
                  0000e5ac    000000e4                                   : memory.c.obj (.text:free)
                  0000e690    000000dc                                   : setvbuf.c.obj (.text:setvbuf)
                  0000e76c    000000d2     msp432p4xx_driverlib.lib : timer_a.o (.text:Timer_A_registerInterrupt)
                  0000e83e    00000002     --HOLE-- [fill = 0]
                  0000e840    000000d0     rtsv7M4_T_le_v4SPD16_eabi.lib : s_scalbnf.c.obj (.text:scalbnf)
                  0000e910    000000bc     PathGenerator.obj (.text:_ZN9pathTrack24ComputeIntersectionPointERN5Eigen6MatrixIfLi2ELi1ELi0ELi2ELi1EEEfS3_fS3_)
                  0000e9cc    000000b4     rtsv7M4_T_le_v4SPD16_eabi.lib : s_cosf.c.obj (.text:cosf)
                  0000ea80    000000b1                                   : _printfi.c.obj (.text:_ltostr)
                  0000eb31    00000003     --HOLE-- [fill = 0]
                  0000eb34    000000ac                                   : s_tanf.c.obj (.text:tanf)
                  0000ebe0    000000a4                                   : s_sinf.c.obj (.text:sinf)
                  0000ec84    0000009c                                   : memcpy_t2.asm.obj (.text)
                  0000ed20    00000096                                   : ull_div_t2.asm.obj (.text)
                  0000edb6    00000002     --HOLE-- [fill = 0]
                  0000edb8    00000094     msp432p4xx_driverlib.lib : sysctl_a.o (.text:SysCtl_A_getTLVInfo)
                  0000ee4c    00000088                              : gpio.o (.text:GPIO_setAsPeripheralModuleFunctionInputPin)
                  0000eed4    00000088                              : gpio.o (.text:GPIO_setAsPeripheralModuleFunctionOutputPin)
                  0000ef5c    00000004     --HOLE-- [fill = 0]
                  0000ef60    00000088     PathTrackSim.obj (.text:_ZNSt3__24listIfNS_9allocatorIfEEE6assignEjRKf)
                  0000efe8    00000086     rtsv7M4_T_le_v4SPD16_eabi.lib : fd_cmp_t2.asm.obj (.text:__aeabi_cdcmple)
                  0000f06e    00000086                                   : fd_cmp_t2.asm.obj (.text:__aeabi_cdrcmple)
                  0000f0f4    00000004     --HOLE-- [fill = 0]
                  0000f0f8    00000082     PathGenerator.obj (.text:_ZNSt3__210__list_impIPN9pathTrack8PathPartENS_9allocatorIS3_EEE5clearEv)
                  0000f17a    00000006     rtsv7M4_T_le_v4SPD16_eabi.lib : pure_virt.c.obj (.text:__cxa_pure_virtual)
                  0000f180    00000082     PathTrackSim.obj (.text:_ZNSt3__210__list_impIfNS_9allocatorIfEEE5clearEv)
                  0000f202    00000006     --HOLE-- [fill = 0]
                  0000f208    00000082     PathTrackSim.obj (.text:_ZNSt3__24listIfNS_9allocatorIfEEE5eraseENS_21__list_const_iteratorIfPvEES6_)
                  0000f28a    00000002     --HOLE-- [fill = 0]
                  0000f28c    00000080     msp432p4xx_driverlib.lib : interrupt.o (.text:Interrupt_disableInterrupt)
                  0000f30c    00000080                              : interrupt.o (.text:Interrupt_enableInterrupt)
                  0000f38c    00000004     --HOLE-- [fill = 0]
                  0000f390    00000080     my_uart.obj (.text:mod2pi)
                  0000f410    0000007c     msp432p4xx_driverlib.lib : cs.o (.text:_CSGetDOCFrequency)
                  0000f48c    0000007c     rtsv7M4_T_le_v4SPD16_eabi.lib : fflush.c.obj (.text:fflush)
                  0000f508    0000007a                                   : memset_t2.asm.obj (.text)
                  0000f582    00000006     --HOLE-- [fill = 0]
                  0000f588    00000078     PIDController.obj (.text:_Z3Falff)
                  0000f600    00000076     rtsv7M4_T_le_v4SPD16_eabi.lib : vec_newdel.c.obj (.text:_ZN34_INTERNAL_12_vec_newdel_c_8a08d4a517array_new_generalEPvijjS0_PFYS0_S0_ES2_PFYS0_jEPFYvS0_Eii)
                  0000f676    00000002     --HOLE-- [fill = 0]
                  0000f678    00000076     PathGenerator.obj (.text:_ZNSt3__24listIPN9pathTrack8PathPartENS_9allocatorIS3_EEE9push_backEOS3_)
                  0000f6ee    00000002     --HOLE-- [fill = 0]
                  0000f6f0    00000074     msp432p4xx_driverlib.lib : timer_a.o (.text:Timer_A_generatePWM)
                  0000f764    00000074     rtsv7M4_T_le_v4SPD16_eabi.lib : fclose.c.obj (.text:__TI_closefile)
                  0000f7d8    00000070     PathGenerator.obj (.text:_ZN5Eigen5BlockINS_6MatrixIfLi2ELi2ELi0ELi2ELi2EEELin1ELin1ELb0EEC1ERS2_iiii)
                  0000f848    00000070     PathGenerator.obj (.text:_ZNSt3__24copyINS_6vectorIbNS_9allocatorIbEEEELb0EEENS_14__bit_iteratorIT_Lb0ELi0EEENS5_IS6_XT0_ELi0EEES8_S7_)
                  0000f8b8    00000070     rtsv7M4_T_le_v4SPD16_eabi.lib : memory.c.obj (.text:split)
                  0000f928    0000006e                                   : _printfi.c.obj (.text:_mcpy)
                  0000f996    0000006e                                   : fd_tos_t2.asm.obj (.text)
                  0000fa04    0000006c                                   : hostrename.c.obj (.text:HOSTrename)
                  0000fa70    0000006c     PathGenerator.obj (.text:_ZN5Eigen15PlainObjectBaseINS_6MatrixIfLi2ELi1ELi0ELi2ELi1EEEE10resizeLikeINS_13CwiseBinaryOpINS_8internal13scalar_sum_opIffEEKS2_KNS5_INS6_17scalar_product_opIffEEKNS_14CwiseNullaryOpINS6_18scalar_constant_opIfEES9_EEKNS5_INS6_20scalar_difference_opIffEES9_S9_EEEEEEEEvRKNS_9EigenBaseIT_EE)
                  0000fadc    00000004     --HOLE-- [fill = 0]
                  0000fae0    0000006c     PathGenerator.obj (.text:_ZN5Eigen15PlainObjectBaseINS_6MatrixIfLi2ELi1ELi0ELi2ELi1EEEE10resizeLikeINS_13CwiseBinaryOpINS_8internal13scalar_sum_opIffEEKS2_KNS5_INS6_17scalar_product_opIffEEKNS_14CwiseNullaryOpINS6_18scalar_constant_opIfEES9_EES9_EEEEEEvRKNS_9EigenBaseIT_EE)
                  0000fb4c    00000004     --HOLE-- [fill = 0]
                  0000fb50    0000006c     PathGenerator.obj (.text:_ZN5Eigen15PlainObjectBaseINS_6MatrixIfLi2ELi1ELi0ELi2ELi1EEEE10resizeLikeINS_13CwiseBinaryOpINS_8internal20scalar_difference_opIffEEKS2_S9_EEEEvRKNS_9EigenBaseIT_EE)
                  0000fbbc    00000004     --HOLE-- [fill = 0]
                  0000fbc0    0000006c     PathGenerator.obj (.text:_ZN5Eigen8internal17resize_if_allowedINS_5BlockINS_6MatrixIfLi2ELi2ELi0ELi2ELi2EEELin1ELin1ELb0EEENS3_IfLi2ELi1ELi0ELi2ELi1EEEffEEvRT_RKT0_RKNS0_9assign_opIT1_T2_EE)
                  0000fc2c    00000004     --HOLE-- [fill = 0]
                  0000fc30    0000006c     PathGenerator.obj (.text:_ZN5Eigen8internal17resize_if_allowedINS_5BlockINS_6MatrixIfLi2ELi2ELi0ELi2ELi2EEELin1ELin1ELb0EEENS_9TransposeINS3_IfLi2ELi1ELi0ELi2ELi1EEEEEffEEvRT_RKT0_RKNS0_9assign_opIT1_T2_EE)
                  0000fc9c    00000004     --HOLE-- [fill = 0]
                  0000fca0    0000006c     CarSim.obj (.text:_ZN5Eigen8internal17resize_if_allowedINS_5BlockINS_6MatrixIfLi3ELi4ELi0ELi3ELi4EEELi3ELi1ELb1EEENS3_IfLi3ELi1ELi0ELi3ELi1EEEffEEvRT_RKT0_RKNS0_9assign_opIT1_T2_EE)
                  0000fd0c    00000004     --HOLE-- [fill = 0]
                  0000fd10    0000006c     PathTrackSim.obj (.text:_ZN5Eigen8internal17resize_if_allowedINS_6MatrixIfLi2ELi1ELi0ELi2ELi1EEENS_12CwiseUnaryOpINS0_18scalar_opposite_opIfEEKS3_EEffEEvRT_RKT0_RKNS0_9assign_opIT1_T2_EE)
                  0000fd7c    00000004     --HOLE-- [fill = 0]
                  0000fd80    0000006c     PathGenerator.obj (.text:_ZN5Eigen8internal17resize_if_allowedINS_6MatrixIfLi2ELi1ELi0ELi2ELi1EEENS_13CwiseBinaryOpINS0_13scalar_sum_opIffEEKS3_KNS4_INS0_17scalar_product_opIffEEKNS_14CwiseNullaryOpINS0_18scalar_constant_opIfEES7_EEKNS4_INS0_20scalar_difference_opIffEES7_S7_EEEEEEffEEvRT_RKT0_RKNS0_9assign_opIT1_T2_EE)
                  0000fdec    00000004     --HOLE-- [fill = 0]
                  0000fdf0    0000006c     PathGenerator.obj (.text:_ZN5Eigen8internal17resize_if_allowedINS_6MatrixIfLi2ELi1ELi0ELi2ELi1EEENS_13CwiseBinaryOpINS0_13scalar_sum_opIffEEKS3_KNS4_INS0_17scalar_product_opIffEEKNS_14CwiseNullaryOpINS0_18scalar_constant_opIfEES7_EES7_EEEEffEEvRT_RKT0_RKNS0_9assign_opIT1_T2_EE)
                  0000fe5c    00000004     --HOLE-- [fill = 0]
                  0000fe60    0000006c     PathGenerator.obj (.text:_ZN5Eigen8internal17resize_if_allowedINS_6MatrixIfLi2ELi1ELi0ELi2ELi1EEENS_13CwiseBinaryOpINS0_13scalar_sum_opIffEEKS3_S7_EEffEEvRT_RKT0_RKNS0_9assign_opIT1_T2_EE)
                  0000fecc    00000004     --HOLE-- [fill = 0]
                  0000fed0    0000006c     PathGenerator.obj (.text:_ZN5Eigen8internal17resize_if_allowedINS_6MatrixIfLi2ELi1ELi0ELi2ELi1EEENS_13CwiseBinaryOpINS0_20scalar_difference_opIffEEKS3_S7_EEffEEvRT_RKT0_RKNS0_9assign_opIT1_T2_EE)
                  0000ff3c    00000004     --HOLE-- [fill = 0]
                  0000ff40    0000006c     PathGenerator.obj (.text:_ZN5Eigen8internal17resize_if_allowedINS_6MatrixIfLi2ELi2ELi0ELi2ELi2EEES3_ffEEvRT_RKT0_RKNS0_9assign_opIT1_T2_EE)
                  0000ffac    00000004     --HOLE-- [fill = 0]
                  0000ffb0    0000006c     PathTrackSim.obj (.text:_ZN5Eigen8internal17resize_if_allowedINS_6MatrixIfLi3ELi1ELi0ELi3ELi1EEENS_13CwiseBinaryOpINS0_13scalar_sum_opIffEEKNS4_INS0_17scalar_product_opIffEEKNS_14CwiseNullaryOpINS0_18scalar_constant_opIfEEKS3_EESC_EESG_EEffEEvRT_RKT0_RKNS0_9assign_opIT1_T2_EE)
                  0001001c    00000004     --HOLE-- [fill = 0]
                  00010020    0000006c     CarSim.obj (.text:_ZN5Eigen8internal17resize_if_allowedINS_6MatrixIfLi3ELi1ELi0ELi3ELi1EEENS_13CwiseBinaryOpINS0_13scalar_sum_opIffEEKS3_KNS4_INS0_17scalar_product_opIffEEKNS_14CwiseNullaryOpINS0_18scalar_constant_opIfEES7_EEKNS4_IS6_KNS4_IS6_KNS4_IS6_KNS_5BlockINS2_IfLi3ELi4ELi0ELi3ELi4EEELi3ELi1ELb1EEEKNS4_IS9_SE_SI_EEEESK_EESI_EEEEEEffEEvRT_RKT0_RKNS0_9assign_opIT1_T2_EE)
                  0001008c    00000004     --HOLE-- [fill = 0]
                  00010090    0000006c     Car.obj (.text:_ZN5Eigen8internal17resize_if_allowedINS_6MatrixIfLi3ELi1ELi0ELi3ELi1EEENS_3MapIKS3_Li0ENS_6StrideILi0ELi0EEEEEffEEvRT_RKT0_RKNS0_9assign_opIT1_T2_EE)
                  000100fc    00000004     --HOLE-- [fill = 0]
                  00010100    0000006c     Car.obj (.text:_ZN5Eigen8internal17resize_if_allowedINS_6MatrixIfLi3ELi1ELi0ELi3ELi1EEES3_ffEEvRT_RKT0_RKNS0_9assign_opIT1_T2_EE)
                  0001016c    00000004     --HOLE-- [fill = 0]
                  00010170    0000006c     PathGenerator.obj (.text:_ZNSt3__26vectorItNS_9allocatorItEEE26__swap_out_circular_bufferERNS_14__split_bufferItRS2_EE)
                  000101dc    00000068     rtsv7M4_T_le_v4SPD16_eabi.lib : hostlseek.c.obj (.text:HOSTlseek)
                  00010244    00000068     msp432p4xx_driverlib.lib : timer_a.o (.text:Timer_A_configureUpMode)
                  000102ac    00000004     --HOLE-- [fill = 0]
                  000102b0    00000068     CarSim.obj (.text:_ZN5Eigen13CwiseBinaryOpINS_8internal13scalar_sum_opIffEEKNS0_IS3_KNS0_IS3_KNS_5BlockINS_6MatrixIfLi3ELi4ELi0ELi3ELi4EEELi3ELi1ELb1EEEKNS0_INS1_17scalar_product_opIffEEKNS_14CwiseNullaryOpINS1_18scalar_constant_opIfEEKNS5_IfLi3ELi1ELi0ELi3ELi1EEEEES8_EEEESJ_EES8_EC1ERSN_RS8_RKS3_)
                  00010318    00000068     CarSim.obj (.text:_ZN5Eigen13CwiseBinaryOpINS_8internal13scalar_sum_opIffEEKNS_5BlockINS_6MatrixIfLi3ELi4ELi0ELi3ELi4EEELi3ELi1ELb1EEEKNS0_INS1_17scalar_product_opIffEEKNS_14CwiseNullaryOpINS1_18scalar_constant_opIfEEKNS5_IfLi3ELi1ELi0ELi3ELi1EEEEES8_EEEC1ERS8_RSJ_RKS3_)
                  00010380    00000068     CarSim.obj (.text:_ZN5Eigen13CwiseBinaryOpINS_8internal17scalar_product_opIffEEKNS_14CwiseNullaryOpINS1_18scalar_constant_opIfEEKNS_6MatrixIfLi3ELi1ELi0ELi3ELi1EEEEEKNS_5BlockINS7_IfLi3ELi4ELi0ELi3ELi4EEELi3ELi1ELb1EEEEC1ERSB_RSF_RKS3_)
                  000103e8    00000068     CarSim.obj (.text:_ZN5Eigen7MapBaseINS_5BlockINS_6MatrixIfLi3ELi4ELi0ELi3ELi4EEELi3ELi1ELb1EEELi0EEC1EPfii)
                  00010450    00000068     rtsv7M4_T_le_v4SPD16_eabi.lib : copy_decompress_lzss.c.obj (.text:decompress:lzss:__TI_decompress_lzss)
                  000104b8    00000066     PathGenerator.obj (.text:_ZNSt3__26vectorIbNS_9allocatorIbEEE7reserveEj)
                  0001051e    00000064     msp432p4xx_driverlib.lib : uart.o (.text:UART_getEnabledInterruptStatus)
                  00010582    00000006     --HOLE-- [fill = 0]
                  00010588    00000064     PathTrackSim.obj (.text:_ZN5Eigen13CwiseBinaryOpINS_8internal13scalar_sum_opIffEEKNS0_INS1_17scalar_product_opIffEEKNS_14CwiseNullaryOpINS1_18scalar_constant_opIfEEKNS_6MatrixIfLi3ELi1ELi0ELi3ELi1EEEEESB_EESF_EC1ERSF_SH_RKS3_)
                  000105ec    00000004     --HOLE-- [fill = 0]
                  000105f0    00000064     CarSim.obj (.text:_ZN5Eigen13CwiseBinaryOpINS_8internal13scalar_sum_opIffEEKNS0_IS3_KNS_5BlockINS_6MatrixIfLi3ELi4ELi0ELi3ELi4EEELi3ELi1ELb1EEEKNS0_INS1_17scalar_product_opIffEEKNS_14CwiseNullaryOpINS1_18scalar_constant_opIfEEKNS5_IfLi3ELi1ELi0ELi3ELi1EEEEES8_EEEESJ_EC1ERSL_RSJ_RKS3_)
                  00010654    00000004     --HOLE-- [fill = 0]
                  00010658    00000064     PathGenerator.obj (.text:_ZN5Eigen13CwiseBinaryOpINS_8internal17scalar_product_opIffEEKNS_14CwiseNullaryOpINS1_18scalar_constant_opIfEEKNS_6MatrixIfLi2ELi1ELi0ELi2ELi1EEEEEKNS0_INS1_20scalar_difference_opIffEES9_S9_EEEC1ERSB_RSF_RKS3_)
                  000106bc    00000004     --HOLE-- [fill = 0]
                  000106c0    00000064     CarSim.obj (.text:_ZN5Eigen13CwiseBinaryOpINS_8internal17scalar_product_opIffEEKNS_14CwiseNullaryOpINS1_18scalar_constant_opIfEEKNS_6MatrixIfLi3ELi1ELi0ELi3ELi1EEEEEKNS0_INS1_13scalar_sum_opIffEEKNS0_ISD_KNS0_ISD_KNS_5BlockINS7_IfLi3ELi4ELi0ELi3ELi4EEELi3ELi1ELb1EEEKNS0_IS3_SB_SH_EEEESJ_EESH_EEEC1ERSB_RSP_RKS3_)
                  00010724    00000004     --HOLE-- [fill = 0]
                  00010728    00000064     PathGenerator.obj (.text:_ZN5Eigen8internal15BlockImpl_denseINS_6MatrixIfLi2ELi2ELi0ELi2ELi2EEELin1ELin1ELb0ELb1EEC1ERS3_iiii)
                  0001078c    00000004     --HOLE-- [fill = 0]
                  00010790    00000064     PathGenerator.obj (.text:_ZNSt3__26vectorItNS_9allocatorItEEE21__push_back_slow_pathIRKtEEvOT_)
                  000107f4    00000064     rtsv7M4_T_le_v4SPD16_eabi.lib : s_frexp.c.obj (.text:frexp)
                  00010858    00000064                                   : fseek.c.obj (.text:fseek)
                  000108bc    00000062     msp432p4xx_driverlib.lib : cs.o (.text:_CSGetDividerValue)
                  0001091e    00000002     --HOLE-- [fill = 0]
                  00010920    00000062     PathGenerator.obj (.text:_ZNSt3__26vectorIbNS_9allocatorIbEEE18__construct_at_endINS_14__bit_iteratorIS3_Lb0ELj0EEEEENS_9enable_ifIXsr3std3__221__is_forward_iteratorIT_EE5valueEvE4typeES8_S8_)
                  00010982    00000062     rtsv7M4_T_le_v4SPD16_eabi.lib : _io_perm.c.obj (.text:__TI_wrt_ok)
                  000109e4    00000060                                   : hostopen.c.obj (.text:HOSTopen)
                  00010a44    00000004     --HOLE-- [fill = 0]
                  00010a48    00000060     PathGenerator.obj (.text:_ZN5Eigen13CwiseBinaryOpINS_8internal13scalar_sum_opIffEEKNS_6MatrixIfLi2ELi1ELi0ELi2ELi1EEEKNS0_INS1_17scalar_product_opIffEEKNS_14CwiseNullaryOpINS1_18scalar_constant_opIfEES6_EEKNS0_INS1_20scalar_difference_opIffEES6_S6_EEEEEC1ERS6_RSJ_RKS3_)
                  00010aa8    00000060     PathGenerator.obj (.text:_ZN5Eigen13CwiseBinaryOpINS_8internal13scalar_sum_opIffEEKNS_6MatrixIfLi2ELi1ELi0ELi2ELi1EEEKNS0_INS1_17scalar_product_opIffEEKNS_14CwiseNullaryOpINS1_18scalar_constant_opIfEES6_EES6_EEEC1ERS6_RSF_RKS3_)
                  00010b08    00000060     CarSim.obj (.text:_ZN5Eigen13CwiseBinaryOpINS_8internal13scalar_sum_opIffEEKNS_6MatrixIfLi3ELi1ELi0ELi3ELi1EEEKNS0_INS1_17scalar_product_opIffEEKNS_14CwiseNullaryOpINS1_18scalar_constant_opIfEES6_EEKNS0_IS3_KNS0_IS3_KNS0_IS3_KNS_5BlockINS4_IfLi3ELi4ELi0ELi3ELi4EEELi3ELi1ELb1EEEKNS0_IS8_SD_SH_EEEESJ_EESH_EEEEEC1ERS6_RSR_RKS3_)
                  00010b68    00000060     PathGenerator.obj (.text:_ZN5Eigen13CwiseBinaryOpINS_8internal17scalar_product_opIffEEKNS_14CwiseNullaryOpINS1_18scalar_constant_opIfEEKNS_6MatrixIfLi2ELi1ELi0ELi2ELi1EEEEES9_EC1ERSB_RS9_RKS3_)
                  00010bc8    00000060     PathTrackSim.obj (.text:_ZN5Eigen13CwiseBinaryOpINS_8internal17scalar_product_opIffEEKNS_14CwiseNullaryOpINS1_18scalar_constant_opIfEEKNS_6MatrixIfLi3ELi1ELi0ELi3ELi1EEEEES9_EC1ERSB_RS9_RKS3_)
                  00010c28    00000060     PathGenerator.obj (.text:_ZN5Eigen14CwiseNullaryOpINS_8internal18scalar_constant_opIfEEKNS_6MatrixIfLi2ELi1ELi0ELi2ELi1EEEEC1EiiRKS3_)
                  00010c88    00000060     CarSim.obj (.text:_ZN5Eigen14CwiseNullaryOpINS_8internal18scalar_constant_opIfEEKNS_6MatrixIfLi3ELi1ELi0ELi3ELi1EEEEC1EiiRKS3_)
                  00010ce8    00000060     PathGenerator.obj (.text:_ZN5Eigen14CwiseNullaryOpINS_8internal18scalar_constant_opIfEENS_6MatrixIfLi2ELi1ELi0ELi2ELi1EEEEC1EiiRKS3_)
                  00010d48    00000060     CarSim.obj (.text:_ZN5EigenmlIiEENS_8internal9enable_ifILb1EKNS_13CwiseBinaryOpINS1_17scalar_product_opINS1_18promote_scalar_argIfT_Xsr5Eigen8internal14has_ReturnTypeINS_20ScalarBinaryOpTraitsIS6_fNS4_IS6_fEEEEEE5valueEE4typeEfEEKNS1_19plain_constant_typeINS_5BlockINS_6MatrixIfLi3ELi4ELi0ELi3ELi4EEELi3ELi1ELb1EEESB_E4typeEKSH_EEE4typeERKS6_RKNS_10MatrixBaseISH_EE)
                  00010da8    00000060     PathGenerator.obj (.text:_ZNSt3__214__split_bufferItRNS_9allocatorItEEEC1EjjS3_)
                  00010e08    00000060     rtsv7M4_T_le_v4SPD16_eabi.lib : autoinit.c.obj (.text:__TI_auto_init_nobinit:__TI_auto_init_nobinit)
                  00010e68    0000005e     msp432p4xx_driverlib.lib : pcm.o (.text:PCM_getCoreVoltageLevel)
                  00010ec6    00000002     --HOLE-- [fill = 0]
                  00010ec8    0000005e     PathGenerator.obj (.text:_ZN9pathTrack24ComputeIntersectionPointEfRN5Eigen6MatrixIfLi2ELi1ELi0ELi2ELi1EEEfS3_)
                  00010f26    00000002     --HOLE-- [fill = 0]
                  00010f28    0000005c     msp432p4xx_driverlib.lib : interrupt.o (.text:Interrupt_registerInterrupt)
                  00010f84    00000004     --HOLE-- [fill = 0]
                  00010f88    0000005c     PathGenerator.obj (.text:_ZN5Eigen13CwiseBinaryOpINS_8internal13scalar_sum_opIffEEKNS_6MatrixIfLi2ELi1ELi0ELi2ELi1EEES6_EC1ERS6_S8_RKS3_)
                  00010fe4    00000004     --HOLE-- [fill = 0]
                  00010fe8    0000005c     PathGenerator.obj (.text:_ZN5Eigen13CwiseBinaryOpINS_8internal20scalar_difference_opIffEEKNS_6MatrixIfLi2ELi1ELi0ELi2ELi1EEES6_EC1ERS6_S8_RKS3_)
                  00011044    00000004     --HOLE-- [fill = 0]
                  00011048    0000005c     PathGenerator.obj (.text:_ZN5Eigen13CwiseBinaryOpINS_8internal22scalar_conj_product_opIffEEKNS_6MatrixIfLi2ELi1ELi0ELi2ELi1EEES6_EC1ERS6_S8_RKS3_)
                  000110a4    00000004     --HOLE-- [fill = 0]
                  000110a8    0000005c     PathTrackSim.obj (.text:_ZN5Eigen13CwiseBinaryOpINS_8internal22scalar_conj_product_opIffEEKNS_6MatrixIfLi3ELi1ELi0ELi3ELi1EEES6_EC1ERS6_S8_RKS3_)
                  00011104    00000004     --HOLE-- [fill = 0]
                  00011108    0000005c     PathGenerator.obj (.text:_ZN5Eigen7MapBaseINS_5BlockINS_6MatrixIfLi2ELi2ELi0ELi2ELi2EEELin1ELin1ELb0EEELi0EEC1EPfii)
                  00011164    00000004     --HOLE-- [fill = 0]
                  00011168    0000005c     PathGenerator.obj (.text:_ZNSt3__26vectorItNS_9allocatorItEEE9push_backERKt)
                  000111c4    0000005c     rtsv7M4_T_le_v4SPD16_eabi.lib : close.c.obj (.text:close)
                  00011220    0000005a     msp432p4xx_driverlib.lib : pcm.o (.text:PCM_getPowerMode)
                  0001127a    00000002     --HOLE-- [fill = 0]
                  0001127c    00000058     rtsv7M4_T_le_v4SPD16_eabi.lib : hostread.c.obj (.text:HOSTread)
                  000112d4    00000058                                   : hostwrite.c.obj (.text:HOSTwrite)
                  0001132c    00000058     msp432p4xx_driverlib.lib : timer_a.o (.text:Timer_A_initCapture)
                  00011384    00000004     --HOLE-- [fill = 0]
                  00011388    00000058     PathGenerator.obj (.text:_ZN5Eigen9DenseBaseINS_6MatrixIfLi2ELi1ELi0ELi2ELi1EEEE4swapIS2_EEvRNS_15PlainObjectBaseIT_EE)
                  000113e0    00000058     PathGenerator.obj (.text:_ZNK5Eigen9DenseBaseINS_12CwiseUnaryOpINS_8internal14scalar_abs2_opIfEEKNS_13CwiseBinaryOpINS2_20scalar_difference_opIffEEKNS_6MatrixIfLi2ELi1ELi0ELi2ELi1EEESA_EEEEE5reduxINS2_13scalar_sum_opIffEEEEfRKT_)
                  00011438    00000058     PathGenerator.obj (.text:_ZNK5Eigen9DenseBaseINS_12CwiseUnaryOpINS_8internal14scalar_abs2_opIfEEKNS_6MatrixIfLi2ELi1ELi0ELi2ELi1EEEEEE5reduxINS2_13scalar_sum_opIffEEEEfRKT_)
                  00011490    00000058     PathTrackSim.obj (.text:_ZNK5Eigen9DenseBaseINS_12CwiseUnaryOpINS_8internal14scalar_abs2_opIfEEKNS_6MatrixIfLi3ELi1ELi0ELi3ELi1EEEEEE5reduxINS2_13scalar_sum_opIffEEEEfRKT_)
                  000114e8    00000058     PathGenerator.obj (.text:_ZNK5Eigen9DenseBaseINS_13CwiseBinaryOpINS_8internal22scalar_conj_product_opIffEEKNS_6MatrixIfLi2ELi1ELi0ELi2ELi1EEES7_EEE5reduxINS2_13scalar_sum_opIffEEEEfRKT_)
                  00011540    00000058     PathTrackSim.obj (.text:_ZNK5Eigen9DenseBaseINS_13CwiseBinaryOpINS_8internal22scalar_conj_product_opIffEEKNS_6MatrixIfLi3ELi1ELi0ELi3ELi1EEES7_EEE5reduxINS2_13scalar_sum_opIffEEEEfRKT_)
                  00011598    00000056     CarSim.obj (.text:_ZN5Eigen8internal15BlockImpl_denseINS_6MatrixIfLi3ELi4ELi0ELi3ELi4EEELi3ELi1ELb1ELb1EEC1ERS3_i)
                  000115ee    00000002     --HOLE-- [fill = 0]
                  000115f0    00000056     PathGenerator.obj (.text:_ZNKSt3__26vectorItNS_9allocatorItEEE17__annotate_deleteEv)
                  00011646    00000056     rtsv7M4_T_le_v4SPD16_eabi.lib : _printfi.c.obj (.text:_pconv_f)
                  0001169c    00000004     --HOLE-- [fill = 0]
                  000116a0    00000054     PathGenerator.obj (.text:_ZN5Eigen8internal16determinant_implINS_6MatrixIfLi2ELi2ELi0ELi2ELi2EEELi2EE3runERKS3_)
                  000116f4    00000004     --HOLE-- [fill = 0]
                  000116f8    00000054     PathGenerator.obj (.text:_ZNKSt3__26vectorIbNS_9allocatorIbEEE11__recommendEj)
                  0001174c    00000004     --HOLE-- [fill = 0]
                  00011750    00000054     PathGenerator.obj (.text:_ZNKSt3__26vectorItNS_9allocatorItEEE14__annotate_newEj)
                  000117a4    00000054     rtsv7M4_T_le_v4SPD16_eabi.lib : ltoa.c.obj (.text:ltoa)
                  000117f8    00000052                                   : _printfi.c.obj (.text:_ecpy)
                  0001184a    00000006     --HOLE-- [fill = 0]
                  00011850    00000050     PIDController.obj (.text:_Z10Saturationff)
                  000118a0    00000050     PathGenerator.obj (.text:_ZN5Eigen8internal26call_dense_assignment_loopINS_5BlockINS_6MatrixIfLi2ELi2ELi0ELi2ELi2EEELin1ELin1ELb0EEENS3_IfLi2ELi1ELi0ELi2ELi1EEENS0_9assign_opIffEEEEvRT_RKT0_RKT1_)
                  000118f0    00000050     PathGenerator.obj (.text:_ZN5Eigen8internal26call_dense_assignment_loopINS_5BlockINS_6MatrixIfLi2ELi2ELi0ELi2ELi2EEELin1ELin1ELb0EEENS_9TransposeINS3_IfLi2ELi1ELi0ELi2ELi1EEEEENS0_9assign_opIffEEEEvRT_RKT0_RKT1_)
                  00011940    00000050     CarSim.obj (.text:_ZN5Eigen8internal26call_dense_assignment_loopINS_5BlockINS_6MatrixIfLi3ELi4ELi0ELi3ELi4EEELi3ELi1ELb1EEENS3_IfLi3ELi1ELi0ELi3ELi1EEENS0_9assign_opIffEEEEvRT_RKT0_RKT1_)
                  00011990    00000050     PathTrackSim.obj (.text:_ZN5Eigen8internal26call_dense_assignment_loopINS_6MatrixIfLi2ELi1ELi0ELi2ELi1EEENS_12CwiseUnaryOpINS0_18scalar_opposite_opIfEEKS3_EENS0_9assign_opIffEEEEvRT_RKT0_RKT1_)
                  000119e0    00000050     PathGenerator.obj (.text:_ZN5Eigen8internal26call_dense_assignment_loopINS_6MatrixIfLi2ELi1ELi0ELi2ELi1EEENS_13CwiseBinaryOpINS0_13scalar_sum_opIffEEKS3_KNS4_INS0_17scalar_product_opIffEEKNS_14CwiseNullaryOpINS0_18scalar_constant_opIfEES7_EEKNS4_INS0_20scalar_difference_opIffEES7_S7_EEEEEENS0_9assign_opIffEEEEvRT_RKT0_RKT1_)
                  00011a30    00000050     PathGenerator.obj (.text:_ZN5Eigen8internal26call_dense_assignment_loopINS_6MatrixIfLi2ELi1ELi0ELi2ELi1EEENS_13CwiseBinaryOpINS0_13scalar_sum_opIffEEKS3_KNS4_INS0_17scalar_product_opIffEEKNS_14CwiseNullaryOpINS0_18scalar_constant_opIfEES7_EES7_EEEENS0_9assign_opIffEEEEvRT_RKT0_RKT1_)
                  00011a80    00000050     PathGenerator.obj (.text:_ZN5Eigen8internal26call_dense_assignment_loopINS_6MatrixIfLi2ELi1ELi0ELi2ELi1EEENS_13CwiseBinaryOpINS0_13scalar_sum_opIffEEKS3_S7_EENS0_9assign_opIffEEEEvRT_RKT0_RKT1_)
                  00011ad0    00000050     PathGenerator.obj (.text:_ZN5Eigen8internal26call_dense_assignment_loopINS_6MatrixIfLi2ELi1ELi0ELi2ELi1EEENS_13CwiseBinaryOpINS0_20scalar_difference_opIffEEKS3_S7_EENS0_9assign_opIffEEEEvRT_RKT0_RKT1_)
                  00011b20    00000050     PathGenerator.obj (.text:_ZN5Eigen8internal26call_dense_assignment_loopINS_6MatrixIfLi2ELi1ELi0ELi2ELi1EEENS_14CwiseNullaryOpINS0_18scalar_constant_opIfEES3_EENS0_13mul_assign_opIffEEEEvRT_RKT0_RKT1_)
                  00011b70    00000050     PathGenerator.obj (.text:_ZN5Eigen8internal26call_dense_assignment_loopINS_6MatrixIfLi2ELi1ELi0ELi2ELi1EEES3_NS0_14swap_assign_opIfEEEEvRT_RKT0_RKT1_)
                  00011bc0    00000050     PathGenerator.obj (.text:_ZN5Eigen8internal26call_dense_assignment_loopINS_6MatrixIfLi2ELi2ELi0ELi2ELi2EEES3_NS0_9assign_opIffEEEEvRT_RKT0_RKT1_)
                  00011c10    00000050     PathTrackSim.obj (.text:_ZN5Eigen8internal26call_dense_assignment_loopINS_6MatrixIfLi3ELi1ELi0ELi3ELi1EEENS_13CwiseBinaryOpINS0_13scalar_sum_opIffEEKNS4_INS0_17scalar_product_opIffEEKNS_14CwiseNullaryOpINS0_18scalar_constant_opIfEEKS3_EESC_EESG_EENS0_9assign_opIffEEEEvRT_RKT0_RKT1_)
                  00011c60    00000050     CarSim.obj (.text:_ZN5Eigen8internal26call_dense_assignment_loopINS_6MatrixIfLi3ELi1ELi0ELi3ELi1EEENS_13CwiseBinaryOpINS0_13scalar_sum_opIffEEKS3_KNS4_INS0_17scalar_product_opIffEEKNS_14CwiseNullaryOpINS0_18scalar_constant_opIfEES7_EEKNS4_IS6_KNS4_IS6_KNS4_IS6_KNS_5BlockINS2_IfLi3ELi4ELi0ELi3ELi4EEELi3ELi1ELb1EEEKNS4_IS9_SE_SI_EEEESK_EESI_EEEEEENS0_9assign_opIffEEEEvRT_RKT0_RKT1_)
                  00011cb0    00000050     PathTrackSim.obj (.text:_ZN5Eigen8internal26call_dense_assignment_loopINS_6MatrixIfLi3ELi1ELi0ELi3ELi1EEENS_13CwiseBinaryOpINS0_17scalar_product_opIffEEKNS_14CwiseNullaryOpINS0_18scalar_constant_opIfEEKS3_EEKNS4_INS0_13scalar_sum_opIffEEKNS4_ISE_KNS4_ISE_KNS_5BlockINS2_IfLi3ELi4ELi0ELi3ELi4EEELi3ELi1ELb1EEEKNS4_IS6_SC_SI_EEEESK_EESI_EEEENS0_13add_assign_opIffEEEEvRT_RKT0_RKT1_)
                  00011d00    00000050     PathTrackSim.obj (.text:_ZN5Eigen8internal26call_dense_assignment_loopINS_6MatrixIfLi3ELi1ELi0ELi3ELi1EEENS_13CwiseBinaryOpINS0_17scalar_product_opIffEEKNS_14CwiseNullaryOpINS0_18scalar_constant_opIfEEKS3_EESA_EENS0_13add_assign_opIffEEEEvRT_RKT0_RKT1_)
                  00011d50    00000050     Car.obj (.text:_ZN5Eigen8internal26call_dense_assignment_loopINS_6MatrixIfLi3ELi1ELi0ELi3ELi1EEENS_3MapIKS3_Li0ENS_6StrideILi0ELi0EEEEENS0_9assign_opIffEEEEvRT_RKT0_RKT1_)
                  00011da0    00000050     Car.obj (.text:_ZN5Eigen8internal26call_dense_assignment_loopINS_6MatrixIfLi3ELi1ELi0ELi3ELi1EEES3_NS0_9assign_opIffEEEEvRT_RKT0_RKT1_)
                  00011df0    00000050     CarSim.obj (.text:_ZN5EigenmlIfEENS_8internal9enable_ifILb1EKNS_13CwiseBinaryOpINS1_17scalar_product_opINS1_18promote_scalar_argIfT_Xsr5Eigen8internal14has_ReturnTypeINS_20ScalarBinaryOpTraitsIS6_fNS4_IS6_fEEEEEE5valueEE4typeEfEEKNS1_19plain_constant_typeINS3_INS1_13scalar_sum_opIffEEKNS3_ISF_KNS3_ISF_KNS_5BlockINS_6MatrixIfLi3ELi4ELi0ELi3ELi4EEELi3ELi1ELb1EEEKNS3_INS4_IffEEKNS_14CwiseNullaryOpINS1_18scalar_constant_opIfEEKNSH_IfLi3ELi1ELi0ELi3ELi1EEEEESK_EEEESU_EESK_EESB_E4typeEKSZ_EEE4typeERKS6_RKNS_10MatrixBaseISZ_EE)
                  00011e40    00000050     PathGenerator.obj (.text:_ZN5EigenmlIfEENS_8internal9enable_ifILb1EKNS_13CwiseBinaryOpINS1_17scalar_product_opINS1_18promote_scalar_argIfT_Xsr5Eigen8internal14has_ReturnTypeINS_20ScalarBinaryOpTraitsIS6_fNS4_IS6_fEEEEEE5valueEE4typeEfEEKNS1_19plain_constant_typeINS3_INS1_20scalar_difference_opIffEEKNS_6MatrixIfLi2ELi1ELi0ELi2ELi1EEESI_EESB_E4typeEKSJ_EEE4typeERKS6_RKNS_10MatrixBaseISJ_EE)
                  00011e90    00000050     PathGenerator.obj (.text:_ZN5EigenmlIfEENS_8internal9enable_ifILb1EKNS_13CwiseBinaryOpINS1_17scalar_product_opINS1_18promote_scalar_argIfT_Xsr5Eigen8internal14has_ReturnTypeINS_20ScalarBinaryOpTraitsIS6_fNS4_IS6_fEEEEEE5valueEE4typeEfEEKNS1_19plain_constant_typeINS_6MatrixIfLi2ELi1ELi0ELi2ELi1EEESB_E4typeEKSF_EEE4typeERKS6_RKNS_10MatrixBaseISF_EE)
                  00011ee0    00000050     PathTrackSim.obj (.text:_ZN5EigenmlIfEENS_8internal9enable_ifILb1EKNS_13CwiseBinaryOpINS1_17scalar_product_opINS1_18promote_scalar_argIfT_Xsr5Eigen8internal14has_ReturnTypeINS_20ScalarBinaryOpTraitsIS6_fNS4_IS6_fEEEEEE5valueEE4typeEfEEKNS1_19plain_constant_typeINS_6MatrixIfLi3ELi1ELi0ELi3ELi1EEESB_E4typeEKSF_EEE4typeERKS6_RKNS_10MatrixBaseISF_EE)
                  00011f30    0000004e     msp432p4xx_driverlib.lib : timer_a.o (.text:Timer_A_initCompare)
                  00011f7e    00000002     --HOLE-- [fill = 0]
                  00011f80    0000004e     PathGenerator.obj (.text:_ZNSt3__26vectorIbNS_9allocatorIbEEE4swapERS3_)
                  00011fce    00000002     --HOLE-- [fill = 0]
                  00011fd0    0000004c     CarSim.obj (.text:_ZN5Eigen15DenseCoeffsBaseINS_6MatrixIfLi3ELi4ELi0ELi3ELi4EEELi1EEclEii)
                  0001201c    00000004     --HOLE-- [fill = 0]
                  00012020    0000004c     PathGenerator.obj (.text:_ZN5Eigen15PlainObjectBaseINS_6MatrixIfLi2ELi1ELi0ELi2ELi1EEEE6resizeEii)
                  0001206c    00000004     --HOLE-- [fill = 0]
                  00012070    0000004c     PathGenerator.obj (.text:_ZN5Eigen15PlainObjectBaseINS_6MatrixIfLi2ELi2ELi0ELi2ELi2EEEE6resizeEii)
                  000120bc    00000004     --HOLE-- [fill = 0]
                  000120c0    0000004c     Car.obj (.text:_ZN5Eigen15PlainObjectBaseINS_6MatrixIfLi3ELi1ELi0ELi3ELi1EEEE6resizeEii)
                  0001210c    00000004     --HOLE-- [fill = 0]
                  00012110    0000004c     PathGenerator.obj (.text:_ZNKSt3__26vectorItNS_9allocatorItEEE11__recommendEj)
                  0001215c    0000004c     rtsv7M4_T_le_v4SPD16_eabi.lib : fflush.c.obj (.text:__TI_doflush)
                  000121a8    0000004c                                   : atoi.c.obj (.text:atoi)
                  000121f4    00000004     --HOLE-- [fill = 0]
                  000121f8    0000004a     PathGenerator.obj (.text:_ZNSt3__26vectorIbNS_9allocatorIbEEE9push_backERKb)
                  00012242    00000002     --HOLE-- [fill = 0]
                  00012244    00000048     msp432p4xx_driverlib.lib : flash.o (.text:FlashCtl_setWaitState)
                  0001228c    00000004     --HOLE-- [fill = 0]
                  00012290    00000048     PathGenerator.obj (.text:_ZN5Eigen8internal21dense_assignment_loopINS0_31generic_dense_assignment_kernelINS0_9evaluatorINS_5BlockINS_6MatrixIfLi2ELi2ELi0ELi2ELi2EEELin1ELin1ELb0EEEEENS3_INS5_IfLi2ELi1ELi0ELi2ELi1EEEEENS0_9assign_opIffEELi0EEELi0ELi0EE3runERSD_)
                  000122d8    00000048     PathGenerator.obj (.text:_ZN5Eigen8internal21dense_assignment_loopINS0_31generic_dense_assignment_kernelINS0_9evaluatorINS_5BlockINS_6MatrixIfLi2ELi2ELi0ELi2ELi2EEELin1ELin1ELb0EEEEENS3_INS_9TransposeINS5_IfLi2ELi1ELi0ELi2ELi1EEEEEEENS0_9assign_opIffEELi0EEELi0ELi0EE3runERSF_)
                  00012320    00000048     rtsv7M4_T_le_v4SPD16_eabi.lib : exit.c.obj (.text:exit)
                  00012368    00000048                                   : fd_toi_t2.asm.obj (.text)
                  000123b0    00000046     PathGenerator.obj (.text:_ZN5Eigen15PlainObjectBaseINS_6MatrixIfLi2ELi1ELi0ELi2ELi1EEEE6_init2IddEEvRKT_RKT0_PNS_8internal9enable_ifILb1ES5_E4typeE)
                  000123f6    00000002     --HOLE-- [fill = 0]
                  000123f8    00000044     rtsv7M4_T_le_v4SPD16_eabi.lib : hostclose.c.obj (.text:HOSTclose)
                  0001243c    00000044                                   : hostunlink.c.obj (.text:HOSTunlink)
                  00012480    00000044                                   : dtor_list.c.obj (.text:_Z25__add_destruction_to_listPP20a_needed_destructionPFYvPvES2_S2_)
                  000124c4    00000004     --HOLE-- [fill = 0]
                  000124c8    00000044     PIDController.obj (.text:_Z4signf)
                  0001250c    00000004     --HOLE-- [fill = 0]
                  00012510    00000044     PathTrackSim.obj (.text:_ZNSt3__213__vector_baseItNS_9allocatorItEEE17__destruct_at_endEPt)
                  00012554    00000044     rtsv7M4_T_le_v4SPD16_eabi.lib : getdevice.c.obj (.text:getdevice)
                  00012598    00000044                                   : fd_tou_t2.asm.obj (.text)
                  000125dc    00000042                                   : dtor_list.c.obj (.text:_Z23__finalize_destructionsPP20a_needed_destructionPv)
                  0001261e    00000002     --HOLE-- [fill = 0]
                  00012620    00000042     Car.obj (.text:_ZN5Eigen6MatrixIfLi3ELi1ELi0ELi3ELi1EEC1ERKfS3_S3_)
                  00012662    00000006     --HOLE-- [fill = 0]
                  00012668    00000042     PathGenerator.obj (.text:_ZN5Eigen9DenseBaseINS_6MatrixIfLi2ELi1ELi0ELi2ELi1EEEEmLERKf)
                  000126aa    00000006     --HOLE-- [fill = 0]
                  000126b0    00000042     PathGenerator.obj (.text:_ZNSt3__26vectorIbNS_9allocatorIbEEE8allocateEj)
                  000126f2    00000002     --HOLE-- [fill = 0]
                  000126f4    00000040     msp432p4xx_driverlib.lib : gpio.o (.text:GPIO_setAsOutputPin)
                  00012734    00000004     --HOLE-- [fill = 0]
                  00012738    00000040     PathGenerator.obj (.text:_ZN5Eigen8internal17resize_if_allowedINS_6MatrixIfLi2ELi1ELi0ELi2ELi1EEENS_14CwiseNullaryOpINS0_18scalar_constant_opIfEES3_EENS0_13mul_assign_opIffEEEEvRT_RKT0_RKT1_)
                  00012778    00000040     PathGenerator.obj (.text:_ZN5Eigen8internal17resize_if_allowedINS_6MatrixIfLi2ELi1ELi0ELi2ELi1EEES3_NS0_14swap_assign_opIfEEEEvRT_RKT0_RKT1_)
                  000127b8    00000040     PathTrackSim.obj (.text:_ZN5Eigen8internal17resize_if_allowedINS_6MatrixIfLi3ELi1ELi0ELi3ELi1EEENS_13CwiseBinaryOpINS0_17scalar_product_opIffEEKNS_14CwiseNullaryOpINS0_18scalar_constant_opIfEEKS3_EEKNS4_INS0_13scalar_sum_opIffEEKNS4_ISE_KNS4_ISE_KNS_5BlockINS2_IfLi3ELi4ELi0ELi3ELi4EEELi3ELi1ELb1EEEKNS4_IS6_SC_SI_EEEESK_EESI_EEEENS0_13add_assign_opIffEEEEvRT_RKT0_RKT1_)
                  000127f8    00000040     PathTrackSim.obj (.text:_ZN5Eigen8internal17resize_if_allowedINS_6MatrixIfLi3ELi1ELi0ELi3ELi1EEENS_13CwiseBinaryOpINS0_17scalar_product_opIffEEKNS_14CwiseNullaryOpINS0_18scalar_constant_opIfEEKS3_EESA_EENS0_13add_assign_opIffEEEEvRT_RKT0_RKT1_)
                  00012838    00000040     rtsv7M4_T_le_v4SPD16_eabi.lib : sprintf.c.obj (.text:sprintf)
                  00012878    0000003e                                   : _printfi.c.obj (.text:_fcpy)
                  000128b6    00000002     --HOLE-- [fill = 0]
                  000128b8    0000003c     PathGenerator.obj (.text:_ZN5Eigen15PlainObjectBaseINS_6MatrixIfLi2ELi1ELi0ELi2ELi1EEEE6_init2IfdEEvRKT_RKT0_PNS_8internal9enable_ifILb1ES5_E4typeE)
                  000128f4    00000004     --HOLE-- [fill = 0]
                  000128f8    0000003c     CarSim.obj (.text:_ZN5Eigen5BlockINS_6MatrixIfLi3ELi4ELi0ELi3ELi4EEELi3ELi1ELb1EEC1ERS2_i)
                  00012934    00000004     --HOLE-- [fill = 0]
                  00012938    0000003c     PathGenerator.obj (.text:_ZNSt3__216allocator_traitsINS_9allocatorItEEE20__construct_backwardItEENS_9enable_ifIXaaoosr3std3__27is_sameIS2_NS1_IT_EEEE5valuentsr3std3__215__has_constructIS2_PS6_JS6_EEE5valuesr3std3__231is_trivially_move_constructibleIS6_EE5valueEvE4typeERS2_S8_S8_RS8_)
                  00012974    00000004     --HOLE-- [fill = 0]
                  00012978    0000003a     Car.obj (.text:_ZN5Eigen8internal17mapbase_evaluatorINS_3MapIKNS_6MatrixIfLi3ELi1ELi0ELi3ELi1EEELi0ENS_6StrideILi0ELi0EEEEES5_EC1ERKS8_)
                  000129b2    00000006     --HOLE-- [fill = 0]
                  000129b8    0000003a     PathGenerator.obj (.text:_ZN5Eigen8internal17mapbase_evaluatorINS_5BlockINS_6MatrixIfLi2ELi2ELi0ELi2ELi2EEELin1ELin1ELb0EEENS3_IfLin1ELin1ELi0ELi2ELi2EEEEC1ERKS5_)
                  000129f2    00000006     --HOLE-- [fill = 0]
                  000129f8    0000003a     CarSim.obj (.text:_ZN5Eigen8internal17mapbase_evaluatorINS_5BlockINS_6MatrixIfLi3ELi4ELi0ELi3ELi4EEELi3ELi1ELb1EEENS3_IfLi3ELi1ELi0ELi3ELi1EEEEC1ERKS5_)
                  00012a32    00000006     --HOLE-- [fill = 0]
                  00012a38    0000003a     PathGenerator.obj (.text:_ZNSt3__214__split_bufferItRNS_9allocatorItEEE17__destruct_at_endEPtNS_17integral_constantIbLb0EEE)
                  00012a72    00000006     --HOLE-- [fill = 0]
                  00012a78    0000003a     PathGenerator.obj (.text:_ZNSt3__26vectorIbNS_9allocatorIbEEEC1ERKS2_)
                  00012ab2    00000006     --HOLE-- [fill = 0]
                  00012ab8    00000038     PathGenerator.obj (.text:_ZN5Eigen9DenseBaseINS_5BlockINS_6MatrixIfLi2ELi2ELi0ELi2ELi2EEELin1ELin1ELb0EEEE6resizeEii)
                  00012af0    00000038     CarSim.obj (.text:_ZN5Eigen9DenseBaseINS_5BlockINS_6MatrixIfLi3ELi4ELi0ELi3ELi4EEELi3ELi1ELb1EEEE6resizeEii)
                  00012b28    00000038     rtsv7M4_T_le_v4SPD16_eabi.lib : trgmsg.c.obj (.text:__TI_writemsg)
                  00012b60    00000038                                   : fs_tod_t2.asm.obj (.text)
                  00012b98    00000036     PathTrackSim.obj (.text:_ZN5Eigen8internal16binary_evaluatorINS_13CwiseBinaryOpINS0_13scalar_sum_opIffEEKNS2_INS0_17scalar_product_opIffEEKNS_14CwiseNullaryOpINS0_18scalar_constant_opIfEEKNS_6MatrixIfLi3ELi1ELi0ELi3ELi1EEEEESC_EESG_EENS0_10IndexBasedESI_ffEC1ERKSH_)
                  00012bce    00000002     --HOLE-- [fill = 0]
                  00012bd0    00000036     CarSim.obj (.text:_ZN5Eigen8internal16binary_evaluatorINS_13CwiseBinaryOpINS0_13scalar_sum_opIffEEKNS2_IS4_KNS2_IS4_KNS_5BlockINS_6MatrixIfLi3ELi4ELi0ELi3ELi4EEELi3ELi1ELb1EEEKNS2_INS0_17scalar_product_opIffEEKNS_14CwiseNullaryOpINS0_18scalar_constant_opIfEEKNS6_IfLi3ELi1ELi0ELi3ELi1EEEEES9_EEEESK_EES9_EENS0_10IndexBasedESQ_ffEC1ERKSP_)
                  00012c06    00000002     --HOLE-- [fill = 0]
                  00012c08    00000036     CarSim.obj (.text:_ZN5Eigen8internal16binary_evaluatorINS_13CwiseBinaryOpINS0_13scalar_sum_opIffEEKNS2_IS4_KNS_5BlockINS_6MatrixIfLi3ELi4ELi0ELi3ELi4EEELi3ELi1ELb1EEEKNS2_INS0_17scalar_product_opIffEEKNS_14CwiseNullaryOpINS0_18scalar_constant_opIfEEKNS6_IfLi3ELi1ELi0ELi3ELi1EEEEES9_EEEESK_EENS0_10IndexBasedESO_ffEC1ERKSN_)
                  00012c3e    00000002     --HOLE-- [fill = 0]
                  00012c40    00000036     CarSim.obj (.text:_ZN5Eigen8internal16binary_evaluatorINS_13CwiseBinaryOpINS0_13scalar_sum_opIffEEKNS_5BlockINS_6MatrixIfLi3ELi4ELi0ELi3ELi4EEELi3ELi1ELb1EEEKNS2_INS0_17scalar_product_opIffEEKNS_14CwiseNullaryOpINS0_18scalar_constant_opIfEEKNS6_IfLi3ELi1ELi0ELi3ELi1EEEEES9_EEEENS0_10IndexBasedESM_ffEC1ERKSL_)
                  00012c76    00000002     --HOLE-- [fill = 0]
                  00012c78    00000036     PathGenerator.obj (.text:_ZN5Eigen8internal16binary_evaluatorINS_13CwiseBinaryOpINS0_13scalar_sum_opIffEEKNS_6MatrixIfLi2ELi1ELi0ELi2ELi1EEEKNS2_INS0_17scalar_product_opIffEEKNS_14CwiseNullaryOpINS0_18scalar_constant_opIfEES7_EEKNS2_INS0_20scalar_difference_opIffEES7_S7_EEEEEENS0_10IndexBasedESM_ffEC1ERKSL_)
                  00012cae    00000002     --HOLE-- [fill = 0]
                  00012cb0    00000036     PathGenerator.obj (.text:_ZN5Eigen8internal16binary_evaluatorINS_13CwiseBinaryOpINS0_13scalar_sum_opIffEEKNS_6MatrixIfLi2ELi1ELi0ELi2ELi1EEEKNS2_INS0_17scalar_product_opIffEEKNS_14CwiseNullaryOpINS0_18scalar_constant_opIfEES7_EES7_EEEENS0_10IndexBasedESI_ffEC1ERKSH_)
                  00012ce6    00000002     --HOLE-- [fill = 0]
                  00012ce8    00000036     PathGenerator.obj (.text:_ZN5Eigen8internal16binary_evaluatorINS_13CwiseBinaryOpINS0_13scalar_sum_opIffEEKNS_6MatrixIfLi2ELi1ELi0ELi2ELi1EEES7_EENS0_10IndexBasedES9_ffEC1ERKS8_)
                  00012d1e    00000002     --HOLE-- [fill = 0]
                  00012d20    00000036     CarSim.obj (.text:_ZN5Eigen8internal16binary_evaluatorINS_13CwiseBinaryOpINS0_13scalar_sum_opIffEEKNS_6MatrixIfLi3ELi1ELi0ELi3ELi1EEEKNS2_INS0_17scalar_product_opIffEEKNS_14CwiseNullaryOpINS0_18scalar_constant_opIfEES7_EEKNS2_IS4_KNS2_IS4_KNS2_IS4_KNS_5BlockINS5_IfLi3ELi4ELi0ELi3ELi4EEELi3ELi1ELb1EEEKNS2_IS9_SE_SI_EEEESK_EESI_EEEEEENS0_10IndexBasedESU_ffEC1ERKST_)
                  00012d56    00000002     --HOLE-- [fill = 0]
                  00012d58    00000036     PathGenerator.obj (.text:_ZN5Eigen8internal16binary_evaluatorINS_13CwiseBinaryOpINS0_17scalar_product_opIffEEKNS_14CwiseNullaryOpINS0_18scalar_constant_opIfEEKNS_6MatrixIfLi2ELi1ELi0ELi2ELi1EEEEEKNS2_INS0_20scalar_difference_opIffEESA_SA_EEEENS0_10IndexBasedESI_ffEC1ERKSH_)
                  00012d8e    00000002     --HOLE-- [fill = 0]
                  00012d90    00000036     PathGenerator.obj (.text:_ZN5Eigen8internal16binary_evaluatorINS_13CwiseBinaryOpINS0_17scalar_product_opIffEEKNS_14CwiseNullaryOpINS0_18scalar_constant_opIfEEKNS_6MatrixIfLi2ELi1ELi0ELi2ELi1EEEEESA_EENS0_10IndexBasedESE_ffEC1ERKSD_)
                  00012dc6    00000002     --HOLE-- [fill = 0]
                  00012dc8    00000036     CarSim.obj (.text:_ZN5Eigen8internal16binary_evaluatorINS_13CwiseBinaryOpINS0_17scalar_product_opIffEEKNS_14CwiseNullaryOpINS0_18scalar_constant_opIfEEKNS_6MatrixIfLi3ELi1ELi0ELi3ELi1EEEEEKNS2_INS0_13scalar_sum_opIffEEKNS2_ISE_KNS2_ISE_KNS_5BlockINS8_IfLi3ELi4ELi0ELi3ELi4EEELi3ELi1ELb1EEEKNS2_IS4_SC_SI_EEEESK_EESI_EEEENS0_10IndexBasedESS_ffEC1ERKSR_)
                  00012dfe    00000002     --HOLE-- [fill = 0]
                  00012e00    00000036     CarSim.obj (.text:_ZN5Eigen8internal16binary_evaluatorINS_13CwiseBinaryOpINS0_17scalar_product_opIffEEKNS_14CwiseNullaryOpINS0_18scalar_constant_opIfEEKNS_6MatrixIfLi3ELi1ELi0ELi3ELi1EEEEEKNS_5BlockINS8_IfLi3ELi4ELi0ELi3ELi4EEELi3ELi1ELb1EEEEENS0_10IndexBasedESI_ffEC1ERKSH_)
                  00012e36    00000002     --HOLE-- [fill = 0]
                  00012e38    00000036     PathTrackSim.obj (.text:_ZN5Eigen8internal16binary_evaluatorINS_13CwiseBinaryOpINS0_17scalar_product_opIffEEKNS_14CwiseNullaryOpINS0_18scalar_constant_opIfEEKNS_6MatrixIfLi3ELi1ELi0ELi3ELi1EEEEESA_EENS0_10IndexBasedESE_ffEC1ERKSD_)
                  00012e6e    00000002     --HOLE-- [fill = 0]
                  00012e70    00000036     PathGenerator.obj (.text:_ZN5Eigen8internal16binary_evaluatorINS_13CwiseBinaryOpINS0_20scalar_difference_opIffEEKNS_6MatrixIfLi2ELi1ELi0ELi2ELi1EEES7_EENS0_10IndexBasedES9_ffEC1ERKS8_)
                  00012ea6    00000002     --HOLE-- [fill = 0]
                  00012ea8    00000036     PathGenerator.obj (.text:_ZN5Eigen8internal16binary_evaluatorINS_13CwiseBinaryOpINS0_22scalar_conj_product_opIffEEKNS_6MatrixIfLi2ELi1ELi0ELi2ELi1EEES7_EENS0_10IndexBasedES9_ffEC1ERKS8_)
                  00012ede    00000002     --HOLE-- [fill = 0]
                  00012ee0    00000036     PathTrackSim.obj (.text:_ZN5Eigen8internal16binary_evaluatorINS_13CwiseBinaryOpINS0_22scalar_conj_product_opIffEEKNS_6MatrixIfLi3ELi1ELi0ELi3ELi1EEES7_EENS0_10IndexBasedES9_ffEC1ERKS8_)
                  00012f16    00000002     --HOLE-- [fill = 0]
                  00012f18    00000036     PathGenerator.obj (.text:_ZN5Eigen9DenseBaseINS_6MatrixIfLi2ELi2ELi0ELi2ELi2EEEE5blockEiiii)
                  00012f4e    00000036     rtsv7M4_T_le_v4SPD16_eabi.lib : strncpy.c.obj (.text:strncpy)
                  00012f84    00000034     msp432p4xx_driverlib.lib : cs.o (.text:CS_setDCOCenteredFrequency)
                  00012fb8    00000034                              : uart.o (.text:UART_transmitData)
                  00012fec    00000004     --HOLE-- [fill = 0]
                  00012ff0    00000034     CarSim.obj (.text:_ZN5Eigen13CwiseBinaryOpINS_8internal13scalar_sum_opIffEEKNS0_IS3_KNS0_IS3_KNS_5BlockINS_6MatrixIfLi3ELi4ELi0ELi3ELi4EEELi3ELi1ELb1EEEKNS0_INS1_17scalar_product_opIffEEKNS_14CwiseNullaryOpINS1_18scalar_constant_opIfEEKNS5_IfLi3ELi1ELi0ELi3ELi1EEEEES8_EEEESJ_EES8_EC1ERKSO_)
                  00013024    00000004     --HOLE-- [fill = 0]
                  00013028    00000034     CarSim.obj (.text:_ZN5Eigen13CwiseBinaryOpINS_8internal17scalar_product_opIffEEKNS_14CwiseNullaryOpINS1_18scalar_constant_opIfEEKNS_6MatrixIfLi3ELi1ELi0ELi3ELi1EEEEEKNS_5BlockINS7_IfLi3ELi4ELi0ELi3ELi4EEELi3ELi1ELb1EEEEC1ERKSG_)
                  0001305c    00000004     --HOLE-- [fill = 0]
                  00013060    00000034     PathGenerator.obj (.text:_ZN5Eigen15DenseCoeffsBaseINS_6MatrixIfLi2ELi1ELi0ELi2ELi1EEELi1EEixEi)
                  00013094    00000004     --HOLE-- [fill = 0]
                  00013098    00000034     Task.obj (.text:_ZN5Eigen15DenseCoeffsBaseINS_6MatrixIfLi3ELi1ELi0ELi3ELi1EEELi1EEixEi)
                  000130cc    00000004     --HOLE-- [fill = 0]
                  000130d0    00000034     PathGenerator.obj (.text:_ZNK5Eigen10MatrixBaseINS_6MatrixIfLi2ELi1ELi0ELi2ELi1EEEE3dotIS2_EENS_20ScalarBinaryOpTraitsIfNS_8internal6traitsIT_E6ScalarENS6_17scalar_product_opIfSA_EEE10ReturnTypeERKNS0_IS8_EE)
                  00013104    00000004     --HOLE-- [fill = 0]
                  00013108    00000034     PathGenerator.obj (.text:_ZNK5Eigen10MatrixBaseINS_6MatrixIfLi2ELi2ELi0ELi2ELi2EEEE11determinantEv)
                  0001313c    00000004     --HOLE-- [fill = 0]
                  00013140    00000034     PathTrackSim.obj (.text:_ZNK5Eigen10MatrixBaseINS_6MatrixIfLi3ELi1ELi0ELi3ELi1EEEE3dotIS2_EENS_20ScalarBinaryOpTraitsIfNS_8internal6traitsIT_E6ScalarENS6_17scalar_product_opIfSA_EEE10ReturnTypeERKNS0_IS8_EE)
                  00013174    00000004     --HOLE-- [fill = 0]
                  00013178    00000034     PathTrackSim.obj (.text:_ZNK5Eigen8internal16binary_evaluatorINS_13CwiseBinaryOpINS0_13scalar_sum_opIffEEKNS2_INS0_17scalar_product_opIffEEKNS_14CwiseNullaryOpINS0_18scalar_constant_opIfEEKNS_6MatrixIfLi3ELi1ELi0ELi3ELi1EEEEESC_EESG_EENS0_10IndexBasedESI_ffE5coeffEi)
                  000131ac    00000004     --HOLE-- [fill = 0]
                  000131b0    00000034     CarSim.obj (.text:_ZNK5Eigen8internal16binary_evaluatorINS_13CwiseBinaryOpINS0_13scalar_sum_opIffEEKNS2_IS4_KNS_5BlockINS_6MatrixIfLi3ELi4ELi0ELi3ELi4EEELi3ELi1ELb1EEEKNS2_INS0_17scalar_product_opIffEEKNS_14CwiseNullaryOpINS0_18scalar_constant_opIfEEKNS6_IfLi3ELi1ELi0ELi3ELi1EEEEES9_EEEESK_EENS0_10IndexBasedESO_ffE5coeffEi)
                  000131e4    00000004     --HOLE-- [fill = 0]
                  000131e8    00000034     PathGenerator.obj (.text:_ZNK5Eigen8internal16binary_evaluatorINS_13CwiseBinaryOpINS0_17scalar_product_opIffEEKNS_14CwiseNullaryOpINS0_18scalar_constant_opIfEEKNS_6MatrixIfLi2ELi1ELi0ELi2ELi1EEEEEKNS2_INS0_20scalar_difference_opIffEESA_SA_EEEENS0_10IndexBasedESI_ffE5coeffEi)
                  0001321c    00000004     --HOLE-- [fill = 0]
                  00013220    00000034     CarSim.obj (.text:_ZNK5Eigen8internal16binary_evaluatorINS_13CwiseBinaryOpINS0_17scalar_product_opIffEEKNS_14CwiseNullaryOpINS0_18scalar_constant_opIfEEKNS_6MatrixIfLi3ELi1ELi0ELi3ELi1EEEEEKNS2_INS0_13scalar_sum_opIffEEKNS2_ISE_KNS2_ISE_KNS_5BlockINS8_IfLi3ELi4ELi0ELi3ELi4EEELi3ELi1ELb1EEEKNS2_IS4_SC_SI_EEEESK_EESI_EEEENS0_10IndexBasedESS_ffE5coeffEi)
                  00013254    00000004     --HOLE-- [fill = 0]
                  00013258    00000034     PathGenerator.obj (.text:_ZNSt3__215__bit_referenceINS_6vectorIbNS_9allocatorIbEEEELb1EEaSEb)
                  0001328c    00000004     --HOLE-- [fill = 0]
                  00013290    00000034     PathGenerator.obj (.text:_ZNSt3__24listIPN9pathTrack8PathPartENS_9allocatorIS3_EEE15__allocate_nodeERNS4_INS_11__list_nodeIS3_PvEEEE)
                  000132c4    00000004     --HOLE-- [fill = 0]
                  000132c8    00000034     PathTrackSim.obj (.text:_ZNSt3__24listIfNS_9allocatorIfEEE15__allocate_nodeERNS1_INS_11__list_nodeIfPvEEEE)
                  000132fc    00000034     rtsv7M4_T_le_v4SPD16_eabi.lib : fopen.c.obj (.text:__TI_cleanup)
                  00013330    00000034                                   : trgmsg.c.obj (.text:__TI_readmsg)
                  00013364    00000034                                   : dtor_list.c.obj (.text:__aeabi_atexit)
                  00013398    00000034                                   : boot_cortex_m.c.obj (.text:_c_int00_noargs:_c_int00_noargs)
                  000133cc    00000004     --HOLE-- [fill = 0]
                  000133d0    00000032     Car.obj (.text:_ZN5Eigen7MapBaseINS_3MapIKNS_6MatrixIfLi3ELi1ELi0ELi3ELi1EEELi0ENS_6StrideILi0ELi0EEEEELi0EEC1EPKf)
                  00013402    00000006     --HOLE-- [fill = 0]
                  00013408    00000032     PathGenerator.obj (.text:_ZN5Eigen8internal31generic_dense_assignment_kernelINS0_9evaluatorINS_5BlockINS_6MatrixIfLi2ELi2ELi0ELi2ELi2EEELin1ELin1ELb0EEEEENS2_INS4_IfLi2ELi1ELi0ELi2ELi1EEEEENS0_9assign_opIffEELi0EE11assignCoeffEii)
                  0001343a    00000006     --HOLE-- [fill = 0]
                  00013440    00000032     PathGenerator.obj (.text:_ZN5Eigen8internal31generic_dense_assignment_kernelINS0_9evaluatorINS_5BlockINS_6MatrixIfLi2ELi2ELi0ELi2ELi2EEELin1ELin1ELb0EEEEENS2_INS_9TransposeINS4_IfLi2ELi1ELi0ELi2ELi1EEEEEEENS0_9assign_opIffEELi0EE11assignCoeffEii)
                  00013472    00000006     --HOLE-- [fill = 0]
                  00013478    00000032     PathGenerator.obj (.text:_ZNK5Eigen10MatrixBaseINS_6MatrixIfLi2ELi1ELi0ELi2ELi1EEEE10binaryExprINS_8internal22scalar_conj_product_opIffEES2_EEKNS_13CwiseBinaryOpIT_KS2_KT0_EERKNS0_ISB_EERKS9_)
                  000134aa    00000006     --HOLE-- [fill = 0]
                  000134b0    00000032     PathTrackSim.obj (.text:_ZNK5Eigen10MatrixBaseINS_6MatrixIfLi3ELi1ELi0ELi3ELi1EEEE10binaryExprINS_8internal22scalar_conj_product_opIffEES2_EEKNS_13CwiseBinaryOpIT_KS2_KT0_EERKNS0_ISB_EERKS9_)
                  000134e2    00000002     --HOLE-- [fill = 0]
                  000134e4    00000030     msp432p4xx_driverlib.lib : cs.o (.text:CS_clearInterruptFlag)
                  00013514    00000030                              : cs.o (.text:CS_setReferenceOscillatorFrequency)
                  00013544    00000030                              : gpio.o (.text:GPIO_getInputPinValue)
                  00013574    00000030                              : uart.o (.text:UART_enableInterrupt)
                  000135a4    00000030                              : uart.o (.text:UART_receiveData)
                  000135d4    00000004     --HOLE-- [fill = 0]
                  000135d8    00000030     CarSim.obj (.text:_ZN5Eigen13CwiseBinaryOpINS_8internal13scalar_sum_opIffEEKNS_5BlockINS_6MatrixIfLi3ELi4ELi0ELi3ELi4EEELi3ELi1ELb1EEEKNS0_INS1_17scalar_product_opIffEEKNS_14CwiseNullaryOpINS1_18scalar_constant_opIfEEKNS5_IfLi3ELi1ELi0ELi3ELi1EEEEES8_EEEC1ERKSK_)
                  00013608    00000030     CarSim.obj (.text:_ZN5Eigen15DenseCoeffsBaseINS_6MatrixIfLi3ELi4ELi0ELi3ELi4EEELi1EE8coeffRefEii)
                  00013638    00000030     PathGenerator.obj (.text:_ZN5Eigen8internal20redux_novec_unrollerINS0_13scalar_sum_opIffEENS0_15redux_evaluatorINS_12CwiseUnaryOpINS0_14scalar_abs2_opIfEEKNS_13CwiseBinaryOpINS0_20scalar_difference_opIffEEKNS_6MatrixIfLi2ELi1ELi0ELi2ELi1EEESD_EEEEEELi0ELi2EE3runERKSH_RKS3_)
                  00013668    00000030     PathGenerator.obj (.text:_ZN5Eigen8internal20redux_novec_unrollerINS0_13scalar_sum_opIffEENS0_15redux_evaluatorINS_12CwiseUnaryOpINS0_14scalar_abs2_opIfEEKNS_6MatrixIfLi2ELi1ELi0ELi2ELi1EEEEEEELi0ELi2EE3runERKSC_RKS3_)
                  00013698    00000030     PathTrackSim.obj (.text:_ZN5Eigen8internal20redux_novec_unrollerINS0_13scalar_sum_opIffEENS0_15redux_evaluatorINS_12CwiseUnaryOpINS0_14scalar_abs2_opIfEEKNS_6MatrixIfLi3ELi1ELi0ELi3ELi1EEEEEEELi0ELi3EE3runERKSC_RKS3_)
                  000136c8    00000030     PathTrackSim.obj (.text:_ZN5Eigen8internal20redux_novec_unrollerINS0_13scalar_sum_opIffEENS0_15redux_evaluatorINS_12CwiseUnaryOpINS0_14scalar_abs2_opIfEEKNS_6MatrixIfLi3ELi1ELi0ELi3ELi1EEEEEEELi1ELi2EE3runERKSC_RKS3_)
                  000136f8    00000030     PathGenerator.obj (.text:_ZN5Eigen8internal20redux_novec_unrollerINS0_13scalar_sum_opIffEENS0_15redux_evaluatorINS_13CwiseBinaryOpINS0_22scalar_conj_product_opIffEEKNS_6MatrixIfLi2ELi1ELi0ELi2ELi1EEESA_EEEELi0ELi2EE3runERKSC_RKS3_)
                  00013728    00000030     PathTrackSim.obj (.text:_ZN5Eigen8internal20redux_novec_unrollerINS0_13scalar_sum_opIffEENS0_15redux_evaluatorINS_13CwiseBinaryOpINS0_22scalar_conj_product_opIffEEKNS_6MatrixIfLi3ELi1ELi0ELi3ELi1EEESA_EEEELi0ELi3EE3runERKSC_RKS3_)
                  00013758    00000030     PathTrackSim.obj (.text:_ZN5Eigen8internal20redux_novec_unrollerINS0_13scalar_sum_opIffEENS0_15redux_evaluatorINS_13CwiseBinaryOpINS0_22scalar_conj_product_opIffEEKNS_6MatrixIfLi3ELi1ELi0ELi3ELi1EEESA_EEEELi1ELi2EE3runERKSC_RKS3_)
                  00013788    00000030     PathTrackSim.obj (.text:_ZN5Eigen8internal31generic_dense_assignment_kernelINS0_9evaluatorINS_6MatrixIfLi2ELi1ELi0ELi2ELi1EEEEENS2_INS_12CwiseUnaryOpINS0_18scalar_opposite_opIfEEKS4_EEEENS0_9assign_opIffEELi0EE11assignCoeffEi)
                  000137b8    00000030     PathGenerator.obj (.text:_ZN5Eigen8internal31generic_dense_assignment_kernelINS0_9evaluatorINS_6MatrixIfLi2ELi1ELi0ELi2ELi1EEEEENS2_INS_13CwiseBinaryOpINS0_13scalar_sum_opIffEEKS4_KNS6_INS0_17scalar_product_opIffEEKNS_14CwiseNullaryOpINS0_18scalar_constant_opIfEES9_EEKNS6_INS0_20scalar_difference_opIffEES9_S9_EEEEEEEENS0_9assign_opIffEELi0EE11assignCoeffEi)
                  000137e8    00000030     PathGenerator.obj (.text:_ZN5Eigen8internal31generic_dense_assignment_kernelINS0_9evaluatorINS_6MatrixIfLi2ELi1ELi0ELi2ELi1EEEEENS2_INS_13CwiseBinaryOpINS0_13scalar_sum_opIffEEKS4_KNS6_INS0_17scalar_product_opIffEEKNS_14CwiseNullaryOpINS0_18scalar_constant_opIfEES9_EES9_EEEEEENS0_9assign_opIffEELi0EE11assignCoeffEi)
                  00013818    00000030     PathGenerator.obj (.text:_ZN5Eigen8internal31generic_dense_assignment_kernelINS0_9evaluatorINS_6MatrixIfLi2ELi1ELi0ELi2ELi1EEEEENS2_INS_13CwiseBinaryOpINS0_13scalar_sum_opIffEEKS4_S9_EEEENS0_9assign_opIffEELi0EE11assignCoeffEi)
                  00013848    00000030     PathGenerator.obj (.text:_ZN5Eigen8internal31generic_dense_assignment_kernelINS0_9evaluatorINS_6MatrixIfLi2ELi1ELi0ELi2ELi1EEEEENS2_INS_13CwiseBinaryOpINS0_20scalar_difference_opIffEEKS4_S9_EEEENS0_9assign_opIffEELi0EE11assignCoeffEi)
                  00013878    00000030     PathGenerator.obj (.text:_ZN5Eigen8internal31generic_dense_assignment_kernelINS0_9evaluatorINS_6MatrixIfLi2ELi1ELi0ELi2ELi1EEEEENS2_INS_14CwiseNullaryOpINS0_18scalar_constant_opIfEES4_EEEENS0_13mul_assign_opIffEELi0EE11assignCoeffEi)
                  000138a8    00000030     PathTrackSim.obj (.text:_ZN5Eigen8internal31generic_dense_assignment_kernelINS0_9evaluatorINS_6MatrixIfLi3ELi1ELi0ELi3ELi1EEEEENS2_INS_13CwiseBinaryOpINS0_13scalar_sum_opIffEEKNS6_INS0_17scalar_product_opIffEEKNS_14CwiseNullaryOpINS0_18scalar_constant_opIfEEKS4_EESE_EESI_EEEENS0_9assign_opIffEELi0EE11assignCoeffEi)
                  000138d8    00000030     CarSim.obj (.text:_ZN5Eigen8internal31generic_dense_assignment_kernelINS0_9evaluatorINS_6MatrixIfLi3ELi1ELi0ELi3ELi1EEEEENS2_INS_13CwiseBinaryOpINS0_13scalar_sum_opIffEEKS4_KNS6_INS0_17scalar_product_opIffEEKNS_14CwiseNullaryOpINS0_18scalar_constant_opIfEES9_EEKNS6_IS8_KNS6_IS8_KNS6_IS8_KNS_5BlockINS3_IfLi3ELi4ELi0ELi3ELi4EEELi3ELi1ELb1EEEKNS6_ISB_SG_SK_EEEESM_EESK_EEEEEEEENS0_9assign_opIffEELi0EE11assignCoeffEi)
                  00013908    00000030     PathTrackSim.obj (.text:_ZN5Eigen8internal31generic_dense_assignment_kernelINS0_9evaluatorINS_6MatrixIfLi3ELi1ELi0ELi3ELi1EEEEENS2_INS_13CwiseBinaryOpINS0_17scalar_product_opIffEEKNS_14CwiseNullaryOpINS0_18scalar_constant_opIfEEKS4_EEKNS6_INS0_13scalar_sum_opIffEEKNS6_ISG_KNS6_ISG_KNS_5BlockINS3_IfLi3ELi4ELi0ELi3ELi4EEELi3ELi1ELb1EEEKNS6_IS8_SE_SK_EEEESM_EESK_EEEEEENS0_13add_assign_opIffEELi0EE11assignCoeffEi)
                  00013938    00000030     PathTrackSim.obj (.text:_ZN5Eigen8internal31generic_dense_assignment_kernelINS0_9evaluatorINS_6MatrixIfLi3ELi1ELi0ELi3ELi1EEEEENS2_INS_13CwiseBinaryOpINS0_17scalar_product_opIffEEKNS_14CwiseNullaryOpINS0_18scalar_constant_opIfEEKS4_EESC_EEEENS0_13add_assign_opIffEELi0EE11assignCoeffEi)
                  00013968    00000030     Car.obj (.text:_ZN5Eigen8internal31generic_dense_assignment_kernelINS0_9evaluatorINS_6MatrixIfLi3ELi1ELi0ELi3ELi1EEEEENS2_INS_3MapIKS4_Li0ENS_6StrideILi0ELi0EEEEEEENS0_9assign_opIffEELi0EE11assignCoeffEi)
                  00013998    00000030     FuzzyController.obj (.text:_ZN5fuzzy8FuzzyVar11getIntegralEhf)
                  000139c8    00000030     FuzzyController.obj (.text:_ZN5fuzzy8FuzzyVar16getIntegralWithXEhf)
                  000139f8    00000030     PathGenerator.obj (.text:_ZNK5Eigen10MatrixBaseINS_6MatrixIfLi2ELi1ELi0ELi2ELi1EEEEmiIS2_EEKNS_13CwiseBinaryOpINS_8internal20scalar_difference_opIfNS6_6traitsIT_E6ScalarEEEKS2_KS9_EERKNS0_IS9_EE)
                  00013a28    00000030     PathGenerator.obj (.text:_ZNK5Eigen10MatrixBaseINS_6MatrixIfLi2ELi1ELi0ELi2ELi1EEEEplIS2_EEKNS_13CwiseBinaryOpINS_8internal13scalar_sum_opIfNS6_6traitsIT_E6ScalarEEEKS2_KS9_EERKNS0_IS9_EE)
                  00013a58    00000030     PathGenerator.obj (.text:_ZNK5Eigen8internal16binary_evaluatorINS_13CwiseBinaryOpINS0_20scalar_difference_opIffEEKNS_6MatrixIfLi2ELi1ELi0ELi2ELi1EEES7_EENS0_10IndexBasedES9_ffE5coeffEii)
                  00013a88    00000030     PathGenerator.obj (.text:_ZNK5Eigen8internal16binary_evaluatorINS_13CwiseBinaryOpINS0_22scalar_conj_product_opIffEEKNS_6MatrixIfLi2ELi1ELi0ELi2ELi1EEES7_EENS0_10IndexBasedES9_ffE5coeffEii)
                  00013ab8    00000030     PathTrackSim.obj (.text:_ZNK5Eigen8internal16binary_evaluatorINS_13CwiseBinaryOpINS0_22scalar_conj_product_opIffEEKNS_6MatrixIfLi3ELi1ELi0ELi3ELi1EEES7_EENS0_10IndexBasedES9_ffE5coeffEii)
                  00013ae8    00000030     PathGenerator.obj (.text:_ZNKSt3__26vectorIbNS_9allocatorIbEEE8max_sizeEv)
                  00013b18    00000030     rtsv7M4_T_le_v4SPD16_eabi.lib : getdevice.c.obj (.text:finddevice)
                  00013b48    0000002e     CarSim.obj (.text:_ZN5Eigen13CwiseBinaryOpINS_8internal13scalar_sum_opIffEEKNS0_IS3_KNS_5BlockINS_6MatrixIfLi3ELi4ELi0ELi3ELi4EEELi3ELi1ELb1EEEKNS0_INS1_17scalar_product_opIffEEKNS_14CwiseNullaryOpINS1_18scalar_constant_opIfEEKNS5_IfLi3ELi1ELi0ELi3ELi1EEEEES8_EEEESJ_EC1ERKSM_)
                  00013b76    00000002     --HOLE-- [fill = 0]
                  00013b78    0000002e     CarSim.obj (.text:_ZN5Eigen13CwiseBinaryOpINS_8internal17scalar_product_opIffEEKNS_14CwiseNullaryOpINS1_18scalar_constant_opIfEEKNS_6MatrixIfLi3ELi1ELi0ELi3ELi1EEEEEKNS0_INS1_13scalar_sum_opIffEEKNS0_ISD_KNS0_ISD_KNS_5BlockINS7_IfLi3ELi4ELi0ELi3ELi4EEELi3ELi1ELb1EEEKNS0_IS3_SB_SH_EEEESJ_EESH_EEEC1ERKSQ_)
                  00013ba6    00000002     --HOLE-- [fill = 0]
                  00013ba8    0000002e     PathTrackSim.obj (.text:_ZN5Eigen8internal23handmade_aligned_mallocEj)
                  00013bd6    00000002     --HOLE-- [fill = 0]
                  00013bd8    0000002e     PathGenerator.obj (.text:_ZN5Eigen8internal31generic_dense_assignment_kernelINS0_9evaluatorINS_5BlockINS_6MatrixIfLi2ELi2ELi0ELi2ELi2EEELin1ELin1ELb0EEEEENS2_INS4_IfLi2ELi1ELi0ELi2ELi1EEEEENS0_9assign_opIffEELi0EE23assignCoeffByOuterInnerEii)
                  00013c06    00000002     --HOLE-- [fill = 0]
                  00013c08    0000002e     PathGenerator.obj (.text:_ZN5Eigen8internal31generic_dense_assignment_kernelINS0_9evaluatorINS_5BlockINS_6MatrixIfLi2ELi2ELi0ELi2ELi2EEELin1ELin1ELb0EEEEENS2_INS_9TransposeINS4_IfLi2ELi1ELi0ELi2ELi1EEEEEEENS0_9assign_opIffEELi0EE23assignCoeffByOuterInnerEii)
                  00013c36    00000002     --HOLE-- [fill = 0]
                  00013c38    0000002e     PathGenerator.obj (.text:_ZNK5Eigen10MatrixBaseINS_13CwiseBinaryOpINS_8internal20scalar_difference_opIffEEKNS_6MatrixIfLi2ELi1ELi0ELi2ELi1EEES7_EEE11squaredNormEv)
                  00013c66    00000002     --HOLE-- [fill = 0]
                  00013c68    0000002e     PathGenerator.obj (.text:_ZNK5Eigen10MatrixBaseINS_6MatrixIfLi2ELi1ELi0ELi2ELi1EEEE11squaredNormEv)
                  00013c96    00000002     --HOLE-- [fill = 0]
                  00013c98    0000002e     PathTrackSim.obj (.text:_ZNK5Eigen10MatrixBaseINS_6MatrixIfLi3ELi1ELi0ELi3ELi1EEEE11squaredNormEv)
                  00013cc6    00000002     --HOLE-- [fill = 0]
                  00013cc8    0000002e     CarSim.obj (.text:_ZNK5Eigen8internal16binary_evaluatorINS_13CwiseBinaryOpINS0_13scalar_sum_opIffEEKNS_5BlockINS_6MatrixIfLi3ELi4ELi0ELi3ELi4EEELi3ELi1ELb1EEEKNS2_INS0_17scalar_product_opIffEEKNS_14CwiseNullaryOpINS0_18scalar_constant_opIfEEKNS6_IfLi3ELi1ELi0ELi3ELi1EEEEES9_EEEENS0_10IndexBasedESM_ffE5coeffEi)
                  00013cf6    00000002     --HOLE-- [fill = 0]
                  00013cf8    0000002e     PathGenerator.obj (.text:_ZNK5Eigen8internal16binary_evaluatorINS_13CwiseBinaryOpINS0_13scalar_sum_opIffEEKNS_6MatrixIfLi2ELi1ELi0ELi2ELi1EEEKNS2_INS0_17scalar_product_opIffEEKNS_14CwiseNullaryOpINS0_18scalar_constant_opIfEES7_EEKNS2_INS0_20scalar_difference_opIffEES7_S7_EEEEEENS0_10IndexBasedESM_ffE5coeffEi)
                  00013d26    00000002     --HOLE-- [fill = 0]
                  00013d28    0000002e     PathGenerator.obj (.text:_ZNK5Eigen8internal16binary_evaluatorINS_13CwiseBinaryOpINS0_13scalar_sum_opIffEEKNS_6MatrixIfLi2ELi1ELi0ELi2ELi1EEEKNS2_INS0_17scalar_product_opIffEEKNS_14CwiseNullaryOpINS0_18scalar_constant_opIfEES7_EES7_EEEENS0_10IndexBasedESI_ffE5coeffEi)
                  00013d56    00000002     --HOLE-- [fill = 0]
                  00013d58    0000002e     CarSim.obj (.text:_ZNK5Eigen8internal16binary_evaluatorINS_13CwiseBinaryOpINS0_13scalar_sum_opIffEEKNS_6MatrixIfLi3ELi1ELi0ELi3ELi1EEEKNS2_INS0_17scalar_product_opIffEEKNS_14CwiseNullaryOpINS0_18scalar_constant_opIfEES7_EEKNS2_IS4_KNS2_IS4_KNS2_IS4_KNS_5BlockINS5_IfLi3ELi4ELi0ELi3ELi4EEELi3ELi1ELb1EEEKNS2_IS9_SE_SI_EEEESK_EESI_EEEEEENS0_10IndexBasedESU_ffE5coeffEi)
                  00013d86    00000002     --HOLE-- [fill = 0]
                  00013d88    0000002e     PathTrackSim.obj (.text:_ZNSt3__213__vector_baseItNS_9allocatorItEEED1Ev)
                  00013db6    00000002     --HOLE-- [fill = 0]
                  00013db8    0000002e     PathGenerator.obj (.text:_ZNSt3__214__split_bufferItRNS_9allocatorItEEED1Ev)
                  00013de6    00000002     --HOLE-- [fill = 0]
                  00013de8    0000002e     Task.obj (.text:_ZNSt3__26vectorIbNS_9allocatorIbEEE10__make_refEj)
                  00013e16    00000002     --HOLE-- [fill = 0]
                  00013e18    0000002e     PathGenerator.obj (.text:_ZNSt3__26vectorIbNS_9allocatorIbEEED1Ev)
                  00013e46    00000002     --HOLE-- [fill = 0]
                  00013e48    0000002e     PathGenerator.obj (.text:_ZNSt3__29allocatorINS_11__list_nodeIPN9pathTrack8PathPartEPvEEE9constructIS4_JS4_EEEvPT_DpOT0_)
                  00013e76    00000002     --HOLE-- [fill = 0]
                  00013e78    0000002e     PathTrackSim.obj (.text:_ZNSt3__29allocatorINS_11__list_nodeIfPvEEE9constructIfJRKfEEEvPT_DpOT0_)
                  00013ea6    00000002     --HOLE-- [fill = 0]
                  00013ea8    0000002e     PathGenerator.obj (.text:_ZNSt3__29allocatorItE9constructItJRKtEEEvPT_DpOT0_)
                  00013ed6    0000002e     rtsv7M4_T_le_v4SPD16_eabi.lib : i_tofd_t2.asm.obj (.text)
                  00013f04    0000002c     msp432p4xx_driverlib.lib : timer_a.o (.text:Timer_A_clearCaptureCompareInterrupt)
                  00013f30    0000002c     PathGenerator.obj (.text:_ZN5Eigen13CwiseBinaryOpINS_8internal17scalar_product_opIffEEKNS_14CwiseNullaryOpINS1_18scalar_constant_opIfEEKNS_6MatrixIfLi2ELi1ELi0ELi2ELi1EEEEEKNS0_INS1_20scalar_difference_opIffEES9_S9_EEEC1ERKSG_)
                  00013f5c    00000004     --HOLE-- [fill = 0]
                  00013f60    0000002c     PathGenerator.obj (.text:_ZN5Eigen15DenseCoeffsBaseINS_6MatrixIfLi2ELi1ELi0ELi2ELi1EEELi1EE8coeffRefEi)
                  00013f8c    00000004     --HOLE-- [fill = 0]
                  00013f90    0000002c     Task.obj (.text:_ZN5Eigen15DenseCoeffsBaseINS_6MatrixIfLi3ELi1ELi0ELi3ELi1EEELi1EE8coeffRefEi)
                  00013fbc    00000004     --HOLE-- [fill = 0]
                  00013fc0    0000002c     PathGenerator.obj (.text:_ZN5Eigen8internal15block_evaluatorINS_6MatrixIfLi2ELi2ELi0ELi2ELi2EEELin1ELin1ELb0ELb1EEC1ERKNS_5BlockIS3_Lin1ELin1ELb0EEE)
                  00013fec    00000004     --HOLE-- [fill = 0]
                  00013ff0    0000002c     CarSim.obj (.text:_ZN5Eigen8internal15block_evaluatorINS_6MatrixIfLi3ELi4ELi0ELi3ELi4EEELi3ELi1ELb1ELb1EEC1ERKNS_5BlockIS3_Li3ELi1ELb1EEE)
                  0001401c    00000004     --HOLE-- [fill = 0]
                  00014020    0000002c     PathGenerator.obj (.text:_ZN5Eigen8internal17mapbase_evaluatorINS_5BlockINS_6MatrixIfLi2ELi2ELi0ELi2ELi2EEELin1ELin1ELb0EEENS3_IfLin1ELin1ELi0ELi2ELi2EEEE8coeffRefEii)
                  0001404c    00000004     --HOLE-- [fill = 0]
                  00014050    0000002c     PathTrackSim.obj (.text:_ZN9pathTrack13PathGeneratorD1Ev)
                  0001407c    00000004     --HOLE-- [fill = 0]
                  00014080    0000002c     PathGenerator.obj (.text:_ZNSt3__210unique_ptrINS_11__list_nodeIPN9pathTrack8PathPartEPvEENS_22__allocator_destructorINS_9allocatorIS6_EEEEE5resetEPS6_)
                  000140ac    00000004     --HOLE-- [fill = 0]
                  000140b0    0000002c     PathTrackSim.obj (.text:_ZNSt3__210unique_ptrINS_11__list_nodeIfPvEENS_22__allocator_destructorINS_9allocatorIS3_EEEEE5resetEPS3_)
                  000140dc    00000004     --HOLE-- [fill = 0]
                  000140e0    0000002c     PathGenerator.obj (.text:_ZNSt3__28distanceINS_14__bit_iteratorINS_6vectorIbNS_9allocatorIbEEEELb0ELj0EEEEENS_15iterator_traitsIT_E15difference_typeES8_S8_)
                  0001410c    00000004     --HOLE-- [fill = 0]
                  00014110    0000002c     PathGenerator.obj (.text:_ZNSt3__29allocatorINS_11__list_nodeIPN9pathTrack8PathPartEPvEEE8allocateEjPKv)
                  0001413c    00000004     --HOLE-- [fill = 0]
                  00014140    0000002c     PathTrackSim.obj (.text:_ZNSt3__29allocatorINS_11__list_nodeIfPvEEE8allocateEjPKv)
                  0001416c    0000002c     rtsv7M4_T_le_v4SPD16_eabi.lib : strncmp.c.obj (.text:strncmp)
                  00014198    0000002c                                   : unlink.c.obj (.text:unlink)
                  000141c4    00000004     --HOLE-- [fill = 0]
                  000141c8    0000002a     PathTrackSim.obj (.text:_ZN5Eigen10MatrixBaseINS_6MatrixIfLi3ELi1ELi0ELi3ELi1EEEEpLINS_13CwiseBinaryOpINS_8internal17scalar_product_opIffEEKNS_14CwiseNullaryOpINS6_18scalar_constant_opIfEEKS2_EEKNS5_INS6_13scalar_sum_opIffEEKNS5_ISG_KNS5_ISG_KNS_5BlockINS1_IfLi3ELi4ELi0ELi3ELi4EEELi3ELi1ELb1EEEKNS5_IS8_SE_SK_EEEESM_EESK_EEEEEERS2_RKNS0_IT_EE)
                  000141f2    00000006     --HOLE-- [fill = 0]
                  000141f8    0000002a     PathTrackSim.obj (.text:_ZN5Eigen10MatrixBaseINS_6MatrixIfLi3ELi1ELi0ELi3ELi1EEEEpLINS_13CwiseBinaryOpINS_8internal17scalar_product_opIffEEKNS_14CwiseNullaryOpINS6_18scalar_constant_opIfEEKS2_EESC_EEEERS2_RKNS0_IT_EE)
                  00014222    00000006     --HOLE-- [fill = 0]
                  00014228    0000002a     PathGenerator.obj (.text:_ZN5Eigen15PlainObjectBaseINS_6MatrixIfLi2ELi1ELi0ELi2ELi1EEEE6_init2IffEEvRKT_RKT0_PNS_8internal9enable_ifILb1ES5_E4typeE)
                  00014252    00000006     --HOLE-- [fill = 0]
                  00014258    0000002a     PathGenerator.obj (.text:_ZN5Eigen15PlainObjectBaseINS_6MatrixIfLi2ELi1ELi0ELi2ELi1EEEEC1INS_13CwiseBinaryOpINS_8internal13scalar_sum_opIffEEKS2_KNS5_INS6_17scalar_product_opIffEEKNS_14CwiseNullaryOpINS6_18scalar_constant_opIfEES9_EEKNS5_INS6_20scalar_difference_opIffEES9_S9_EEEEEEEERKNS_9DenseBaseIT_EE)
                  00014282    00000006     --HOLE-- [fill = 0]
                  00014288    0000002a     PathGenerator.obj (.text:_ZN5Eigen15PlainObjectBaseINS_6MatrixIfLi2ELi1ELi0ELi2ELi1EEEEC1INS_13CwiseBinaryOpINS_8internal13scalar_sum_opIffEEKS2_KNS5_INS6_17scalar_product_opIffEEKNS_14CwiseNullaryOpINS6_18scalar_constant_opIfEES9_EES9_EEEEEERKNS_9DenseBaseIT_EE)
                  000142b2    00000006     --HOLE-- [fill = 0]
                  000142b8    0000002a     PathGenerator.obj (.text:_ZN5Eigen15PlainObjectBaseINS_6MatrixIfLi2ELi1ELi0ELi2ELi1EEEEC1INS_13CwiseBinaryOpINS_8internal20scalar_difference_opIffEEKS2_S9_EEEERKNS_9DenseBaseIT_EE)
                  000142e2    00000006     --HOLE-- [fill = 0]
                  000142e8    0000002a     Car.obj (.text:_ZN5Eigen3MapIKNS_6MatrixIfLi3ELi1ELi0ELi3ELi1EEELi0ENS_6StrideILi0ELi0EEEEC1EPKfRKS5_)
                  00014312    00000006     --HOLE-- [fill = 0]
                  00014318    0000002a     PathGenerator.obj (.text:_ZN5Eigen8internal11dot_nocheckINS_6MatrixIfLi2ELi1ELi0ELi2ELi1EEES3_Lb0EE3runERKNS_10MatrixBaseIS3_EES8_)
                  00014342    00000006     --HOLE-- [fill = 0]
                  00014348    0000002a     PathTrackSim.obj (.text:_ZN5Eigen8internal11dot_nocheckINS_6MatrixIfLi3ELi1ELi0ELi3ELi1EEES3_Lb0EE3runERKNS_10MatrixBaseIS3_EES8_)
                  00014372    00000006     --HOLE-- [fill = 0]
                  00014378    0000002a     PathGenerator.obj (.text:_ZN5Eigen8internal31generic_dense_assignment_kernelINS0_9evaluatorINS_5BlockINS_6MatrixIfLi2ELi2ELi0ELi2ELi2EEELin1ELin1ELb0EEEEENS2_INS4_IfLi2ELi1ELi0ELi2ELi1EEEEENS0_9assign_opIffEELi0EEC1ERS7_RKS9_RKSB_RS6_)
                  000143a2    00000006     --HOLE-- [fill = 0]
                  000143a8    0000002a     PathGenerator.obj (.text:_ZN5Eigen8internal31generic_dense_assignment_kernelINS0_9evaluatorINS_5BlockINS_6MatrixIfLi2ELi2ELi0ELi2ELi2EEELin1ELin1ELb0EEEEENS2_INS_9TransposeINS4_IfLi2ELi1ELi0ELi2ELi1EEEEEEENS0_9assign_opIffEELi0EEC1ERS7_RKSB_RKSD_RS6_)
                  000143d2    00000006     --HOLE-- [fill = 0]
                  000143d8    0000002a     CarSim.obj (.text:_ZN5Eigen8internal31generic_dense_assignment_kernelINS0_9evaluatorINS_5BlockINS_6MatrixIfLi3ELi4ELi0ELi3ELi4EEELi3ELi1ELb1EEEEENS2_INS4_IfLi3ELi1ELi0ELi3ELi1EEEEENS0_9assign_opIffEELi0EE11assignCoeffEi)
                  00014402    00000006     --HOLE-- [fill = 0]
                  00014408    0000002a     CarSim.obj (.text:_ZN5Eigen8internal31generic_dense_assignment_kernelINS0_9evaluatorINS_5BlockINS_6MatrixIfLi3ELi4ELi0ELi3ELi4EEELi3ELi1ELb1EEEEENS2_INS4_IfLi3ELi1ELi0ELi3ELi1EEEEENS0_9assign_opIffEELi0EEC1ERS7_RKS9_RKSB_RS6_)
                  00014432    00000006     --HOLE-- [fill = 0]
                  00014438    0000002a     PathTrackSim.obj (.text:_ZN5Eigen8internal31generic_dense_assignment_kernelINS0_9evaluatorINS_6MatrixIfLi2ELi1ELi0ELi2ELi1EEEEENS2_INS_12CwiseUnaryOpINS0_18scalar_opposite_opIfEEKS4_EEEENS0_9assign_opIffEELi0EEC1ERS5_RKSB_RKSD_RS4_)
                  00014462    00000006     --HOLE-- [fill = 0]
                  00014468    0000002a     PathGenerator.obj (.text:_ZN5Eigen8internal31generic_dense_assignment_kernelINS0_9evaluatorINS_6MatrixIfLi2ELi1ELi0ELi2ELi1EEEEENS2_INS_13CwiseBinaryOpINS0_13scalar_sum_opIffEEKS4_KNS6_INS0_17scalar_product_opIffEEKNS_14CwiseNullaryOpINS0_18scalar_constant_opIfEES9_EEKNS6_INS0_20scalar_difference_opIffEES9_S9_EEEEEEEENS0_9assign_opIffEELi0EEC1ERS5_RKSO_RKSQ_RS4_)
                  00014492    00000006     --HOLE-- [fill = 0]
                  00014498    0000002a     PathGenerator.obj (.text:_ZN5Eigen8internal31generic_dense_assignment_kernelINS0_9evaluatorINS_6MatrixIfLi2ELi1ELi0ELi2ELi1EEEEENS2_INS_13CwiseBinaryOpINS0_13scalar_sum_opIffEEKS4_KNS6_INS0_17scalar_product_opIffEEKNS_14CwiseNullaryOpINS0_18scalar_constant_opIfEES9_EES9_EEEEEENS0_9assign_opIffEELi0EEC1ERS5_RKSK_RKSM_RS4_)
                  000144c2    00000006     --HOLE-- [fill = 0]
                  000144c8    0000002a     PathGenerator.obj (.text:_ZN5Eigen8internal31generic_dense_assignment_kernelINS0_9evaluatorINS_6MatrixIfLi2ELi1ELi0ELi2ELi1EEEEENS2_INS_13CwiseBinaryOpINS0_13scalar_sum_opIffEEKS4_S9_EEEENS0_9assign_opIffEELi0EEC1ERS5_RKSB_RKSD_RS4_)
                  000144f2    00000006     --HOLE-- [fill = 0]
                  000144f8    0000002a     PathGenerator.obj (.text:_ZN5Eigen8internal31generic_dense_assignment_kernelINS0_9evaluatorINS_6MatrixIfLi2ELi1ELi0ELi2ELi1EEEEENS2_INS_13CwiseBinaryOpINS0_20scalar_difference_opIffEEKS4_S9_EEEENS0_9assign_opIffEELi0EEC1ERS5_RKSB_RKSD_RS4_)
                  00014522    00000006     --HOLE-- [fill = 0]
                  00014528    0000002a     PathGenerator.obj (.text:_ZN5Eigen8internal31generic_dense_assignment_kernelINS0_9evaluatorINS_6MatrixIfLi2ELi1ELi0ELi2ELi1EEEEENS2_INS_14CwiseNullaryOpINS0_18scalar_constant_opIfEES4_EEEENS0_13mul_assign_opIffEELi0EEC1ERS5_RKSA_RKSC_RS4_)
                  00014552    00000006     --HOLE-- [fill = 0]
                  00014558    0000002a     PathGenerator.obj (.text:_ZN5Eigen8internal31generic_dense_assignment_kernelINS0_9evaluatorINS_6MatrixIfLi2ELi1ELi0ELi2ELi1EEEEES5_NS0_14swap_assign_opIfEELi1EE11assignCoeffEi)
                  00014582    00000006     --HOLE-- [fill = 0]
                  00014588    0000002a     PathGenerator.obj (.text:_ZN5Eigen8internal31generic_dense_assignment_kernelINS0_9evaluatorINS_6MatrixIfLi2ELi1ELi0ELi2ELi1EEEEES5_NS0_14swap_assign_opIfEELi1EEC1ERS5_RKS5_RKS7_RS4_)
                  000145b2    00000006     --HOLE-- [fill = 0]
                  000145b8    0000002a     PathGenerator.obj (.text:_ZN5Eigen8internal31generic_dense_assignment_kernelINS0_9evaluatorINS_6MatrixIfLi2ELi2ELi0ELi2ELi2EEEEES5_NS0_9assign_opIffEELi0EE11assignCoeffEi)
                  000145e2    00000006     --HOLE-- [fill = 0]
                  000145e8    0000002a     PathGenerator.obj (.text:_ZN5Eigen8internal31generic_dense_assignment_kernelINS0_9evaluatorINS_6MatrixIfLi2ELi2ELi0ELi2ELi2EEEEES5_NS0_9assign_opIffEELi0EEC1ERS5_RKS5_RKS7_RS4_)
                  00014612    00000006     --HOLE-- [fill = 0]
                  00014618    0000002a     PathTrackSim.obj (.text:_ZN5Eigen8internal31generic_dense_assignment_kernelINS0_9evaluatorINS_6MatrixIfLi3ELi1ELi0ELi3ELi1EEEEENS2_INS_13CwiseBinaryOpINS0_13scalar_sum_opIffEEKNS6_INS0_17scalar_product_opIffEEKNS_14CwiseNullaryOpINS0_18scalar_constant_opIfEEKS4_EESE_EESI_EEEENS0_9assign_opIffEELi0EEC1ERS5_RKSK_RKSM_RS4_)
                  00014642    00000006     --HOLE-- [fill = 0]
                  00014648    0000002a     CarSim.obj (.text:_ZN5Eigen8internal31generic_dense_assignment_kernelINS0_9evaluatorINS_6MatrixIfLi3ELi1ELi0ELi3ELi1EEEEENS2_INS_13CwiseBinaryOpINS0_13scalar_sum_opIffEEKS4_KNS6_INS0_17scalar_product_opIffEEKNS_14CwiseNullaryOpINS0_18scalar_constant_opIfEES9_EEKNS6_IS8_KNS6_IS8_KNS6_IS8_KNS_5BlockINS3_IfLi3ELi4ELi0ELi3ELi4EEELi3ELi1ELb1EEEKNS6_ISB_SG_SK_EEEESM_EESK_EEEEEEEENS0_9assign_opIffEELi0EEC1ERS5_RKSW_RKSY_RS4_)
                  00014672    00000006     --HOLE-- [fill = 0]
                  00014678    0000002a     PathTrackSim.obj (.text:_ZN5Eigen8internal31generic_dense_assignment_kernelINS0_9evaluatorINS_6MatrixIfLi3ELi1ELi0ELi3ELi1EEEEENS2_INS_13CwiseBinaryOpINS0_17scalar_product_opIffEEKNS_14CwiseNullaryOpINS0_18scalar_constant_opIfEEKS4_EEKNS6_INS0_13scalar_sum_opIffEEKNS6_ISG_KNS6_ISG_KNS_5BlockINS3_IfLi3ELi4ELi0ELi3ELi4EEELi3ELi1ELb1EEEKNS6_IS8_SE_SK_EEEESM_EESK_EEEEEENS0_13add_assign_opIffEELi0EEC1ERS5_RKSU_RKSW_RS4_)
                  000146a2    00000006     --HOLE-- [fill = 0]
                  000146a8    0000002a     PathTrackSim.obj (.text:_ZN5Eigen8internal31generic_dense_assignment_kernelINS0_9evaluatorINS_6MatrixIfLi3ELi1ELi0ELi3ELi1EEEEENS2_INS_13CwiseBinaryOpINS0_17scalar_product_opIffEEKNS_14CwiseNullaryOpINS0_18scalar_constant_opIfEEKS4_EESC_EEEENS0_13add_assign_opIffEELi0EEC1ERS5_RKSG_RKSI_RS4_)
                  000146d2    00000006     --HOLE-- [fill = 0]
                  000146d8    0000002a     Car.obj (.text:_ZN5Eigen8internal31generic_dense_assignment_kernelINS0_9evaluatorINS_6MatrixIfLi3ELi1ELi0ELi3ELi1EEEEENS2_INS_3MapIKS4_Li0ENS_6StrideILi0ELi0EEEEEEENS0_9assign_opIffEELi0EEC1ERS5_RKSB_RKSD_RS4_)
                  00014702    00000006     --HOLE-- [fill = 0]
                  00014708    0000002a     Car.obj (.text:_ZN5Eigen8internal31generic_dense_assignment_kernelINS0_9evaluatorINS_6MatrixIfLi3ELi1ELi0ELi3ELi1EEEEES5_NS0_9assign_opIffEELi0EE11assignCoeffEi)
                  00014732    00000006     --HOLE-- [fill = 0]
                  00014738    0000002a     Car.obj (.text:_ZN5Eigen8internal31generic_dense_assignment_kernelINS0_9evaluatorINS_6MatrixIfLi3ELi1ELi0ELi3ELi1EEEEES5_NS0_9assign_opIffEELi0EEC1ERS5_RKS5_RKS7_RS4_)
                  00014762    00000006     --HOLE-- [fill = 0]
                  00014768    0000002a     PathGenerator.obj (.text:_ZN5Eigen8internal9evaluatorINS_15PlainObjectBaseINS_6MatrixIfLi2ELi2ELi0ELi2ELi2EEEEEEC1ERKS5_)
                  00014792    00000006     --HOLE-- [fill = 0]
                  00014798    0000002a     CarSim.obj (.text:_ZN5Eigen8internal9evaluatorINS_15PlainObjectBaseINS_6MatrixIfLi3ELi4ELi0ELi3ELi4EEEEEEC1ERKS5_)
                  000147c2    00000006     --HOLE-- [fill = 0]
                  000147c8    0000002a     CarSim.obj (.text:_ZN5Eigen9DenseBaseINS_6MatrixIfLi3ELi4ELi0ELi3ELi4EEEE3colEi)
                  000147f2    00000006     --HOLE-- [fill = 0]
                  000147f8    0000002a     CarSim.obj (.text:_ZNK5Eigen8internal16binary_evaluatorINS_13CwiseBinaryOpINS0_13scalar_sum_opIffEEKNS2_IS4_KNS2_IS4_KNS_5BlockINS_6MatrixIfLi3ELi4ELi0ELi3ELi4EEELi3ELi1ELb1EEEKNS2_INS0_17scalar_product_opIffEEKNS_14CwiseNullaryOpINS0_18scalar_constant_opIfEEKNS6_IfLi3ELi1ELi0ELi3ELi1EEEEES9_EEEESK_EES9_EENS0_10IndexBasedESQ_ffE5coeffEi)
                  00014822    00000006     --HOLE-- [fill = 0]
                  00014828    0000002a     PathGenerator.obj (.text:_ZNK5Eigen8internal16binary_evaluatorINS_13CwiseBinaryOpINS0_17scalar_product_opIffEEKNS_14CwiseNullaryOpINS0_18scalar_constant_opIfEEKNS_6MatrixIfLi2ELi1ELi0ELi2ELi1EEEEESA_EENS0_10IndexBasedESE_ffE5coeffEi)
                  00014852    00000006     --HOLE-- [fill = 0]
                  00014858    0000002a     CarSim.obj (.text:_ZNK5Eigen8internal16binary_evaluatorINS_13CwiseBinaryOpINS0_17scalar_product_opIffEEKNS_14CwiseNullaryOpINS0_18scalar_constant_opIfEEKNS_6MatrixIfLi3ELi1ELi0ELi3ELi1EEEEEKNS_5BlockINS8_IfLi3ELi4ELi0ELi3ELi4EEELi3ELi1ELb1EEEEENS0_10IndexBasedESI_ffE5coeffEi)
                  00014882    00000006     --HOLE-- [fill = 0]
                  00014888    0000002a     PathTrackSim.obj (.text:_ZNK5Eigen8internal16binary_evaluatorINS_13CwiseBinaryOpINS0_17scalar_product_opIffEEKNS_14CwiseNullaryOpINS0_18scalar_constant_opIfEEKNS_6MatrixIfLi3ELi1ELi0ELi3ELi1EEEEESA_EENS0_10IndexBasedESE_ffE5coeffEi)
                  000148b2    00000006     --HOLE-- [fill = 0]
                  000148b8    0000002a     PathGenerator.obj (.text:_ZNSt3__217__compressed_pairIPNS_11__list_nodeIPN9pathTrack8PathPartEPvEENS_22__allocator_destructorINS_9allocatorIS6_EEEEEC1IRS7_SB_EEOT_OT0_)
                  000148e2    00000006     --HOLE-- [fill = 0]
                  000148e8    0000002a     PathTrackSim.obj (.text:_ZNSt3__217__compressed_pairIPNS_11__list_nodeIfPvEENS_22__allocator_destructorINS_9allocatorIS3_EEEEEC1IRS4_S8_EEOT_OT0_)
                  00014912    00000006     --HOLE-- [fill = 0]
                  00014918    0000002a     PathGenerator.obj (.text:_ZNSt3__217__compressed_pairIPtRNS_9allocatorItEEEC1IDnS4_EEOT_OT0_)
                  00014942    00000006     --HOLE-- [fill = 0]
                  00014948    0000002a     PathGenerator.obj (.text:_ZNSt3__24listIPN9pathTrack8PathPartENS_9allocatorIS3_EEE20__link_nodes_at_backEPNS_16__list_node_baseIS3_PvEESA_)
                  00014972    00000006     --HOLE-- [fill = 0]
                  00014978    0000002a     PathTrackSim.obj (.text:_ZNSt3__24listIfNS_9allocatorIfEEE12__link_nodesEPNS_16__list_node_baseIfPvEES7_S7_)
                  000149a2    00000006     --HOLE-- [fill = 0]
                  000149a8    0000002a     PathGenerator.obj (.text:_ZNSt3__24swapIPjEENS_9enable_ifIXaasr3std3__221is_move_constructibleIT_EE5valuesr3std3__218is_move_assignableIS3_EE5valueEvE4typeERS3_S6_)
                  000149d2    00000006     --HOLE-- [fill = 0]
                  000149d8    0000002a     PathGenerator.obj (.text:_ZNSt3__24swapIPtEENS_9enable_ifIXaasr3std3__221is_move_constructibleIT_EE5valuesr3std3__218is_move_assignableIS3_EE5valueEvE4typeERS3_S6_)
                  00014a02    00000006     --HOLE-- [fill = 0]
                  00014a08    0000002a     PathGenerator.obj (.text:_ZNSt3__24swapIfEENS_9enable_ifIXaasr3std3__221is_move_constructibleIT_EE5valuesr3std3__218is_move_assignableIS2_EE5valueEvE4typeERS2_S5_)
                  00014a32    00000006     --HOLE-- [fill = 0]
                  00014a38    0000002a     PathGenerator.obj (.text:_ZNSt3__24swapIjEENS_9enable_ifIXaasr3std3__221is_move_constructibleIT_EE5valuesr3std3__218is_move_assignableIS2_EE5valueEvE4typeERS2_S5_)
                  00014a62    00000002     --HOLE-- [fill = 0]
                  00014a64    00000028     msp432p4xx_driverlib.lib : cs.o (.text:CS_getACLK)
                  00014a8c    00000028                              : cs.o (.text:CS_getMCLK)
                  00014ab4    00000028                              : cs.o (.text:CS_getSMCLK)
                  00014adc    00000028                              : gpio.o (.text:GPIO_setOutputHighOnPin)
                  00014b04    00000028                              : gpio.o (.text:GPIO_setOutputLowOnPin)
                  00014b2c    00000028                              : gpio.o (.text:GPIO_toggleOutputOnPin)
                  00014b54    00000028                              : timer_a.o (.text:Timer_A_getCaptureCompareInterruptStatus)
                  00014b7c    00000004     --HOLE-- [fill = 0]
                  00014b80    00000028     PathGenerator.obj (.text:_ZN5Eigen15PlainObjectBaseINS_6MatrixIfLi2ELi1ELi0ELi2ELi1EEEE12_set_noaliasINS_13CwiseBinaryOpINS_8internal13scalar_sum_opIffEEKS2_KNS5_INS6_17scalar_product_opIffEEKNS_14CwiseNullaryOpINS6_18scalar_constant_opIfEES9_EEKNS5_INS6_20scalar_difference_opIffEES9_S9_EEEEEEEERS2_RKNS_9DenseBaseIT_EE)
                  00014ba8    00000028     PathGenerator.obj (.text:_ZN5Eigen15PlainObjectBaseINS_6MatrixIfLi2ELi1ELi0ELi2ELi1EEEE12_set_noaliasINS_13CwiseBinaryOpINS_8internal13scalar_sum_opIffEEKS2_KNS5_INS6_17scalar_product_opIffEEKNS_14CwiseNullaryOpINS6_18scalar_constant_opIfEES9_EES9_EEEEEERS2_RKNS_9DenseBaseIT_EE)
                  00014bd0    00000028     PathGenerator.obj (.text:_ZN5Eigen15PlainObjectBaseINS_6MatrixIfLi2ELi1ELi0ELi2ELi1EEEE12_set_noaliasINS_13CwiseBinaryOpINS_8internal20scalar_difference_opIffEEKS2_S9_EEEERS2_RKNS_9DenseBaseIT_EE)
                  00014bf8    00000028     Car.obj (.text:_ZN5Eigen15PlainObjectBaseINS_6MatrixIfLi3ELi1ELi0ELi3ELi1EEEE12_set_noaliasINS_3MapIKS2_Li0ENS_6StrideILi0ELi0EEEEEEERS2_RKNS_9DenseBaseIT_EE)
                  00014c20    00000028     Car.obj (.text:_ZN5Eigen6StrideILi0ELi0EEC1ERKS1_)
                  00014c48    00000028     PathGenerator.obj (.text:_ZN5Eigen8internal27checkTransposeAliasing_implINS_5BlockINS_6MatrixIfLi2ELi2ELi0ELi2ELi2EEELin1ELin1ELb0EEENS_9TransposeINS3_IfLi2ELi1ELi0ELi2ELi1EEEEELb1EE3runERKS5_RKS8_)
                  00014c70    00000028     PathGenerator.obj (.text:_ZN5Eigen9BlockImplINS_6MatrixIfLi2ELi2ELi0ELi2ELi2EEELin1ELin1ELb0ENS_5DenseEEC1ERS2_iiii)
                  00014c98    00000028     PathGenerator.obj (.text:_ZNK5Eigen10MatrixBaseINS_13CwiseBinaryOpINS_8internal20scalar_difference_opIffEEKNS_6MatrixIfLi2ELi1ELi0ELi2ELi1EEES7_EEE9cwiseAbs2Ev)
                  00014cc0    00000028     PathGenerator.obj (.text:_ZNK5Eigen8internal15unary_evaluatorINS_12CwiseUnaryOpINS0_14scalar_abs2_opIfEEKNS_13CwiseBinaryOpINS0_20scalar_difference_opIffEEKNS_6MatrixIfLi2ELi1ELi0ELi2ELi1EEESA_EEEENS0_10IndexBasedEfE5coeffEii)
                  00014ce8    00000028     PathGenerator.obj (.text:_ZNK5Eigen8internal16binary_evaluatorINS_13CwiseBinaryOpINS0_13scalar_sum_opIffEEKNS_6MatrixIfLi2ELi1ELi0ELi2ELi1EEES7_EENS0_10IndexBasedES9_ffE5coeffEi)
                  00014d10    00000028     PathGenerator.obj (.text:_ZNK5Eigen8internal16binary_evaluatorINS_13CwiseBinaryOpINS0_20scalar_difference_opIffEEKNS_6MatrixIfLi2ELi1ELi0ELi2ELi1EEES7_EENS0_10IndexBasedES9_ffE5coeffEi)
                  00014d38    00000028     PathGenerator.obj (.text:_ZNSt3__213__vector_baseItNS_9allocatorItEEEC1Ev)
                  00014d60    00000028     PathGenerator.obj (.text:_ZNSt3__217__compressed_pairIjNS_9allocatorIjEEEC1IiS2_EEOT_OT0_)
                  00014d88    00000028     PathGenerator.obj (.text:_ZNSt3__26vectorIbNS_9allocatorIbEEEC1Ev)
                  00014db0    00000028     PathGenerator.obj (.text:_ZNSt3__29allocatorIjE8allocateEjPKv)
                  00014dd8    00000028     PathGenerator.obj (.text:_ZNSt3__29allocatorItE8allocateEjPKv)
                  00014e00    00000028     rtsv7M4_T_le_v4SPD16_eabi.lib : memory.c.obj (.text:free_list_insert)
                  00014e28    00000028                                   : lseek.c.obj (.text:lseek)
                  00014e50    00000028                                   : e_sqrtf.c.obj (.text:sqrtf)
                  00014e78    00000028                                   : write.c.obj (.text:write)
                  00014ea0    00000026     PathGenerator.obj (.text:_Z3tane)
                  00014ec6    00000002     --HOLE-- [fill = 0]
                  00014ec8    00000026     PathGenerator.obj (.text:_ZN5Eigen13CwiseBinaryOpINS_8internal17scalar_product_opIffEEKNS_14CwiseNullaryOpINS1_18scalar_constant_opIfEEKNS_6MatrixIfLi2ELi1ELi0ELi2ELi1EEEEES9_EC1ERKSC_)
                  00014eee    00000002     --HOLE-- [fill = 0]
                  00014ef0    00000026     PathTrackSim.obj (.text:_ZN5Eigen13CwiseBinaryOpINS_8internal17scalar_product_opIffEEKNS_14CwiseNullaryOpINS1_18scalar_constant_opIfEEKNS_6MatrixIfLi3ELi1ELi0ELi3ELi1EEEEES9_EC1ERKSC_)
                  00014f16    00000002     --HOLE-- [fill = 0]
                  00014f18    00000026     PathGenerator.obj (.text:_ZN5Eigen14CwiseNullaryOpINS_8internal18scalar_constant_opIfEEKNS_6MatrixIfLi2ELi1ELi0ELi2ELi1EEEEC1ERKS7_)
                  00014f3e    00000002     --HOLE-- [fill = 0]
                  00014f40    00000026     CarSim.obj (.text:_ZN5Eigen14CwiseNullaryOpINS_8internal18scalar_constant_opIfEEKNS_6MatrixIfLi3ELi1ELi0ELi3ELi1EEEEC1ERKS7_)
                  00014f66    00000002     --HOLE-- [fill = 0]
                  00014f68    00000026     Car.obj (.text:_ZN5Eigen15PlainObjectBaseINS_6MatrixIfLi3ELi1ELi0ELi3ELi1EEEE6_init1IA3_fEEvPKf)
                  00014f8e    00000002     --HOLE-- [fill = 0]
                  00014f90    00000026     PathGenerator.obj (.text:_ZN5Eigen8internal15BlockImpl_denseINS_6MatrixIfLi2ELi2ELi0ELi2ELi2EEELin1ELin1ELb0ELb1EEC2ERS3_iiii)
                  00014fb6    00000002     --HOLE-- [fill = 0]
                  00014fb8    00000026     PathGenerator.obj (.text:_ZN5Eigen8internal15unary_evaluatorINS_12CwiseUnaryOpINS0_14scalar_abs2_opIfEEKNS_13CwiseBinaryOpINS0_20scalar_difference_opIffEEKNS_6MatrixIfLi2ELi1ELi0ELi2ELi1EEESA_EEEENS0_10IndexBasedEfEC1ERKSD_)
                  00014fde    00000002     --HOLE-- [fill = 0]
                  00014fe0    00000026     PathGenerator.obj (.text:_ZN5Eigen8internal15unary_evaluatorINS_12CwiseUnaryOpINS0_14scalar_abs2_opIfEEKNS_6MatrixIfLi2ELi1ELi0ELi2ELi1EEEEENS0_10IndexBasedEfEC1ERKS8_)
                  00015006    00000002     --HOLE-- [fill = 0]
                  00015008    00000026     PathTrackSim.obj (.text:_ZN5Eigen8internal15unary_evaluatorINS_12CwiseUnaryOpINS0_14scalar_abs2_opIfEEKNS_6MatrixIfLi3ELi1ELi0ELi3ELi1EEEEENS0_10IndexBasedEfEC1ERKS8_)
                  0001502e    00000002     --HOLE-- [fill = 0]
                  00015030    00000026     PathTrackSim.obj (.text:_ZN5Eigen8internal15unary_evaluatorINS_12CwiseUnaryOpINS0_18scalar_opposite_opIfEEKNS_6MatrixIfLi2ELi1ELi0ELi2ELi1EEEEENS0_10IndexBasedEfEC1ERKS8_)
                  00015056    00000002     --HOLE-- [fill = 0]
                  00015058    00000026     PathGenerator.obj (.text:_ZN5Eigen9BlockImplINS_6MatrixIfLi2ELi2ELi0ELi2ELi2EEELin1ELin1ELb0ENS_5DenseEEC2ERS2_iiii)
                  0001507e    00000002     --HOLE-- [fill = 0]
                  00015080    00000026     PathGenerator.obj (.text:_ZN5Eigen9DenseBaseINS_6MatrixIfLi2ELi1ELi0ELi2ELi1EEEE8ConstantEiiRKf)
                  000150a6    00000002     --HOLE-- [fill = 0]
                  000150a8    00000026     CarSim.obj (.text:_ZNK5Eigen10MatrixBaseINS_13CwiseBinaryOpINS_8internal13scalar_sum_opIffEEKNS1_IS4_KNS_5BlockINS_6MatrixIfLi3ELi4ELi0ELi3ELi4EEELi3ELi1ELb1EEEKNS1_INS2_17scalar_product_opIffEEKNS_14CwiseNullaryOpINS2_18scalar_constant_opIfEEKNS6_IfLi3ELi1ELi0ELi3ELi1EEEEES9_EEEESK_EEEplIS8_EEKNS1_INS3_IfNS2_6traitsIT_E6ScalarEEEKSN_KSR_EERKNS0_ISR_EE)
                  000150ce    00000002     --HOLE-- [fill = 0]
                  000150d0    00000026     CarSim.obj (.text:_ZNK5Eigen10MatrixBaseINS_13CwiseBinaryOpINS_8internal13scalar_sum_opIffEEKNS_5BlockINS_6MatrixIfLi3ELi4ELi0ELi3ELi4EEELi3ELi1ELb1EEEKNS1_INS2_17scalar_product_opIffEEKNS_14CwiseNullaryOpINS2_18scalar_constant_opIfEEKNS6_IfLi3ELi1ELi0ELi3ELi1EEEEES9_EEEEEplISJ_EEKNS1_INS3_IfNS2_6traitsIT_E6ScalarEEEKSL_KSP_EERKNS0_ISP_EE)
                  000150f6    00000002     --HOLE-- [fill = 0]
                  000150f8    00000026     PathTrackSim.obj (.text:_ZNK5Eigen10MatrixBaseINS_13CwiseBinaryOpINS_8internal17scalar_product_opIffEEKNS_14CwiseNullaryOpINS2_18scalar_constant_opIfEEKNS_6MatrixIfLi3ELi1ELi0ELi3ELi1EEEEESA_EEEplISD_EEKNS1_INS2_13scalar_sum_opIfNS2_6traitsIT_E6ScalarEEEKSD_KSI_EERKNS0_ISI_EE)
                  0001511e    00000002     --HOLE-- [fill = 0]
                  00015120    00000026     CarSim.obj (.text:_ZNK5Eigen10MatrixBaseINS_5BlockINS_6MatrixIfLi3ELi4ELi0ELi3ELi4EEELi3ELi1ELb1EEEEplINS_13CwiseBinaryOpINS_8internal17scalar_product_opIffEEKNS_14CwiseNullaryOpINS8_18scalar_constant_opIfEEKNS2_IfLi3ELi1ELi0ELi3ELi1EEEEEKS4_EEEEKNS7_INS8_13scalar_sum_opIfNS8_6traitsIT_E6ScalarEEESI_KSM_EERKNS0_ISM_EE)
                  00015146    00000002     --HOLE-- [fill = 0]
                  00015148    00000026     PathGenerator.obj (.text:_ZNK5Eigen10MatrixBaseINS_6MatrixIfLi2ELi1ELi0ELi2ELi1EEEEplINS_13CwiseBinaryOpINS_8internal17scalar_product_opIffEEKNS_14CwiseNullaryOpINS6_18scalar_constant_opIfEEKS2_EEKNS5_INS6_20scalar_difference_opIffEESC_SC_EEEEEEKNS5_INS6_13scalar_sum_opIfNS6_6traitsIT_E6ScalarEEESC_KSM_EERKNS0_ISM_EE)
                  0001516e    00000002     --HOLE-- [fill = 0]
                  00015170    00000026     PathGenerator.obj (.text:_ZNK5Eigen10MatrixBaseINS_6MatrixIfLi2ELi1ELi0ELi2ELi1EEEEplINS_13CwiseBinaryOpINS_8internal17scalar_product_opIffEEKNS_14CwiseNullaryOpINS6_18scalar_constant_opIfEEKS2_EESC_EEEEKNS5_INS6_13scalar_sum_opIfNS6_6traitsIT_E6ScalarEEESC_KSI_EERKNS0_ISI_EE)
                  00015196    00000002     --HOLE-- [fill = 0]
                  00015198    00000026     CarSim.obj (.text:_ZNK5Eigen10MatrixBaseINS_6MatrixIfLi3ELi1ELi0ELi3ELi1EEEEplINS_13CwiseBinaryOpINS_8internal17scalar_product_opIffEEKNS_14CwiseNullaryOpINS6_18scalar_constant_opIfEEKS2_EEKNS5_INS6_13scalar_sum_opIffEEKNS5_ISG_KNS5_ISG_KNS_5BlockINS1_IfLi3ELi4ELi0ELi3ELi4EEELi3ELi1ELb1EEEKNS5_IS8_SE_SK_EEEESM_EESK_EEEEEEKNS5_INSF_IfNS6_6traitsIT_E6ScalarEEESC_KSV_EERKNS0_ISV_EE)
                  000151be    00000002     --HOLE-- [fill = 0]
                  000151c0    00000026     PathGenerator.obj (.text:_ZNK5Eigen15PlainObjectBaseINS_6MatrixIfLi2ELi2ELi0ELi2ELi2EEEE5coeffEii)
                  000151e6    00000002     --HOLE-- [fill = 0]
                  000151e8    00000026     PathGenerator.obj (.text:_ZNSt3__2miERKNS_14__bit_iteratorINS_6vectorIbNS_9allocatorIbEEEELb0ELj0EEES7_)
                  0001520e    00000002     --HOLE-- [fill = 0]
                  00015210    00000024     msp432p4xx_driverlib.lib : wdt_a.o (.text:WDT_A_holdTimer)
                  00015234    00000004     --HOLE-- [fill = 0]
                  00015238    00000024     PathGenerator.obj (.text:_ZN5Eigen10MatrixBaseINS_5BlockINS_6MatrixIfLi2ELi2ELi0ELi2ELi2EEELin1ELin1ELb0EEEEaSINS2_IfLi2ELi1ELi0ELi2ELi1EEEEERS4_RKNS_9DenseBaseIT_EE)
                  0001525c    00000004     --HOLE-- [fill = 0]
                  00015260    00000024     PathGenerator.obj (.text:_ZN5Eigen10MatrixBaseINS_5BlockINS_6MatrixIfLi2ELi2ELi0ELi2ELi2EEELin1ELin1ELb0EEEEaSINS_9TransposeINS2_IfLi2ELi1ELi0ELi2ELi1EEEEEEERS4_RKNS_9DenseBaseIT_EE)
                  00015284    00000004     --HOLE-- [fill = 0]
                  00015288    00000024     CarSim.obj (.text:_ZN5Eigen10MatrixBaseINS_5BlockINS_6MatrixIfLi3ELi4ELi0ELi3ELi4EEELi3ELi1ELb1EEEEaSINS2_IfLi3ELi1ELi0ELi3ELi1EEEEERS4_RKNS_9DenseBaseIT_EE)
                  000152ac    00000004     --HOLE-- [fill = 0]
                  000152b0    00000024     PathTrackSim.obj (.text:_ZN5Eigen15PlainObjectBaseINS_6MatrixIfLi2ELi1ELi0ELi2ELi1EEEE4_setINS_12CwiseUnaryOpINS_8internal18scalar_opposite_opIfEEKS2_EEEERS2_RKNS_9DenseBaseIT_EE)
                  000152d4    00000004     --HOLE-- [fill = 0]
                  000152d8    00000024     PathGenerator.obj (.text:_ZN5Eigen15PlainObjectBaseINS_6MatrixIfLi2ELi1ELi0ELi2ELi1EEEE4_setINS_13CwiseBinaryOpINS_8internal13scalar_sum_opIffEEKS2_KNS5_INS6_17scalar_product_opIffEEKNS_14CwiseNullaryOpINS6_18scalar_constant_opIfEES9_EES9_EEEEEERS2_RKNS_9DenseBaseIT_EE)
                  000152fc    00000004     --HOLE-- [fill = 0]
                  00015300    00000024     PathGenerator.obj (.text:_ZN5Eigen15PlainObjectBaseINS_6MatrixIfLi2ELi1ELi0ELi2ELi1EEEE4_setINS_13CwiseBinaryOpINS_8internal13scalar_sum_opIffEEKS2_S9_EEEERS2_RKNS_9DenseBaseIT_EE)
                  00015324    00000004     --HOLE-- [fill = 0]
                  00015328    00000024     PathGenerator.obj (.text:_ZN5Eigen15PlainObjectBaseINS_6MatrixIfLi2ELi2ELi0ELi2ELi2EEEE4_setIS2_EERS2_RKNS_9DenseBaseIT_EE)
                  0001534c    00000004     --HOLE-- [fill = 0]
                  00015350    00000024     PathTrackSim.obj (.text:_ZN5Eigen15PlainObjectBaseINS_6MatrixIfLi3ELi1ELi0ELi3ELi1EEEE4_setINS_13CwiseBinaryOpINS_8internal13scalar_sum_opIffEEKNS5_INS6_17scalar_product_opIffEEKNS_14CwiseNullaryOpINS6_18scalar_constant_opIfEEKS2_EESE_EESI_EEEERS2_RKNS_9DenseBaseIT_EE)
                  00015374    00000004     --HOLE-- [fill = 0]
                  00015378    00000024     CarSim.obj (.text:_ZN5Eigen15PlainObjectBaseINS_6MatrixIfLi3ELi1ELi0ELi3ELi1EEEE4_setINS_13CwiseBinaryOpINS_8internal13scalar_sum_opIffEEKS2_KNS5_INS6_17scalar_product_opIffEEKNS_14CwiseNullaryOpINS6_18scalar_constant_opIfEES9_EEKNS5_IS8_KNS5_IS8_KNS5_IS8_KNS_5BlockINS1_IfLi3ELi4ELi0ELi3ELi4EEELi3ELi1ELb1EEEKNS5_ISB_SG_SK_EEEESM_EESK_EEEEEEEERS2_RKNS_9DenseBaseIT_EE)
                  0001539c    00000004     --HOLE-- [fill = 0]
                  000153a0    00000024     Car.obj (.text:_ZN5Eigen15PlainObjectBaseINS_6MatrixIfLi3ELi1ELi0ELi3ELi1EEEE4_setIS2_EERS2_RKNS_9DenseBaseIT_EE)
                  000153c4    00000004     --HOLE-- [fill = 0]
                  000153c8    00000024     PathGenerator.obj (.text:_ZN5Eigen8internal31generic_dense_assignment_kernelINS0_9evaluatorINS_6MatrixIfLi2ELi1ELi0ELi2ELi1EEEEES5_NS0_14swap_assign_opIfEELi0EEC1ERS5_RKS5_RKS7_RS4_)
                  000153ec    00000004     --HOLE-- [fill = 0]
                  000153f0    00000024     PathGenerator.obj (.text:_ZN5Eigen8internal9evaluatorINS_15PlainObjectBaseINS_6MatrixIfLi2ELi1ELi0ELi2ELi1EEEEEEC1ERKS5_)
                  00015414    00000004     --HOLE-- [fill = 0]
                  00015418    00000024     Car.obj (.text:_ZN5Eigen8internal9evaluatorINS_15PlainObjectBaseINS_6MatrixIfLi3ELi1ELi0ELi3ELi1EEEEEEC1ERKS5_)
                  0001543c    00000004     --HOLE-- [fill = 0]
                  00015440    00000024     PathGenerator.obj (.text:_ZNKSt3__26vectorItNS_9allocatorItEEE8max_sizeEv)
                  00015464    00000004     --HOLE-- [fill = 0]
                  00015468    00000024     PathGenerator.obj (.text:_ZNSt3__216__list_node_baseIPN9pathTrack8PathPartEPvEC1Ev)
                  0001548c    00000004     --HOLE-- [fill = 0]
                  00015490    00000024     PathTrackSim.obj (.text:_ZNSt3__216__list_node_baseIfPvEC1Ev)
                  000154b4    00000004     --HOLE-- [fill = 0]
                  000154b8    00000024     PathGenerator.obj (.text:_ZNSt3__216allocator_traitsINS_9allocatorINS_11__list_nodeIPN9pathTrack8PathPartEPvEEEEE11__constructIS5_JS5_EEEvNS_17integral_constantIbLb1EEERS8_PT_DpOT0_)
                  000154dc    00000004     --HOLE-- [fill = 0]
                  000154e0    00000024     PathGenerator.obj (.text:_ZNSt3__216allocator_traitsINS_9allocatorINS_11__list_nodeIPN9pathTrack8PathPartEPvEEEEE9constructIS5_JS5_EEEvRS8_PT_DpOT0_)
                  00015504    00000004     --HOLE-- [fill = 0]
                  00015508    00000024     PathTrackSim.obj (.text:_ZNSt3__216allocator_traitsINS_9allocatorINS_11__list_nodeIfPvEEEEE11__constructIfJRKfEEEvNS_17integral_constantIbLb1EEERS5_PT_DpOT0_)
                  0001552c    00000004     --HOLE-- [fill = 0]
                  00015530    00000024     PathTrackSim.obj (.text:_ZNSt3__216allocator_traitsINS_9allocatorINS_11__list_nodeIfPvEEEEE9constructIfJRKfEEEvRS5_PT_DpOT0_)
                  00015554    00000004     --HOLE-- [fill = 0]
                  00015558    00000024     PathGenerator.obj (.text:_ZNSt3__216allocator_traitsINS_9allocatorItEEE11__constructItJRKtEEEvNS_17integral_constantIbLb1EEERS2_PT_DpOT0_)
                  0001557c    00000004     --HOLE-- [fill = 0]
                  00015580    00000024     PathGenerator.obj (.text:_ZNSt3__216allocator_traitsINS_9allocatorItEEE9constructItJRKtEEEvRS2_PT_DpOT0_)
                  000155a4    00000024     rtsv7M4_T_le_v4SPD16_eabi.lib : vec_newdel.c.obj (.text:__cxa_vec_ctor)
                  000155c8    00000024                                   : memmov.c.obj (.text:memmove)
                  000155ec    00000022     msp432p4xx_driverlib.lib : timer_a.o (.text:Timer_A_getCaptureCompareCount)
                  0001560e    00000002     --HOLE-- [fill = 0]
                  00015610    00000022     PathGenerator.obj (.text:_ZN5Eigen6MatrixIfLi2ELi1ELi0ELi2ELi1EEC1IddEERKT_RKT0_)
                  00015632    00000006     --HOLE-- [fill = 0]
                  00015638    00000022     PathGenerator.obj (.text:_ZN5Eigen6MatrixIfLi2ELi1ELi0ELi2ELi1EEC1IfdEERKT_RKT0_)
                  0001565a    00000006     --HOLE-- [fill = 0]
                  00015660    00000022     PathGenerator.obj (.text:_ZN5Eigen6MatrixIfLi2ELi1ELi0ELi2ELi1EEC1IffEERKT_RKT0_)
                  00015682    00000006     --HOLE-- [fill = 0]
                  00015688    00000022     PathGenerator.obj (.text:_ZN5Eigen8internal31generic_dense_assignment_kernelINS0_9evaluatorINS_6MatrixIfLi2ELi1ELi0ELi2ELi1EEEEES5_NS0_14swap_assign_opIfEELi1EEC2ERS5_RKS5_RKS7_RS4_)
                  000156aa    00000006     --HOLE-- [fill = 0]
                  000156b0    00000022     CarSim.obj (.text:_ZN5Eigen8internal9evaluatorINS_15PlainObjectBaseINS_6MatrixIfLi3ELi4ELi0ELi3ELi4EEEEEE8coeffRefEii)
                  000156d2    00000006     --HOLE-- [fill = 0]
                  000156d8    00000022     PathTrackSim.obj (.text:_ZNK5Eigen8internal13add_assign_opIffE11assignCoeffERfRKf)
                  000156fa    00000006     --HOLE-- [fill = 0]
                  00015700    00000022     PathGenerator.obj (.text:_ZNK5Eigen8internal13mul_assign_opIffE11assignCoeffERfRKf)
                  00015722    00000006     --HOLE-- [fill = 0]
                  00015728    00000022     PathGenerator.obj (.text:_ZNK5Eigen8internal9evaluatorINS_15PlainObjectBaseINS_6MatrixIfLi2ELi1ELi0ELi2ELi1EEEEEE5coeffEii)
                  0001574a    00000006     --HOLE-- [fill = 0]
                  00015750    00000022     PathTrackSim.obj (.text:_ZNK5Eigen8internal9evaluatorINS_15PlainObjectBaseINS_6MatrixIfLi3ELi1ELi0ELi3ELi1EEEEEE5coeffEii)
                  00015772    00000006     --HOLE-- [fill = 0]
                  00015778    00000022     PathGenerator.obj (.text:_ZNSt3__26vectorIbNS_9allocatorIbEEE11__make_iterEj)
                  0001579a    00000022     rtsv7M4_T_le_v4SPD16_eabi.lib : new.cpp.obj (.text:_Znwj)
                  000157bc    00000004     --HOLE-- [fill = 0]
                  000157c0    00000020     PathGenerator.obj (.text:_ZN5Eigen7MapBaseINS_5BlockINS_6MatrixIfLi2ELi2ELi0ELi2ELi2EEELin1ELin1ELb0EEELi1EEC1EPfii)
                  000157e0    00000020     CarSim.obj (.text:_ZN5Eigen7MapBaseINS_5BlockINS_6MatrixIfLi3ELi4ELi0ELi3ELi4EEELi3ELi1ELb1EEELi1EEC1EPfii)
                  00015800    00000020     PathTrackSim.obj (.text:_ZN5Eigen8internal14aligned_mallocEj)
                  00015820    00000020     PathGenerator.obj (.text:_ZN5Eigen8internal15unary_evaluatorINS_9TransposeINS_6MatrixIfLi2ELi1ELi0ELi2ELi1EEEEENS0_10IndexBasedEfEC1ERKS5_)
                  00015840    00000020     Car.obj (.text:_ZN5Eigen8internal19variable_if_dynamicIiLi0EEC1Ei)
                  00015860    00000020     Car.obj (.text:_ZN5Eigen8internal19variable_if_dynamicIiLi1EEC1Ei)
                  00015880    00000020     PathGenerator.obj (.text:_ZN5Eigen8internal19variable_if_dynamicIiLi2EEC1Ei)
                  000158a0    00000020     Car.obj (.text:_ZN5Eigen8internal19variable_if_dynamicIiLi3EEC1Ei)
                  000158c0    00000020     PathGenerator.obj (.text:_ZNK5Eigen10MatrixBaseINS_6MatrixIfLi2ELi1ELi0ELi2ELi1EEEE9cwiseAbs2Ev)
                  000158e0    00000020     PathTrackSim.obj (.text:_ZNK5Eigen10MatrixBaseINS_6MatrixIfLi2ELi1ELi0ELi2ELi1EEEEngEv)
                  00015900    00000020     PathTrackSim.obj (.text:_ZNK5Eigen10MatrixBaseINS_6MatrixIfLi3ELi1ELi0ELi3ELi1EEEE9cwiseAbs2Ev)
                  00015920    00000020     PathGenerator.obj (.text:_ZNSt3__210__list_impIPN9pathTrack8PathPartENS_9allocatorIS3_EEE14__unlink_nodesEPNS_16__list_node_baseIS3_PvEESA_)
                  00015940    00000020     PathTrackSim.obj (.text:_ZNSt3__210__list_impIfNS_9allocatorIfEEE14__unlink_nodesEPNS_16__list_node_baseIfPvEES7_)
                  00015960    00000020     rtsv7M4_T_le_v4SPD16_eabi.lib : memchr.c.obj (.text:memchr)
                  00015980    00000020                                   : u_tofd_t2.asm.obj (.text)
                  000159a0    0000001e     PathGenerator.obj (.text:_ZN5Eigen12CwiseUnaryOpINS_8internal14scalar_abs2_opIfEEKNS_13CwiseBinaryOpINS1_20scalar_difference_opIffEEKNS_6MatrixIfLi2ELi1ELi0ELi2ELi1EEES9_EEEC1ERSB_RKS3_)
                  000159be    00000002     --HOLE-- [fill = 0]
                  000159c0    0000001e     PathGenerator.obj (.text:_ZN5Eigen15PlainObjectBaseINS_6MatrixIfLi2ELi1ELi0ELi2ELi1EEEE4swapIS2_EEvRNS_9DenseBaseIT_EE)
                  000159de    00000002     --HOLE-- [fill = 0]
                  000159e0    0000001e     PathGenerator.obj (.text:_ZN5Eigen7MapBaseINS_5BlockINS_6MatrixIfLi2ELi2ELi0ELi2ELi2EEELin1ELin1ELb0EEELi0EEC2EPfii)
                  000159fe    00000002     --HOLE-- [fill = 0]
                  00015a00    0000001e     PathGenerator.obj (.text:_ZN5Eigen7MapBaseINS_5BlockINS_6MatrixIfLi2ELi2ELi0ELi2ELi2EEELin1ELin1ELb0EEELi1EEC2EPfii)
                  00015a1e    00000002     --HOLE-- [fill = 0]
                  00015a20    0000001e     CarSim.obj (.text:_ZN5Eigen7MapBaseINS_5BlockINS_6MatrixIfLi3ELi4ELi0ELi3ELi4EEELi3ELi1ELb1EEELi0EEC2EPfii)
                  00015a3e    00000002     --HOLE-- [fill = 0]
                  00015a40    0000001e     CarSim.obj (.text:_ZN5Eigen7MapBaseINS_5BlockINS_6MatrixIfLi3ELi4ELi0ELi3ELi4EEELi3ELi1ELb1EEELi1EEC2EPfii)
                  00015a5e    00000002     --HOLE-- [fill = 0]
                  00015a60    0000001e     PathTrackSim.obj (.text:_ZN5Eigen8internal16binary_evaluatorINS_13CwiseBinaryOpINS0_13scalar_sum_opIffEEKNS2_INS0_17scalar_product_opIffEEKNS_14CwiseNullaryOpINS0_18scalar_constant_opIfEEKNS_6MatrixIfLi3ELi1ELi0ELi3ELi1EEEEESC_EESG_EENS0_10IndexBasedESI_ffED1Ev)
                  00015a7e    00000002     --HOLE-- [fill = 0]
                  00015a80    0000001e     CarSim.obj (.text:_ZN5Eigen8internal16binary_evaluatorINS_13CwiseBinaryOpINS0_13scalar_sum_opIffEEKNS2_IS4_KNS2_IS4_KNS_5BlockINS_6MatrixIfLi3ELi4ELi0ELi3ELi4EEELi3ELi1ELb1EEEKNS2_INS0_17scalar_product_opIffEEKNS_14CwiseNullaryOpINS0_18scalar_constant_opIfEEKNS6_IfLi3ELi1ELi0ELi3ELi1EEEEES9_EEEESK_EES9_EENS0_10IndexBasedESQ_ffED1Ev)
                  00015a9e    00000002     --HOLE-- [fill = 0]
                  00015aa0    0000001e     CarSim.obj (.text:_ZN5Eigen8internal16binary_evaluatorINS_13CwiseBinaryOpINS0_13scalar_sum_opIffEEKNS2_IS4_KNS_5BlockINS_6MatrixIfLi3ELi4ELi0ELi3ELi4EEELi3ELi1ELb1EEEKNS2_INS0_17scalar_product_opIffEEKNS_14CwiseNullaryOpINS0_18scalar_constant_opIfEEKNS6_IfLi3ELi1ELi0ELi3ELi1EEEEES9_EEEESK_EENS0_10IndexBasedESO_ffED1Ev)
                  00015abe    00000002     --HOLE-- [fill = 0]
                  00015ac0    0000001e     CarSim.obj (.text:_ZN5Eigen8internal16binary_evaluatorINS_13CwiseBinaryOpINS0_13scalar_sum_opIffEEKNS_5BlockINS_6MatrixIfLi3ELi4ELi0ELi3ELi4EEELi3ELi1ELb1EEEKNS2_INS0_17scalar_product_opIffEEKNS_14CwiseNullaryOpINS0_18scalar_constant_opIfEEKNS6_IfLi3ELi1ELi0ELi3ELi1EEEEES9_EEEENS0_10IndexBasedESM_ffED1Ev)
                  00015ade    00000002     --HOLE-- [fill = 0]
                  00015ae0    0000001e     PathGenerator.obj (.text:_ZN5Eigen8internal16binary_evaluatorINS_13CwiseBinaryOpINS0_13scalar_sum_opIffEEKNS_6MatrixIfLi2ELi1ELi0ELi2ELi1EEEKNS2_INS0_17scalar_product_opIffEEKNS_14CwiseNullaryOpINS0_18scalar_constant_opIfEES7_EEKNS2_INS0_20scalar_difference_opIffEES7_S7_EEEEEENS0_10IndexBasedESM_ffED1Ev)
                  00015afe    00000002     --HOLE-- [fill = 0]
                  00015b00    0000001e     PathGenerator.obj (.text:_ZN5Eigen8internal16binary_evaluatorINS_13CwiseBinaryOpINS0_13scalar_sum_opIffEEKNS_6MatrixIfLi2ELi1ELi0ELi2ELi1EEEKNS2_INS0_17scalar_product_opIffEEKNS_14CwiseNullaryOpINS0_18scalar_constant_opIfEES7_EES7_EEEENS0_10IndexBasedESI_ffED1Ev)
                  00015b1e    00000002     --HOLE-- [fill = 0]
                  00015b20    0000001e     PathGenerator.obj (.text:_ZN5Eigen8internal16binary_evaluatorINS_13CwiseBinaryOpINS0_13scalar_sum_opIffEEKNS_6MatrixIfLi2ELi1ELi0ELi2ELi1EEES7_EENS0_10IndexBasedES9_ffED1Ev)
                  00015b3e    00000002     --HOLE-- [fill = 0]
                  00015b40    0000001e     CarSim.obj (.text:_ZN5Eigen8internal16binary_evaluatorINS_13CwiseBinaryOpINS0_13scalar_sum_opIffEEKNS_6MatrixIfLi3ELi1ELi0ELi3ELi1EEEKNS2_INS0_17scalar_product_opIffEEKNS_14CwiseNullaryOpINS0_18scalar_constant_opIfEES7_EEKNS2_IS4_KNS2_IS4_KNS2_IS4_KNS_5BlockINS5_IfLi3ELi4ELi0ELi3ELi4EEELi3ELi1ELb1EEEKNS2_IS9_SE_SI_EEEESK_EESI_EEEEEENS0_10IndexBasedESU_ffED1Ev)
                  00015b5e    00000002     --HOLE-- [fill = 0]
                  00015b60    0000001e     PathGenerator.obj (.text:_ZN5Eigen8internal16binary_evaluatorINS_13CwiseBinaryOpINS0_17scalar_product_opIffEEKNS_14CwiseNullaryOpINS0_18scalar_constant_opIfEEKNS_6MatrixIfLi2ELi1ELi0ELi2ELi1EEEEEKNS2_INS0_20scalar_difference_opIffEESA_SA_EEEENS0_10IndexBasedESI_ffED1Ev)
                  00015b7e    00000002     --HOLE-- [fill = 0]
                  00015b80    0000001e     PathGenerator.obj (.text:_ZN5Eigen8internal16binary_evaluatorINS_13CwiseBinaryOpINS0_17scalar_product_opIffEEKNS_14CwiseNullaryOpINS0_18scalar_constant_opIfEEKNS_6MatrixIfLi2ELi1ELi0ELi2ELi1EEEEESA_EENS0_10IndexBasedESE_ffED1Ev)
                  00015b9e    00000002     --HOLE-- [fill = 0]
                  00015ba0    0000001e     CarSim.obj (.text:_ZN5Eigen8internal16binary_evaluatorINS_13CwiseBinaryOpINS0_17scalar_product_opIffEEKNS_14CwiseNullaryOpINS0_18scalar_constant_opIfEEKNS_6MatrixIfLi3ELi1ELi0ELi3ELi1EEEEEKNS2_INS0_13scalar_sum_opIffEEKNS2_ISE_KNS2_ISE_KNS_5BlockINS8_IfLi3ELi4ELi0ELi3ELi4EEELi3ELi1ELb1EEEKNS2_IS4_SC_SI_EEEESK_EESI_EEEENS0_10IndexBasedESS_ffED1Ev)
                  00015bbe    00000002     --HOLE-- [fill = 0]
                  00015bc0    0000001e     CarSim.obj (.text:_ZN5Eigen8internal16binary_evaluatorINS_13CwiseBinaryOpINS0_17scalar_product_opIffEEKNS_14CwiseNullaryOpINS0_18scalar_constant_opIfEEKNS_6MatrixIfLi3ELi1ELi0ELi3ELi1EEEEEKNS_5BlockINS8_IfLi3ELi4ELi0ELi3ELi4EEELi3ELi1ELb1EEEEENS0_10IndexBasedESI_ffED1Ev)
                  00015bde    00000002     --HOLE-- [fill = 0]
                  00015be0    0000001e     PathTrackSim.obj (.text:_ZN5Eigen8internal16binary_evaluatorINS_13CwiseBinaryOpINS0_17scalar_product_opIffEEKNS_14CwiseNullaryOpINS0_18scalar_constant_opIfEEKNS_6MatrixIfLi3ELi1ELi0ELi3ELi1EEEEESA_EENS0_10IndexBasedESE_ffED1Ev)
                  00015bfe    00000002     --HOLE-- [fill = 0]
                  00015c00    0000001e     PathGenerator.obj (.text:_ZN5Eigen8internal16binary_evaluatorINS_13CwiseBinaryOpINS0_20scalar_difference_opIffEEKNS_6MatrixIfLi2ELi1ELi0ELi2ELi1EEES7_EENS0_10IndexBasedES9_ffED1Ev)
                  00015c1e    00000002     --HOLE-- [fill = 0]
                  00015c20    0000001e     PathGenerator.obj (.text:_ZN5Eigen8internal16binary_evaluatorINS_13CwiseBinaryOpINS0_22scalar_conj_product_opIffEEKNS_6MatrixIfLi2ELi1ELi0ELi2ELi1EEES7_EENS0_10IndexBasedES9_ffED1Ev)
                  00015c3e    00000002     --HOLE-- [fill = 0]
                  00015c40    0000001e     PathTrackSim.obj (.text:_ZN5Eigen8internal16binary_evaluatorINS_13CwiseBinaryOpINS0_22scalar_conj_product_opIffEEKNS_6MatrixIfLi3ELi1ELi0ELi3ELi1EEES7_EENS0_10IndexBasedES9_ffED1Ev)
                  00015c5e    00000002     --HOLE-- [fill = 0]
                  00015c60    0000001e     PathGenerator.obj (.text:_ZN5Eigen8internal24call_assignment_no_aliasINS_5BlockINS_6MatrixIfLi2ELi2ELi0ELi2ELi2EEELin1ELin1ELb0EEENS3_IfLi2ELi1ELi0ELi2ELi1EEENS0_9assign_opIffEEEEvRT_RKT0_RKT1_)
                  00015c7e    00000002     --HOLE-- [fill = 0]
                  00015c80    0000001e     PathGenerator.obj (.text:_ZN5Eigen8internal24call_assignment_no_aliasINS_5BlockINS_6MatrixIfLi2ELi2ELi0ELi2ELi2EEELin1ELin1ELb0EEENS_9TransposeINS3_IfLi2ELi1ELi0ELi2ELi1EEEEENS0_9assign_opIffEEEEvRT_RKT0_RKT1_)
                  00015c9e    00000002     --HOLE-- [fill = 0]
                  00015ca0    0000001e     CarSim.obj (.text:_ZN5Eigen8internal24call_assignment_no_aliasINS_5BlockINS_6MatrixIfLi3ELi4ELi0ELi3ELi4EEELi3ELi1ELb1EEENS3_IfLi3ELi1ELi0ELi3ELi1EEENS0_9assign_opIffEEEEvRT_RKT0_RKT1_)
                  00015cbe    00000002     --HOLE-- [fill = 0]
                  00015cc0    0000001e     PathTrackSim.obj (.text:_ZN5Eigen8internal24call_assignment_no_aliasINS_6MatrixIfLi2ELi1ELi0ELi2ELi1EEENS_12CwiseUnaryOpINS0_18scalar_opposite_opIfEEKS3_EENS0_9assign_opIffEEEEvRT_RKT0_RKT1_)
                  00015cde    00000002     --HOLE-- [fill = 0]
                  00015ce0    0000001e     PathGenerator.obj (.text:_ZN5Eigen8internal24call_assignment_no_aliasINS_6MatrixIfLi2ELi1ELi0ELi2ELi1EEENS_13CwiseBinaryOpINS0_13scalar_sum_opIffEEKS3_KNS4_INS0_17scalar_product_opIffEEKNS_14CwiseNullaryOpINS0_18scalar_constant_opIfEES7_EEKNS4_INS0_20scalar_difference_opIffEES7_S7_EEEEEENS0_9assign_opIffEEEEvRT_RKT0_RKT1_)
                  00015cfe    00000002     --HOLE-- [fill = 0]
                  00015d00    0000001e     PathGenerator.obj (.text:_ZN5Eigen8internal24call_assignment_no_aliasINS_6MatrixIfLi2ELi1ELi0ELi2ELi1EEENS_13CwiseBinaryOpINS0_13scalar_sum_opIffEEKS3_KNS4_INS0_17scalar_product_opIffEEKNS_14CwiseNullaryOpINS0_18scalar_constant_opIfEES7_EES7_EEEENS0_9assign_opIffEEEEvRT_RKT0_RKT1_)
                  00015d1e    00000002     --HOLE-- [fill = 0]
                  00015d20    0000001e     PathGenerator.obj (.text:_ZN5Eigen8internal24call_assignment_no_aliasINS_6MatrixIfLi2ELi1ELi0ELi2ELi1EEENS_13CwiseBinaryOpINS0_13scalar_sum_opIffEEKS3_S7_EENS0_9assign_opIffEEEEvRT_RKT0_RKT1_)
                  00015d3e    00000002     --HOLE-- [fill = 0]
                  00015d40    0000001e     PathGenerator.obj (.text:_ZN5Eigen8internal24call_assignment_no_aliasINS_6MatrixIfLi2ELi1ELi0ELi2ELi1EEENS_13CwiseBinaryOpINS0_20scalar_difference_opIffEEKS3_S7_EENS0_9assign_opIffEEEEvRT_RKT0_RKT1_)
                  00015d5e    00000002     --HOLE-- [fill = 0]
                  00015d60    0000001e     PathGenerator.obj (.text:_ZN5Eigen8internal24call_assignment_no_aliasINS_6MatrixIfLi2ELi1ELi0ELi2ELi1EEENS_14CwiseNullaryOpINS0_18scalar_constant_opIfEES3_EENS0_13mul_assign_opIffEEEEvRT_RKT0_RKT1_)
                  00015d7e    00000002     --HOLE-- [fill = 0]
                  00015d80    0000001e     PathGenerator.obj (.text:_ZN5Eigen8internal24call_assignment_no_aliasINS_6MatrixIfLi2ELi1ELi0ELi2ELi1EEES3_NS0_14swap_assign_opIfEEEEvRT_RKT0_RKT1_)
                  00015d9e    00000002     --HOLE-- [fill = 0]
                  00015da0    0000001e     PathGenerator.obj (.text:_ZN5Eigen8internal24call_assignment_no_aliasINS_6MatrixIfLi2ELi2ELi0ELi2ELi2EEES3_NS0_9assign_opIffEEEEvRT_RKT0_RKT1_)
                  00015dbe    00000002     --HOLE-- [fill = 0]
                  00015dc0    0000001e     PathTrackSim.obj (.text:_ZN5Eigen8internal24call_assignment_no_aliasINS_6MatrixIfLi3ELi1ELi0ELi3ELi1EEENS_13CwiseBinaryOpINS0_13scalar_sum_opIffEEKNS4_INS0_17scalar_product_opIffEEKNS_14CwiseNullaryOpINS0_18scalar_constant_opIfEEKS3_EESC_EESG_EENS0_9assign_opIffEEEEvRT_RKT0_RKT1_)
                  00015dde    00000002     --HOLE-- [fill = 0]
                  00015de0    0000001e     CarSim.obj (.text:_ZN5Eigen8internal24call_assignment_no_aliasINS_6MatrixIfLi3ELi1ELi0ELi3ELi1EEENS_13CwiseBinaryOpINS0_13scalar_sum_opIffEEKS3_KNS4_INS0_17scalar_product_opIffEEKNS_14CwiseNullaryOpINS0_18scalar_constant_opIfEES7_EEKNS4_IS6_KNS4_IS6_KNS4_IS6_KNS_5BlockINS2_IfLi3ELi4ELi0ELi3ELi4EEELi3ELi1ELb1EEEKNS4_IS9_SE_SI_EEEESK_EESI_EEEEEENS0_9assign_opIffEEEEvRT_RKT0_RKT1_)
                  00015dfe    00000002     --HOLE-- [fill = 0]
                  00015e00    0000001e     PathTrackSim.obj (.text:_ZN5Eigen8internal24call_assignment_no_aliasINS_6MatrixIfLi3ELi1ELi0ELi3ELi1EEENS_13CwiseBinaryOpINS0_17scalar_product_opIffEEKNS_14CwiseNullaryOpINS0_18scalar_constant_opIfEEKS3_EEKNS4_INS0_13scalar_sum_opIffEEKNS4_ISE_KNS4_ISE_KNS_5BlockINS2_IfLi3ELi4ELi0ELi3ELi4EEELi3ELi1ELb1EEEKNS4_IS6_SC_SI_EEEESK_EESI_EEEENS0_13add_assign_opIffEEEEvRT_RKT0_RKT1_)
                  00015e1e    00000002     --HOLE-- [fill = 0]
                  00015e20    0000001e     PathTrackSim.obj (.text:_ZN5Eigen8internal24call_assignment_no_aliasINS_6MatrixIfLi3ELi1ELi0ELi3ELi1EEENS_13CwiseBinaryOpINS0_17scalar_product_opIffEEKNS_14CwiseNullaryOpINS0_18scalar_constant_opIfEEKS3_EESA_EENS0_13add_assign_opIffEEEEvRT_RKT0_RKT1_)
                  00015e3e    00000002     --HOLE-- [fill = 0]
                  00015e40    0000001e     Car.obj (.text:_ZN5Eigen8internal24call_assignment_no_aliasINS_6MatrixIfLi3ELi1ELi0ELi3ELi1EEENS_3MapIKS3_Li0ENS_6StrideILi0ELi0EEEEENS0_9assign_opIffEEEEvRT_RKT0_RKT1_)
                  00015e5e    00000002     --HOLE-- [fill = 0]
                  00015e60    0000001e     Car.obj (.text:_ZN5Eigen8internal24call_assignment_no_aliasINS_6MatrixIfLi3ELi1ELi0ELi3ELi1EEES3_NS0_9assign_opIffEEEEvRT_RKT0_RKT1_)
                  00015e7e    00000002     --HOLE-- [fill = 0]
                  00015e80    0000001e     PathGenerator.obj (.text:_ZN5Eigen8internal42check_transpose_aliasing_run_time_selectorIfLb0ENS_9TransposeINS_6MatrixIfLi2ELi1ELi0ELi2ELi1EEEEEE3runEPKfRKS5_)
                  00015e9e    00000002     --HOLE-- [fill = 0]
                  00015ea0    0000001e     PathGenerator.obj (.text:_ZN5Eigen8internal9evaluatorINS_14CwiseNullaryOpINS0_18scalar_constant_opIfEEKNS_6MatrixIfLi2ELi1ELi0ELi2ELi1EEEEEEC1ERKS8_)
                  00015ebe    00000002     --HOLE-- [fill = 0]
                  00015ec0    0000001e     CarSim.obj (.text:_ZN5Eigen8internal9evaluatorINS_14CwiseNullaryOpINS0_18scalar_constant_opIfEEKNS_6MatrixIfLi3ELi1ELi0ELi3ELi1EEEEEEC1ERKS8_)
                  00015ede    00000002     --HOLE-- [fill = 0]
                  00015ee0    0000001e     PathGenerator.obj (.text:_ZN5Eigen8internal9evaluatorINS_14CwiseNullaryOpINS0_18scalar_constant_opIfEENS_6MatrixIfLi2ELi1ELi0ELi2ELi1EEEEEEC1ERKS7_)
                  00015efe    00000002     --HOLE-- [fill = 0]
                  00015f00    0000001e     PathGenerator.obj (.text:_ZN5Eigen9DenseBaseINS_6MatrixIfLi2ELi1ELi0ELi2ELi1EEEE11NullaryExprINS_8internal18scalar_constant_opIfEEEEKNS_14CwiseNullaryOpIT_S2_EEiiRKS9_)
                  00015f1e    00000002     --HOLE-- [fill = 0]
                  00015f20    0000001e     CarSim.obj (.text:_ZNK5Eigen8internal13scalar_sum_opIffEclERKfS4_)
                  00015f3e    00000002     --HOLE-- [fill = 0]
                  00015f40    0000001e     PathGenerator.obj (.text:_ZNK5Eigen8internal15unary_evaluatorINS_12CwiseUnaryOpINS0_14scalar_abs2_opIfEEKNS_6MatrixIfLi2ELi1ELi0ELi2ELi1EEEEENS0_10IndexBasedEfE5coeffEii)
                  00015f5e    00000002     --HOLE-- [fill = 0]
                  00015f60    0000001e     PathTrackSim.obj (.text:_ZNK5Eigen8internal15unary_evaluatorINS_12CwiseUnaryOpINS0_14scalar_abs2_opIfEEKNS_6MatrixIfLi3ELi1ELi0ELi3ELi1EEEEENS0_10IndexBasedEfE5coeffEii)
                  00015f7e    00000002     --HOLE-- [fill = 0]
                  00015f80    0000001e     CarSim.obj (.text:_ZNK5Eigen8internal17scalar_product_opIffEclERKfS4_)
                  00015f9e    00000002     --HOLE-- [fill = 0]
                  00015fa0    0000001e     PathGenerator.obj (.text:_ZNK5Eigen8internal20scalar_difference_opIffEclERKfS4_)
                  00015fbe    00000002     --HOLE-- [fill = 0]
                  00015fc0    0000001e     PathGenerator.obj (.text:_ZNKSt3__26__lessIiiEclERKiS3_)
                  00015fde    00000002     --HOLE-- [fill = 0]
                  00015fe0    0000001e     PathGenerator.obj (.text:_ZNKSt3__26__lessIjjEclERKjS3_)
                  00015ffe    00000002     --HOLE-- [fill = 0]
                  00016000    0000001e     PathGenerator.obj (.text:_ZNSt3__214__bit_iteratorINS_6vectorIbNS_9allocatorIbEEEELb0ELj0EEC1ERKS5_)
                  0001601e    00000002     --HOLE-- [fill = 0]
                  00016020    0000001e     PathGenerator.obj (.text:_ZNSt3__217__compressed_pairIPtNS_9allocatorItEEEC1IDnLb1EEEOT_)
                  0001603e    00000002     --HOLE-- [fill = 0]
                  00016040    0000001e     PathGenerator.obj (.text:_ZNSt3__217__compressed_pairIjNS_9allocatorINS_11__list_nodeIPN9pathTrack8PathPartEPvEEEEEC1IiLb1EEEOT_)
                  0001605e    00000002     --HOLE-- [fill = 0]
                  00016060    0000001e     PathTrackSim.obj (.text:_ZNSt3__217__compressed_pairIjNS_9allocatorINS_11__list_nodeIfPvEEEEEC1IiLb1EEEOT_)
                  0001607e    00000002     --HOLE-- [fill = 0]
                  00016080    0000001e     PathGenerator.obj (.text:_ZNSt3__217__compressed_pairIjNS_9allocatorIjEEEC1IiLb1EEEOT_)
                  0001609e    00000002     --HOLE-- [fill = 0]
                  000160a0    0000001e     PathGenerator.obj (.text:_ZNSt3__23maxIjNS_6__lessIjjEEEERKT_S5_S5_T0_)
                  000160be    00000002     --HOLE-- [fill = 0]
                  000160c0    0000001e     PathGenerator.obj (.text:_ZNSt3__23minIiNS_6__lessIiiEEEERKT_S5_S5_T0_)
                  000160de    00000002     --HOLE-- [fill = 0]
                  000160e0    0000001e     PathGenerator.obj (.text:_ZNSt3__23minIjNS_6__lessIjjEEEERKT_S5_S5_T0_)
                  000160fe    00000002     --HOLE-- [fill = 0]
                  00016100    0000001e     PathGenerator.obj (.text:_ZNSt3__2neERKNS_15__list_iteratorIPN9pathTrack8PathPartEPvEES7_)
                  0001611e    00000002     --HOLE-- [fill = 0]
                  00016120    0000001e     PathTrackSim.obj (.text:_ZNSt3__2neERKNS_15__list_iteratorIfPvEES4_)
                  0001613e    00000002     --HOLE-- [fill = 0]
                  00016140    0000001e     PathTrackSim.obj (.text:_ZNSt3__2neERKNS_21__list_const_iteratorIfPvEES4_)
                  0001615e    00000002     --HOLE-- [fill = 0]
                  00016160    0000001c     Car.obj (.text:_ZN5Eigen6MatrixIfLi3ELi1ELi0ELi3ELi1EEC1IA3_fEERKT_)
                  0001617c    00000004     --HOLE-- [fill = 0]
                  00016180    0000001c     PathGenerator.obj (.text:_ZN5Eigen8internal10AssignmentINS_5BlockINS_6MatrixIfLi2ELi2ELi0ELi2ELi2EEELin1ELin1ELb0EEENS3_IfLi2ELi1ELi0ELi2ELi1EEENS0_9assign_opIffEENS0_11Dense2DenseEvE3runERS5_RKS6_RKS8_)
                  0001619c    00000004     --HOLE-- [fill = 0]
                  000161a0    0000001c     PathGenerator.obj (.text:_ZN5Eigen8internal10AssignmentINS_5BlockINS_6MatrixIfLi2ELi2ELi0ELi2ELi2EEELin1ELin1ELb0EEENS_9TransposeINS3_IfLi2ELi1ELi0ELi2ELi1EEEEENS0_9assign_opIffEENS0_11Dense2DenseEvE3runERS5_RKS8_RKSA_)
                  000161bc    00000004     --HOLE-- [fill = 0]
                  000161c0    0000001c     CarSim.obj (.text:_ZN5Eigen8internal10AssignmentINS_5BlockINS_6MatrixIfLi3ELi4ELi0ELi3ELi4EEELi3ELi1ELb1EEENS3_IfLi3ELi1ELi0ELi3ELi1EEENS0_9assign_opIffEENS0_11Dense2DenseEvE3runERS5_RKS6_RKS8_)
                  000161dc    00000004     --HOLE-- [fill = 0]
                  000161e0    0000001c     PathTrackSim.obj (.text:_ZN5Eigen8internal10AssignmentINS_6MatrixIfLi2ELi1ELi0ELi2ELi1EEENS_12CwiseUnaryOpINS0_18scalar_opposite_opIfEEKS3_EENS0_9assign_opIffEENS0_11Dense2DenseEvE3runERS3_RKS8_RKSA_)
                  000161fc    00000004     --HOLE-- [fill = 0]
                  00016200    0000001c     PathGenerator.obj (.text:_ZN5Eigen8internal10AssignmentINS_6MatrixIfLi2ELi1ELi0ELi2ELi1EEENS_13CwiseBinaryOpINS0_13scalar_sum_opIffEEKS3_KNS4_INS0_17scalar_product_opIffEEKNS_14CwiseNullaryOpINS0_18scalar_constant_opIfEES7_EEKNS4_INS0_20scalar_difference_opIffEES7_S7_EEEEEENS0_9assign_opIffEENS0_11Dense2DenseEvE3runERS3_RKSL_RKSN_)
                  0001621c    00000004     --HOLE-- [fill = 0]
                  00016220    0000001c     PathGenerator.obj (.text:_ZN5Eigen8internal10AssignmentINS_6MatrixIfLi2ELi1ELi0ELi2ELi1EEENS_13CwiseBinaryOpINS0_13scalar_sum_opIffEEKS3_KNS4_INS0_17scalar_product_opIffEEKNS_14CwiseNullaryOpINS0_18scalar_constant_opIfEES7_EES7_EEEENS0_9assign_opIffEENS0_11Dense2DenseEvE3runERS3_RKSH_RKSJ_)
                  0001623c    00000004     --HOLE-- [fill = 0]
                  00016240    0000001c     PathGenerator.obj (.text:_ZN5Eigen8internal10AssignmentINS_6MatrixIfLi2ELi1ELi0ELi2ELi1EEENS_13CwiseBinaryOpINS0_13scalar_sum_opIffEEKS3_S7_EENS0_9assign_opIffEENS0_11Dense2DenseEvE3runERS3_RKS8_RKSA_)
                  0001625c    00000004     --HOLE-- [fill = 0]
                  00016260    0000001c     PathGenerator.obj (.text:_ZN5Eigen8internal10AssignmentINS_6MatrixIfLi2ELi1ELi0ELi2ELi1EEENS_13CwiseBinaryOpINS0_20scalar_difference_opIffEEKS3_S7_EENS0_9assign_opIffEENS0_11Dense2DenseEvE3runERS3_RKS8_RKSA_)
                  0001627c    00000004     --HOLE-- [fill = 0]
                  00016280    0000001c     PathGenerator.obj (.text:_ZN5Eigen8internal10AssignmentINS_6MatrixIfLi2ELi1ELi0ELi2ELi1EEENS_14CwiseNullaryOpINS0_18scalar_constant_opIfEES3_EENS0_13mul_assign_opIffEENS0_11Dense2DenseEvE3runERS3_RKS7_RKS9_)
                  0001629c    00000004     --HOLE-- [fill = 0]
                  000162a0    0000001c     PathGenerator.obj (.text:_ZN5Eigen8internal10AssignmentINS_6MatrixIfLi2ELi1ELi0ELi2ELi1EEES3_NS0_14swap_assign_opIfEENS0_11Dense2DenseEvE3runERS3_RKS3_RKS5_)
                  000162bc    00000004     --HOLE-- [fill = 0]
                  000162c0    0000001c     PathGenerator.obj (.text:_ZN5Eigen8internal10AssignmentINS_6MatrixIfLi2ELi2ELi0ELi2ELi2EEES3_NS0_9assign_opIffEENS0_11Dense2DenseEvE3runERS3_RKS3_RKS5_)
                  000162dc    00000004     --HOLE-- [fill = 0]
                  000162e0    0000001c     PathTrackSim.obj (.text:_ZN5Eigen8internal10AssignmentINS_6MatrixIfLi3ELi1ELi0ELi3ELi1EEENS_13CwiseBinaryOpINS0_13scalar_sum_opIffEEKNS4_INS0_17scalar_product_opIffEEKNS_14CwiseNullaryOpINS0_18scalar_constant_opIfEEKS3_EESC_EESG_EENS0_9assign_opIffEENS0_11Dense2DenseEvE3runERS3_RKSH_RKSJ_)
                  000162fc    00000004     --HOLE-- [fill = 0]
                  00016300    0000001c     CarSim.obj (.text:_ZN5Eigen8internal10AssignmentINS_6MatrixIfLi3ELi1ELi0ELi3ELi1EEENS_13CwiseBinaryOpINS0_13scalar_sum_opIffEEKS3_KNS4_INS0_17scalar_product_opIffEEKNS_14CwiseNullaryOpINS0_18scalar_constant_opIfEES7_EEKNS4_IS6_KNS4_IS6_KNS4_IS6_KNS_5BlockINS2_IfLi3ELi4ELi0ELi3ELi4EEELi3ELi1ELb1EEEKNS4_IS9_SE_SI_EEEESK_EESI_EEEEEENS0_9assign_opIffEENS0_11Dense2DenseEvE3runERS3_RKST_RKSV_)
                  0001631c    00000004     --HOLE-- [fill = 0]
                  00016320    0000001c     PathTrackSim.obj (.text:_ZN5Eigen8internal10AssignmentINS_6MatrixIfLi3ELi1ELi0ELi3ELi1EEENS_13CwiseBinaryOpINS0_17scalar_product_opIffEEKNS_14CwiseNullaryOpINS0_18scalar_constant_opIfEEKS3_EEKNS4_INS0_13scalar_sum_opIffEEKNS4_ISE_KNS4_ISE_KNS_5BlockINS2_IfLi3ELi4ELi0ELi3ELi4EEELi3ELi1ELb1EEEKNS4_IS6_SC_SI_EEEESK_EESI_EEEENS0_13add_assign_opIffEENS0_11Dense2DenseEvE3runERS3_RKSR_RKST_)
                  0001633c    00000004     --HOLE-- [fill = 0]
                  00016340    0000001c     PathTrackSim.obj (.text:_ZN5Eigen8internal10AssignmentINS_6MatrixIfLi3ELi1ELi0ELi3ELi1EEENS_13CwiseBinaryOpINS0_17scalar_product_opIffEEKNS_14CwiseNullaryOpINS0_18scalar_constant_opIfEEKS3_EESA_EENS0_13add_assign_opIffEENS0_11Dense2DenseEvE3runERS3_RKSD_RKSF_)
                  0001635c    00000004     --HOLE-- [fill = 0]
                  00016360    0000001c     Car.obj (.text:_ZN5Eigen8internal10AssignmentINS_6MatrixIfLi3ELi1ELi0ELi3ELi1EEENS_3MapIKS3_Li0ENS_6StrideILi0ELi0EEEEENS0_9assign_opIffEENS0_11Dense2DenseEvE3runERS3_RKS8_RKSA_)
                  0001637c    00000004     --HOLE-- [fill = 0]
                  00016380    0000001c     Car.obj (.text:_ZN5Eigen8internal10AssignmentINS_6MatrixIfLi3ELi1ELi0ELi3ELi1EEES3_NS0_9assign_opIffEENS0_11Dense2DenseEvE3runERS3_RKS3_RKS5_)
                  0001639c    00000004     --HOLE-- [fill = 0]
                  000163a0    0000001c     PathGenerator.obj (.text:_ZN5Eigen8internal15call_assignmentINS_5BlockINS_6MatrixIfLi2ELi2ELi0ELi2ELi2EEELin1ELin1ELb0EEENS3_IfLi2ELi1ELi0ELi2ELi1EEENS0_9assign_opIffEEEEvRT_RKT0_RKT1_NS0_9enable_ifIXntsr5Eigen8internal25evaluator_assume_aliasingISB_NS0_16evaluator_traitsISB_E5ShapeEEE5valueEPvE4typeE)
                  000163bc    00000004     --HOLE-- [fill = 0]
                  000163c0    0000001c     PathGenerator.obj (.text:_ZN5Eigen8internal15call_assignmentINS_5BlockINS_6MatrixIfLi2ELi2ELi0ELi2ELi2EEELin1ELin1ELb0EEENS_9TransposeINS3_IfLi2ELi1ELi0ELi2ELi1EEEEENS0_9assign_opIffEEEEvRT_RKT0_RKT1_NS0_9enable_ifIXntsr5Eigen8internal25evaluator_assume_aliasingISD_NS0_16evaluator_traitsISD_E5ShapeEEE5valueEPvE4typeE)
                  000163dc    00000004     --HOLE-- [fill = 0]
                  000163e0    0000001c     CarSim.obj (.text:_ZN5Eigen8internal15call_assignmentINS_5BlockINS_6MatrixIfLi3ELi4ELi0ELi3ELi4EEELi3ELi1ELb1EEENS3_IfLi3ELi1ELi0ELi3ELi1EEENS0_9assign_opIffEEEEvRT_RKT0_RKT1_NS0_9enable_ifIXntsr5Eigen8internal25evaluator_assume_aliasingISB_NS0_16evaluator_traitsISB_E5ShapeEEE5valueEPvE4typeE)
                  000163fc    00000004     --HOLE-- [fill = 0]
                  00016400    0000001c     PathTrackSim.obj (.text:_ZN5Eigen8internal15call_assignmentINS_6MatrixIfLi2ELi1ELi0ELi2ELi1EEENS_12CwiseUnaryOpINS0_18scalar_opposite_opIfEEKS3_EENS0_9assign_opIffEEEEvRT_RKT0_RKT1_NS0_9enable_ifIXntsr5Eigen8internal25evaluator_assume_aliasingISD_NS0_16evaluator_traitsISD_E5ShapeEEE5valueEPvE4typeE)
                  0001641c    00000004     --HOLE-- [fill = 0]
                  00016420    0000001c     PathGenerator.obj (.text:_ZN5Eigen8internal15call_assignmentINS_6MatrixIfLi2ELi1ELi0ELi2ELi1EEENS_13CwiseBinaryOpINS0_13scalar_sum_opIffEEKS3_KNS4_INS0_17scalar_product_opIffEEKNS_14CwiseNullaryOpINS0_18scalar_constant_opIfEES7_EES7_EEEENS0_9assign_opIffEEEEvRT_RKT0_RKT1_NS0_9enable_ifIXntsr5Eigen8internal25evaluator_assume_aliasingISM_NS0_16evaluator_traitsISM_E5ShapeEEE5valueEPvE4typeE)
                  0001643c    00000004     --HOLE-- [fill = 0]
                  00016440    0000001c     PathGenerator.obj (.text:_ZN5Eigen8internal15call_assignmentINS_6MatrixIfLi2ELi1ELi0ELi2ELi1EEENS_13CwiseBinaryOpINS0_13scalar_sum_opIffEEKS3_S7_EENS0_9assign_opIffEEEEvRT_RKT0_RKT1_NS0_9enable_ifIXntsr5Eigen8internal25evaluator_assume_aliasingISD_NS0_16evaluator_traitsISD_E5ShapeEEE5valueEPvE4typeE)
                  0001645c    00000004     --HOLE-- [fill = 0]
                  00016460    0000001c     PathGenerator.obj (.text:_ZN5Eigen8internal15call_assignmentINS_6MatrixIfLi2ELi1ELi0ELi2ELi1EEENS_14CwiseNullaryOpINS0_18scalar_constant_opIfEES3_EENS0_13mul_assign_opIffEEEEvRT_RKT0_RKT1_NS0_9enable_ifIXntsr5Eigen8internal25evaluator_assume_aliasingISC_NS0_16evaluator_traitsISC_E5ShapeEEE5valueEPvE4typeE)
                  0001647c    00000004     --HOLE-- [fill = 0]
                  00016480    0000001c     PathGenerator.obj (.text:_ZN5Eigen8internal15call_assignmentINS_6MatrixIfLi2ELi1ELi0ELi2ELi1EEES3_NS0_14swap_assign_opIfEEEEvRT_RKT0_RKT1_NS0_9enable_ifIXntsr5Eigen8internal25evaluator_assume_aliasingIS8_NS0_16evaluator_traitsIS8_E5ShapeEEE5valueEPvE4typeE)
                  0001649c    00000004     --HOLE-- [fill = 0]
                  000164a0    0000001c     PathGenerator.obj (.text:_ZN5Eigen8internal15call_assignmentINS_6MatrixIfLi2ELi2ELi0ELi2ELi2EEES3_NS0_9assign_opIffEEEEvRT_RKT0_RKT1_NS0_9enable_ifIXntsr5Eigen8internal25evaluator_assume_aliasingIS8_NS0_16evaluator_traitsIS8_E5ShapeEEE5valueEPvE4typeE)
                  000164bc    00000004     --HOLE-- [fill = 0]
                  000164c0    0000001c     PathTrackSim.obj (.text:_ZN5Eigen8internal15call_assignmentINS_6MatrixIfLi3ELi1ELi0ELi3ELi1EEENS_13CwiseBinaryOpINS0_13scalar_sum_opIffEEKNS4_INS0_17scalar_product_opIffEEKNS_14CwiseNullaryOpINS0_18scalar_constant_opIfEEKS3_EESC_EESG_EENS0_9assign_opIffEEEEvRT_RKT0_RKT1_NS0_9enable_ifIXntsr5Eigen8internal25evaluator_assume_aliasingISM_NS0_16evaluator_traitsISM_E5ShapeEEE5valueEPvE4typeE)
                  000164dc    00000004     --HOLE-- [fill = 0]
                  000164e0    0000001c     CarSim.obj (.text:_ZN5Eigen8internal15call_assignmentINS_6MatrixIfLi3ELi1ELi0ELi3ELi1EEENS_13CwiseBinaryOpINS0_13scalar_sum_opIffEEKS3_KNS4_INS0_17scalar_product_opIffEEKNS_14CwiseNullaryOpINS0_18scalar_constant_opIfEES7_EEKNS4_IS6_KNS4_IS6_KNS4_IS6_KNS_5BlockINS2_IfLi3ELi4ELi0ELi3ELi4EEELi3ELi1ELb1EEEKNS4_IS9_SE_SI_EEEESK_EESI_EEEEEENS0_9assign_opIffEEEEvRT_RKT0_RKT1_NS0_9enable_ifIXntsr5Eigen8internal25evaluator_assume_aliasingISY_NS0_16evaluator_traitsISY_E5ShapeEEE5valueEPvE4typeE)
                  000164fc    00000004     --HOLE-- [fill = 0]
                  00016500    0000001c     PathTrackSim.obj (.text:_ZN5Eigen8internal15call_assignmentINS_6MatrixIfLi3ELi1ELi0ELi3ELi1EEENS_13CwiseBinaryOpINS0_17scalar_product_opIffEEKNS_14CwiseNullaryOpINS0_18scalar_constant_opIfEEKS3_EEKNS4_INS0_13scalar_sum_opIffEEKNS4_ISE_KNS4_ISE_KNS_5BlockINS2_IfLi3ELi4ELi0ELi3ELi4EEELi3ELi1ELb1EEEKNS4_IS6_SC_SI_EEEESK_EESI_EEEENS0_13add_assign_opIffEEEEvRT_RKT0_RKT1_NS0_9enable_ifIXntsr5Eigen8internal25evaluator_assume_aliasingISW_NS0_16evaluator_traitsISW_E5ShapeEEE5valueEPvE4typeE)
                  0001651c    00000004     --HOLE-- [fill = 0]
                  00016520    0000001c     PathTrackSim.obj (.text:_ZN5Eigen8internal15call_assignmentINS_6MatrixIfLi3ELi1ELi0ELi3ELi1EEENS_13CwiseBinaryOpINS0_17scalar_product_opIffEEKNS_14CwiseNullaryOpINS0_18scalar_constant_opIfEEKS3_EESA_EENS0_13add_assign_opIffEEEEvRT_RKT0_RKT1_NS0_9enable_ifIXntsr5Eigen8internal25evaluator_assume_aliasingISI_NS0_16evaluator_traitsISI_E5ShapeEEE5valueEPvE4typeE)
                  0001653c    00000004     --HOLE-- [fill = 0]
                  00016540    0000001c     Car.obj (.text:_ZN5Eigen8internal15call_assignmentINS_6MatrixIfLi3ELi1ELi0ELi3ELi1EEES3_NS0_9assign_opIffEEEEvRT_RKT0_RKT1_NS0_9enable_ifIXntsr5Eigen8internal25evaluator_assume_aliasingIS8_NS0_16evaluator_traitsIS8_E5ShapeEEE5valueEPvE4typeE)
                  0001655c    00000004     --HOLE-- [fill = 0]
                  00016560    0000001c     PathGenerator.obj (.text:_ZN5Eigen8internal4pmulIfEET_RKS2_S4_)
                  0001657c    00000004     --HOLE-- [fill = 0]
                  00016580    0000001c     FuzzyVar.obj (.text:_ZN5fuzzy16Fuzzy_Sets_GradeC1Ev)
                  0001659c    00000004     --HOLE-- [fill = 0]
                  000165a0    0000001c     Car.obj (.text:_ZNK5Eigen8internal17mapbase_evaluatorINS_3MapIKNS_6MatrixIfLi3ELi1ELi0ELi3ELi1EEELi0ENS_6StrideILi0ELi0EEEEES5_E5coeffEi)
                  000165bc    00000004     --HOLE-- [fill = 0]
                  000165c0    0000001c     Task.obj (.text:_ZNKSt3__215__bit_referenceINS_6vectorIbNS_9allocatorIbEEEELb1EEcvbEv)
                  000165dc    00000004     --HOLE-- [fill = 0]
                  000165e0    0000001c     PathGenerator.obj (.text:_ZNSt3__210__list_impIPN9pathTrack8PathPartENS_9allocatorIS3_EEEC1Ev)
                  000165fc    00000004     --HOLE-- [fill = 0]
                  00016600    0000001c     PathTrackSim.obj (.text:_ZNSt3__210__list_impIfNS_9allocatorIfEEEC1Ev)
                  0001661c    00000004     --HOLE-- [fill = 0]
                  00016620    0000001c     PathGenerator.obj (.text:_ZNSt3__210unique_ptrINS_11__list_nodeIPN9pathTrack8PathPartEPvEENS_22__allocator_destructorINS_9allocatorIS6_EEEEE7releaseEv)
                  0001663c    00000004     --HOLE-- [fill = 0]
                  00016640    0000001c     PathGenerator.obj (.text:_ZNSt3__210unique_ptrINS_11__list_nodeIPN9pathTrack8PathPartEPvEENS_22__allocator_destructorINS_9allocatorIS6_EEEEEC1ILb1EvEEPS6_NS_16__dependent_typeINS_27__unique_ptr_deleter_sfinaeISA_EEXT_EE20__good_rval_ref_typeE)
                  0001665c    00000004     --HOLE-- [fill = 0]
                  00016660    0000001c     PathTrackSim.obj (.text:_ZNSt3__210unique_ptrINS_11__list_nodeIfPvEENS_22__allocator_destructorINS_9allocatorIS3_EEEEE7releaseEv)
                  0001667c    00000004     --HOLE-- [fill = 0]
                  00016680    0000001c     PathTrackSim.obj (.text:_ZNSt3__210unique_ptrINS_11__list_nodeIfPvEENS_22__allocator_destructorINS_9allocatorIS3_EEEEEC1ILb1EvEEPS3_NS_16__dependent_typeINS_27__unique_ptr_deleter_sfinaeIS7_EEXT_EE20__good_rval_ref_typeE)
                  0001669c    00000004     --HOLE-- [fill = 0]
                  000166a0    0000001c     PathGenerator.obj (.text:_ZNSt3__214__bit_iteratorINS_6vectorIbNS_9allocatorIbEEEELb0ELj0EEC1EPjj)
                  000166bc    00000004     --HOLE-- [fill = 0]
                  000166c0    0000001c     Task.obj (.text:_ZNSt3__215__bit_referenceINS_6vectorIbNS_9allocatorIbEEEELb1EEC1EPjj)
                  000166dc    00000004     --HOLE-- [fill = 0]
                  000166e0    0000001c     PathGenerator.obj (.text:_ZNSt3__222__allocator_destructorINS_9allocatorINS_11__list_nodeIPN9pathTrack8PathPartEPvEEEEEC1ERS8_j)
                  000166fc    00000004     --HOLE-- [fill = 0]
                  00016700    0000001c     PathTrackSim.obj (.text:_ZNSt3__222__allocator_destructorINS_9allocatorINS_11__list_nodeIfPvEEEEEC1ERS5_j)
                  0001671c    00000004     --HOLE-- [fill = 0]
                  00016720    0000001c     PathGenerator.obj (.text:_ZNSt3__2eqERKNS_15__list_iteratorIPN9pathTrack8PathPartEPvEES7_)
                  0001673c    00000004     --HOLE-- [fill = 0]
                  00016740    0000001c     PathTrackSim.obj (.text:_ZNSt3__2eqERKNS_15__list_iteratorIfPvEES4_)
                  0001675c    00000004     --HOLE-- [fill = 0]
                  00016760    0000001c     PathTrackSim.obj (.text:_ZNSt3__2eqERKNS_21__list_const_iteratorIfPvEES4_)
                  0001677c    0000001c     rtsv7M4_T_le_v4SPD16_eabi.lib : assert.c.obj (.text:_abort_msg)
                  00016798    0000001c                                   : memory.c.obj (.text:free_list_remove)
                  000167b4    0000001c                                   : memccpy.c.obj (.text:memccpy)
                  000167d0    0000001a     Car.obj (.text:_ZN5Eigen6StrideILi0ELi0EEC1Ev)
                  000167ea    00000006     --HOLE-- [fill = 0]
                  000167f0    0000001a     PathGenerator.obj (.text:_ZN5Eigen8internal11blas_traitsINS_9TransposeINS_6MatrixIfLi2ELi1ELi0ELi2ELi1EEEEEE7extractERKS5_)
                  0001680a    00000006     --HOLE-- [fill = 0]
                  00016810    0000001a     PathGenerator.obj (.text:_ZN5Eigen8internal17abs2_impl_defaultIfLb0EE3runERKf)
                  0001682a    00000006     --HOLE-- [fill = 0]
                  00016830    0000001a     PathTrackSim.obj (.text:_ZNK5Eigen8internal15unary_evaluatorINS_12CwiseUnaryOpINS0_18scalar_opposite_opIfEEKNS_6MatrixIfLi2ELi1ELi0ELi2ELi1EEEEENS0_10IndexBasedEfE5coeffEi)
                  0001684a    00000006     --HOLE-- [fill = 0]
                  00016850    0000001a     PathGenerator.obj (.text:_ZNK5Eigen8internal22scalar_conj_product_opIffEclERKfS4_)
                  0001686a    0000001a     rtsv7M4_T_le_v4SPD16_eabi.lib : s_copysign.c.obj (.text:copysign)
                  00016884    00000018     msp432p4xx_driverlib.lib : systick.o (.text:SysTick_setPeriod)
                  0001689c    00000018                              : uart.o (.text:UART_getInterruptStatus)
                  000168b4    00000004     --HOLE-- [fill = 0]
                  000168b8    00000018     PIDController.obj (.text:_Z3powff)
                  000168d0    00000018     PathGenerator.obj (.text:_ZN5Eigen12CwiseUnaryOpINS_8internal14scalar_abs2_opIfEEKNS_6MatrixIfLi2ELi1ELi0ELi2ELi1EEEEC1ERS6_RKS3_)
                  000168e8    00000018     PathTrackSim.obj (.text:_ZN5Eigen12CwiseUnaryOpINS_8internal14scalar_abs2_opIfEEKNS_6MatrixIfLi3ELi1ELi0ELi3ELi1EEEEC1ERS6_RKS3_)
                  00016900    00000018     PathTrackSim.obj (.text:_ZN5Eigen12CwiseUnaryOpINS_8internal18scalar_opposite_opIfEEKNS_6MatrixIfLi2ELi1ELi0ELi2ELi1EEEEC1ERS6_RKS3_)
                  00016918    00000018     PathGenerator.obj (.text:_ZN5Eigen12DenseStorageIfLi2ELi2ELi1ELi0EEC1ERKS1_)
                  00016930    00000018     PathGenerator.obj (.text:_ZN5Eigen15PlainObjectBaseINS_6MatrixIfLi2ELi1ELi0ELi2ELi1EEEEC1ERKS3_)
                  00016948    00000018     PathGenerator.obj (.text:_ZN5Eigen15PlainObjectBaseINS_6MatrixIfLi2ELi2ELi0ELi2ELi2EEEEC1ERKS3_)
                  00016960    00000018     PathGenerator.obj (.text:_ZN5Eigen6MatrixIfLi2ELi1ELi0ELi2ELi1EEC1INS_13CwiseBinaryOpINS_8internal13scalar_sum_opIffEEKS1_KNS3_INS4_17scalar_product_opIffEEKNS_14CwiseNullaryOpINS4_18scalar_constant_opIfEES7_EEKNS3_INS4_20scalar_difference_opIffEES7_S7_EEEEEEEERKNS_9EigenBaseIT_EE)
                  00016978    00000018     PathGenerator.obj (.text:_ZN5Eigen6MatrixIfLi2ELi1ELi0ELi2ELi1EEC1INS_13CwiseBinaryOpINS_8internal13scalar_sum_opIffEEKS1_KNS3_INS4_17scalar_product_opIffEEKNS_14CwiseNullaryOpINS4_18scalar_constant_opIfEES7_EES7_EEEEEERKNS_9EigenBaseIT_EE)
                  00016990    00000018     PathGenerator.obj (.text:_ZN5Eigen6MatrixIfLi2ELi1ELi0ELi2ELi1EEC1INS_13CwiseBinaryOpINS_8internal20scalar_difference_opIffEEKS1_S7_EEEERKNS_9EigenBaseIT_EE)
                  000169a8    00000018     PathGenerator.obj (.text:_ZN5Eigen8internal15redux_evaluatorINS_12CwiseUnaryOpINS0_14scalar_abs2_opIfEEKNS_13CwiseBinaryOpINS0_20scalar_difference_opIffEEKNS_6MatrixIfLi2ELi1ELi0ELi2ELi1EEESA_EEEEEC1ERKSD_)
                  000169c0    00000018     PathGenerator.obj (.text:_ZN5Eigen8internal15redux_evaluatorINS_12CwiseUnaryOpINS0_14scalar_abs2_opIfEEKNS_6MatrixIfLi2ELi1ELi0ELi2ELi1EEEEEEC1ERKS8_)
                  000169d8    00000018     PathTrackSim.obj (.text:_ZN5Eigen8internal15redux_evaluatorINS_12CwiseUnaryOpINS0_14scalar_abs2_opIfEEKNS_6MatrixIfLi3ELi1ELi0ELi3ELi1EEEEEEC1ERKS8_)
                  000169f0    00000018     PathGenerator.obj (.text:_ZN5Eigen8internal15redux_evaluatorINS_13CwiseBinaryOpINS0_22scalar_conj_product_opIffEEKNS_6MatrixIfLi2ELi1ELi0ELi2ELi1EEES7_EEEC1ERKS8_)
                  00016a08    00000018     PathTrackSim.obj (.text:_ZN5Eigen8internal15redux_evaluatorINS_13CwiseBinaryOpINS0_22scalar_conj_product_opIffEEKNS_6MatrixIfLi3ELi1ELi0ELi3ELi1EEES7_EEEC1ERKS8_)
                  00016a20    00000018     CarSim.obj (.text:_ZN5Eigen8internal17mapbase_evaluatorINS_5BlockINS_6MatrixIfLi3ELi4ELi0ELi3ELi4EEELi3ELi1ELb1EEENS3_IfLi3ELi1ELi0ELi3ELi1EEEE8coeffRefEi)
                  00016a38    00000018     MembershipFuction.obj (.text:_ZN5fuzzy17MembershipFuctionC1Ev)
                  00016a50    00000018     CarSim.obj (.text:_ZNK5Eigen8internal15nullary_wrapperIfNS0_18scalar_constant_opIfEELb1ELb0ELb0EEclIiEEfRKS3_T_S8_)
                  00016a68    00000018     CarSim.obj (.text:_ZNK5Eigen8internal17mapbase_evaluatorINS_5BlockINS_6MatrixIfLi3ELi4ELi0ELi3ELi4EEELi3ELi1ELb1EEENS3_IfLi3ELi1ELi0ELi3ELi1EEEE5coeffEi)
                  00016a80    00000018     PathGenerator.obj (.text:_ZNSt3__222__compressed_pair_elemINS_22__allocator_destructorINS_9allocatorINS_11__list_nodeIPN9pathTrack8PathPartEPvEEEEEELi1ELb0EEC1ISA_vEEOT_)
                  00016a98    00000018     PathTrackSim.obj (.text:_ZNSt3__222__compressed_pair_elemINS_22__allocator_destructorINS_9allocatorINS_11__list_nodeIfPvEEEEEELi1ELb0EEC1IS7_vEEOT_)
                  00016ab0    00000018     rtsv7M4_T_le_v4SPD16_eabi.lib : sprintf.c.obj (.text:_outs)
                  00016ac8    00000018                                   : s_copysignf.c.obj (.text:copysignf)
                  00016ae0    00000018                                   : strcmp.c.obj (.text:strcmp)
                  00016af8    00000016     msp432p4xx_driverlib.lib : timer_a.o (.text:Timer_A_clearInterruptFlag)
                  00016b0e    00000016                              : timer_a.o (.text:Timer_A_startCounter)
                  00016b24    00000016                              : uart.o (.text:UART_enableModule)
                  00016b3a    00000006     --HOLE-- [fill = 0]
                  00016b40    00000016     PathGenerator.obj (.text:_ZN5Eigen8internal15unary_evaluatorINS_12CwiseUnaryOpINS0_14scalar_abs2_opIfEEKNS_13CwiseBinaryOpINS0_20scalar_difference_opIffEEKNS_6MatrixIfLi2ELi1ELi0ELi2ELi1EEESA_EEEENS0_10IndexBasedEfED1Ev)
                  00016b56    00000002     --HOLE-- [fill = 0]
                  00016b58    00000016     PathGenerator.obj (.text:_ZN5Eigen8internal15unary_evaluatorINS_12CwiseUnaryOpINS0_14scalar_abs2_opIfEEKNS_6MatrixIfLi2ELi1ELi0ELi2ELi1EEEEENS0_10IndexBasedEfED1Ev)
                  00016b6e    00000002     --HOLE-- [fill = 0]
                  00016b70    00000016     PathTrackSim.obj (.text:_ZN5Eigen8internal15unary_evaluatorINS_12CwiseUnaryOpINS0_14scalar_abs2_opIfEEKNS_6MatrixIfLi3ELi1ELi0ELi3ELi1EEEEENS0_10IndexBasedEfED1Ev)
                  00016b86    00000002     --HOLE-- [fill = 0]
                  00016b88    00000016     PathTrackSim.obj (.text:_ZN5Eigen8internal15unary_evaluatorINS_12CwiseUnaryOpINS0_18scalar_opposite_opIfEEKNS_6MatrixIfLi2ELi1ELi0ELi2ELi1EEEEENS0_10IndexBasedEfED1Ev)
                  00016b9e    00000002     --HOLE-- [fill = 0]
                  00016ba0    00000016     PathGenerator.obj (.text:_ZN5Eigen8internal15unary_evaluatorINS_9TransposeINS_6MatrixIfLi2ELi1ELi0ELi2ELi1EEEEENS0_10IndexBasedEfED1Ev)
                  00016bb6    00000002     --HOLE-- [fill = 0]
                  00016bb8    00000016     CarSim.obj (.text:_ZN5Eigen8internal18scalar_constant_opIfEC1ERKS2_)
                  00016bce    00000002     --HOLE-- [fill = 0]
                  00016bd0    00000016     CarSim.obj (.text:_ZN5Eigen8internal18scalar_constant_opIfEC1ERKf)
                  00016be6    00000002     --HOLE-- [fill = 0]
                  00016be8    00000016     PathGenerator.obj (.text:_ZN5Eigen8internal21extract_data_selectorINS_9TransposeINS_6MatrixIfLi2ELi1ELi0ELi2ELi1EEEEELb1EE3runERKS5_)
                  00016bfe    00000002     --HOLE-- [fill = 0]
                  00016c00    00000016     PathGenerator.obj (.text:_ZN5Eigen8internal9evaluatorINS_15PlainObjectBaseINS_6MatrixIfLi2ELi1ELi0ELi2ELi1EEEEEE8coeffRefEi)
                  00016c16    00000002     --HOLE-- [fill = 0]
                  00016c18    00000016     PathGenerator.obj (.text:_ZN5Eigen8internal9evaluatorINS_15PlainObjectBaseINS_6MatrixIfLi2ELi2ELi0ELi2ELi2EEEEEE8coeffRefEi)
                  00016c2e    00000002     --HOLE-- [fill = 0]
                  00016c30    00000016     Car.obj (.text:_ZN5Eigen8internal9evaluatorINS_15PlainObjectBaseINS_6MatrixIfLi3ELi1ELi0ELi3ELi1EEEEEE8coeffRefEi)
                  00016c46    00000002     --HOLE-- [fill = 0]
                  00016c48    00000016     CarSim.obj (.text:_ZN5Eigen9BlockImplINS_6MatrixIfLi3ELi4ELi0ELi3ELi4EEELi3ELi1ELb1ENS_5DenseEEC1ERS2_i)
                  00016c5e    00000002     --HOLE-- [fill = 0]
                  00016c60    00000016     PathGenerator.obj (.text:_ZN5Eigen9DenseBaseINS_6MatrixIfLi2ELi1ELi0ELi2ELi1EEEE9transposeEv)
                  00016c76    00000002     --HOLE-- [fill = 0]
                  00016c78    00000016     PathGenerator.obj (.text:_ZN5Eigen9TransposeIKNS_6MatrixIfLi2ELi1ELi0ELi2ELi1EEEEC1ERS3_)
                  00016c8e    00000002     --HOLE-- [fill = 0]
                  00016c90    00000016     PathGenerator.obj (.text:_ZN5Eigen9TransposeINS_6MatrixIfLi2ELi1ELi0ELi2ELi1EEEEC1ERS2_)
                  00016ca6    00000002     --HOLE-- [fill = 0]
                  00016ca8    00000016     PathGenerator.obj (.text:_ZNK5Eigen10MatrixBaseINS_13CwiseBinaryOpINS_8internal20scalar_difference_opIffEEKNS_6MatrixIfLi2ELi1ELi0ELi2ELi1EEES7_EEE4normEv)
                  00016cbe    00000002     --HOLE-- [fill = 0]
                  00016cc0    00000016     PathGenerator.obj (.text:_ZNK5Eigen10MatrixBaseINS_6MatrixIfLi2ELi1ELi0ELi2ELi1EEEE4normEv)
                  00016cd6    00000002     --HOLE-- [fill = 0]
                  00016cd8    00000016     PathTrackSim.obj (.text:_ZNK5Eigen10MatrixBaseINS_6MatrixIfLi3ELi1ELi0ELi3ELi1EEEE4normEv)
                  00016cee    00000002     --HOLE-- [fill = 0]
                  00016cf0    00000016     PathGenerator.obj (.text:_ZNK5Eigen8internal15unary_evaluatorINS_9TransposeINS_6MatrixIfLi2ELi1ELi0ELi2ELi1EEEEENS0_10IndexBasedEfE5coeffEii)
                  00016d06    00000002     --HOLE-- [fill = 0]
                  00016d08    00000016     PathTrackSim.obj (.text:_ZNK5Eigen8internal18scalar_opposite_opIfEclERKf)
                  00016d1e    00000002     --HOLE-- [fill = 0]
                  00016d20    00000016     Car.obj (.text:_ZNK5Eigen8internal9assign_opIffE11assignCoeffERfRKf)
                  00016d36    00000002     --HOLE-- [fill = 0]
                  00016d38    00000016     PathGenerator.obj (.text:_ZNK5Eigen8internal9evaluatorINS_14CwiseNullaryOpINS0_18scalar_constant_opIfEEKNS_6MatrixIfLi2ELi1ELi0ELi2ELi1EEEEEE5coeffIiEEfT_)
                  00016d4e    00000002     --HOLE-- [fill = 0]
                  00016d50    00000016     CarSim.obj (.text:_ZNK5Eigen8internal9evaluatorINS_14CwiseNullaryOpINS0_18scalar_constant_opIfEEKNS_6MatrixIfLi3ELi1ELi0ELi3ELi1EEEEEE5coeffIiEEfT_)
                  00016d66    00000002     --HOLE-- [fill = 0]
                  00016d68    00000016     PathGenerator.obj (.text:_ZNK5Eigen8internal9evaluatorINS_14CwiseNullaryOpINS0_18scalar_constant_opIfEENS_6MatrixIfLi2ELi1ELi0ELi2ELi1EEEEEE5coeffIiEEfT_)
                  00016d7e    00000002     --HOLE-- [fill = 0]
                  00016d80    00000016     PathGenerator.obj (.text:_ZNK5Eigen8internal9evaluatorINS_15PlainObjectBaseINS_6MatrixIfLi2ELi1ELi0ELi2ELi1EEEEEE5coeffEi)
                  00016d96    00000002     --HOLE-- [fill = 0]
                  00016d98    00000016     PathGenerator.obj (.text:_ZNK5Eigen8internal9evaluatorINS_15PlainObjectBaseINS_6MatrixIfLi2ELi2ELi0ELi2ELi2EEEEEE5coeffEi)
                  00016dae    00000002     --HOLE-- [fill = 0]
                  00016db0    00000016     Car.obj (.text:_ZNK5Eigen8internal9evaluatorINS_15PlainObjectBaseINS_6MatrixIfLi3ELi1ELi0ELi3ELi1EEEEEE5coeffEi)
                  00016dc6    00000002     --HOLE-- [fill = 0]
                  00016dc8    00000016     PathGenerator.obj (.text:_ZNK5Eigen9EigenBaseINS_6MatrixIfLi2ELi1ELi0ELi2ELi1EEEE4sizeEv)
                  00016dde    00000002     --HOLE-- [fill = 0]
                  00016de0    00000016     Task.obj (.text:_ZNK5Eigen9EigenBaseINS_6MatrixIfLi3ELi1ELi0ELi3ELi1EEEE4sizeEv)
                  00016df6    00000002     --HOLE-- [fill = 0]
                  00016df8    00000016     PathGenerator.obj (.text:_ZNKSt3__213__vector_baseItNS_9allocatorItEEE8capacityEv)
                  00016e0e    00000002     --HOLE-- [fill = 0]
                  00016e10    00000016     PathGenerator.obj (.text:_ZNKSt3__214__split_bufferItRNS_9allocatorItEEE8capacityEv)
                  00016e26    00000002     --HOLE-- [fill = 0]
                  00016e28    00000016     Task.obj (.text:_ZNKSt3__26vectorItNS_9allocatorItEEE4sizeEv)
                  00016e3e    00000002     --HOLE-- [fill = 0]
                  00016e40    00000016     PathGenerator.obj (.text:_ZNSt3__210__list_impIPN9pathTrack8PathPartENS_9allocatorIS3_EEE3endEv)
                  00016e56    00000002     --HOLE-- [fill = 0]
                  00016e58    00000016     PathTrackSim.obj (.text:_ZNSt3__210__list_impIfNS_9allocatorIfEEE3endEv)
                  00016e6e    00000002     --HOLE-- [fill = 0]
                  00016e70    00000016     PathGenerator.obj (.text:_ZNSt3__215__list_iteratorIPN9pathTrack8PathPartEPvEppEv)
                  00016e86    00000002     --HOLE-- [fill = 0]
                  00016e88    00000016     PathTrackSim.obj (.text:_ZNSt3__215__list_iteratorIfPvEppEv)
                  00016e9e    00000002     --HOLE-- [fill = 0]
                  00016ea0    00000016     PathTrackSim.obj (.text:_ZNSt3__221__list_const_iteratorIfPvEC1ERKNS_15__list_iteratorIfS1_EE)
                  00016eb6    00000002     --HOLE-- [fill = 0]
                  00016eb8    00000016     PathTrackSim.obj (.text:_ZNSt3__221__list_const_iteratorIfPvEppEv)
                  00016ece    00000002     --HOLE-- [fill = 0]
                  00016ed0    00000016     PathGenerator.obj (.text:_ZNSt3__222__allocator_destructorINS_9allocatorINS_11__list_nodeIPN9pathTrack8PathPartEPvEEEEEclEPS7_)
                  00016ee6    00000002     --HOLE-- [fill = 0]
                  00016ee8    00000016     PathTrackSim.obj (.text:_ZNSt3__222__allocator_destructorINS_9allocatorINS_11__list_nodeIfPvEEEEEclEPS4_)
                  00016efe    00000002     --HOLE-- [fill = 0]
                  00016f00    00000016     PathGenerator.obj (.text:_ZNSt3__222__compressed_pair_elemIPNS_11__list_nodeIPN9pathTrack8PathPartEPvEELi0ELb0EEC1IRS7_vEEOT_)
                  00016f16    00000002     --HOLE-- [fill = 0]
                  00016f18    00000016     PathTrackSim.obj (.text:_ZNSt3__222__compressed_pair_elemIPNS_11__list_nodeIfPvEELi0ELb0EEC1IRS4_vEEOT_)
                  00016f2e    00000002     --HOLE-- [fill = 0]
                  00016f30    00000016     PathGenerator.obj (.text:_ZNSt3__222__compressed_pair_elemIPtLi0ELb0EEC1IDnvEEOT_)
                  00016f46    00000002     --HOLE-- [fill = 0]
                  00016f48    00000016     PathGenerator.obj (.text:_ZNSt3__222__compressed_pair_elemIjLi0ELb0EEC1IivEEOT_)
                  00016f5e    00000002     --HOLE-- [fill = 0]
                  00016f60    00000016     Task.obj (.text:_ZNSt3__26vectorItNS_9allocatorItEEEixEj)
                  00016f76    00000016     rtsv7M4_T_le_v4SPD16_eabi.lib : strchr.c.obj (.text:strchr)
                  00016f8c    00000014     msp432p4xx_driverlib.lib : pcm.o (.text:PCM_getPowerState)
                  00016fa0    00000014     PIDController.obj (.text:_Z3absf)
                  00016fb4    00000004     --HOLE-- [fill = 0]
                  00016fb8    00000014     PathTrackSim.obj (.text:_Z4fabsf)
                  00016fcc    00000004     --HOLE-- [fill = 0]
                  00016fd0    00000014     main.obj (.text:_ZN18ESOSpeedControllerD0Ev)
                  00016fe4    00000004     --HOLE-- [fill = 0]
                  00016fe8    00000014     main.obj (.text:_ZN18PIDSpeedControllerD0Ev)
                  00016ffc    00000004     --HOLE-- [fill = 0]
                  00017000    00000014     main.obj (.text:_ZN21PIDDistanceControllerD0Ev)
                  00017014    00000004     --HOLE-- [fill = 0]
                  00017018    00000014     Car.obj (.text:_ZN22PIDPathTrackControllerD0Ev)
                  0001702c    00000004     --HOLE-- [fill = 0]
                  00017030    00000014     main.obj (.text:_ZN23PIDParkAdjustControllerD0Ev)
                  00017044    00000004     --HOLE-- [fill = 0]
                  00017048    00000014     PathGenerator.obj (.text:_ZN5Eigen12DenseStorageIfLi4ELi2ELi2ELi0EEC1ERKS1_)
                  0001705c    00000004     --HOLE-- [fill = 0]
                  00017060    00000014     PathGenerator.obj (.text:_ZN5Eigen13TransposeImplIKNS_6MatrixIfLi2ELi1ELi0ELi2ELi1EEENS_5DenseEE4dataEv)
                  00017074    00000004     --HOLE-- [fill = 0]
                  00017078    00000014     Task.obj (.text:_ZN5Eigen15PlainObjectBaseINS_6MatrixIfLi2ELi1ELi0ELi2ELi1EEEEC1Ev)
                  0001708c    00000004     --HOLE-- [fill = 0]
                  00017090    00000014     PathGenerator.obj (.text:_ZN5Eigen15PlainObjectBaseINS_6MatrixIfLi2ELi2ELi0ELi2ELi2EEEEC1Ev)
                  000170a4    00000004     --HOLE-- [fill = 0]
                  000170a8    00000014     Car.obj (.text:_ZN5Eigen15PlainObjectBaseINS_6MatrixIfLi3ELi1ELi0ELi3ELi1EEEEC1Ev)
                  000170bc    00000004     --HOLE-- [fill = 0]
                  000170c0    00000014     CarSim.obj (.text:_ZN5Eigen15PlainObjectBaseINS_6MatrixIfLi3ELi4ELi0ELi3ELi4EEEEC1Ev)
                  000170d4    00000004     --HOLE-- [fill = 0]
                  000170d8    00000014     CarSim.obj (.text:_ZN5Eigen8internal15BlockImpl_denseINS_6MatrixIfLi3ELi4ELi0ELi3ELi4EEELi3ELi1ELb1ELb1EEC2ERS3_i)
                  000170ec    00000004     --HOLE-- [fill = 0]
                  000170f0    00000014     PathGenerator.obj (.text:_ZN5Eigen8internal15call_assignmentINS_5BlockINS_6MatrixIfLi2ELi2ELi0ELi2ELi2EEELin1ELin1ELb0EEENS3_IfLi2ELi1ELi0ELi2ELi1EEEEEvRT_RKT0_)
                  00017104    00000004     --HOLE-- [fill = 0]
                  00017108    00000014     PathGenerator.obj (.text:_ZN5Eigen8internal15call_assignmentINS_5BlockINS_6MatrixIfLi2ELi2ELi0ELi2ELi2EEELin1ELin1ELb0EEENS_9TransposeINS3_IfLi2ELi1ELi0ELi2ELi1EEEEEEEvRT_RKT0_)
                  0001711c    00000004     --HOLE-- [fill = 0]
                  00017120    00000014     CarSim.obj (.text:_ZN5Eigen8internal15call_assignmentINS_5BlockINS_6MatrixIfLi3ELi4ELi0ELi3ELi4EEELi3ELi1ELb1EEENS3_IfLi3ELi1ELi0ELi3ELi1EEEEEvRT_RKT0_)
                  00017134    00000004     --HOLE-- [fill = 0]
                  00017138    00000014     PathTrackSim.obj (.text:_ZN5Eigen8internal15call_assignmentINS_6MatrixIfLi2ELi1ELi0ELi2ELi1EEENS_12CwiseUnaryOpINS0_18scalar_opposite_opIfEEKS3_EEEEvRT_RKT0_)
                  0001714c    00000004     --HOLE-- [fill = 0]
                  00017150    00000014     PathGenerator.obj (.text:_ZN5Eigen8internal15call_assignmentINS_6MatrixIfLi2ELi1ELi0ELi2ELi1EEENS_13CwiseBinaryOpINS0_13scalar_sum_opIffEEKS3_KNS4_INS0_17scalar_product_opIffEEKNS_14CwiseNullaryOpINS0_18scalar_constant_opIfEES7_EES7_EEEEEEvRT_RKT0_)
                  00017164    00000004     --HOLE-- [fill = 0]
                  00017168    00000014     PathGenerator.obj (.text:_ZN5Eigen8internal15call_assignmentINS_6MatrixIfLi2ELi1ELi0ELi2ELi1EEENS_13CwiseBinaryOpINS0_13scalar_sum_opIffEEKS3_S7_EEEEvRT_RKT0_)
                  0001717c    00000004     --HOLE-- [fill = 0]
                  00017180    00000014     PathGenerator.obj (.text:_ZN5Eigen8internal15call_assignmentINS_6MatrixIfLi2ELi2ELi0ELi2ELi2EEES3_EEvRT_RKT0_)
                  00017194    00000004     --HOLE-- [fill = 0]
                  00017198    00000014     PathTrackSim.obj (.text:_ZN5Eigen8internal15call_assignmentINS_6MatrixIfLi3ELi1ELi0ELi3ELi1EEENS_13CwiseBinaryOpINS0_13scalar_sum_opIffEEKNS4_INS0_17scalar_product_opIffEEKNS_14CwiseNullaryOpINS0_18scalar_constant_opIfEEKS3_EESC_EESG_EEEEvRT_RKT0_)
                  000171ac    00000004     --HOLE-- [fill = 0]
                  000171b0    00000014     CarSim.obj (.text:_ZN5Eigen8internal15call_assignmentINS_6MatrixIfLi3ELi1ELi0ELi3ELi1EEENS_13CwiseBinaryOpINS0_13scalar_sum_opIffEEKS3_KNS4_INS0_17scalar_product_opIffEEKNS_14CwiseNullaryOpINS0_18scalar_constant_opIfEES7_EEKNS4_IS6_KNS4_IS6_KNS4_IS6_KNS_5BlockINS2_IfLi3ELi4ELi0ELi3ELi4EEELi3ELi1ELb1EEEKNS4_IS9_SE_SI_EEEESK_EESI_EEEEEEEEvRT_RKT0_)
                  000171c4    00000004     --HOLE-- [fill = 0]
                  000171c8    00000014     Car.obj (.text:_ZN5Eigen8internal15call_assignmentINS_6MatrixIfLi3ELi1ELi0ELi3ELi1EEES3_EEvRT_RKT0_)
                  000171dc    00000004     --HOLE-- [fill = 0]
                  000171e0    00000014     PathGenerator.obj (.text:_ZN5Eigen8internal16matrix_swap_implINS_6MatrixIfLi2ELi1ELi0ELi2ELi1EEES3_Lb0EE3runERS3_S5_)
                  000171f4    00000004     --HOLE-- [fill = 0]
                  000171f8    00000014     CarSim.obj (.text:_ZN5Eigen8internal19variable_if_dynamicIiLin1EEC1Ei)
                  0001720c    00000004     --HOLE-- [fill = 0]
                  00017210    00000014     PathTrackSim.obj (.text:_ZN5Eigen8internal21handmade_aligned_freeEPv)
                  00017224    00000004     --HOLE-- [fill = 0]
                  00017228    00000014     CarSim.obj (.text:_ZN5Eigen8internal54copy_using_evaluator_LinearTraversal_CompleteUnrollingINS0_31generic_dense_assignment_kernelINS0_9evaluatorINS_5BlockINS_6MatrixIfLi3ELi4ELi0ELi3ELi4EEELi3ELi1ELb1EEEEENS3_INS5_IfLi3ELi1ELi0ELi3ELi1EEEEENS0_9assign_opIffEELi0EEELi0ELi3EE3runERSD_)
                  0001723c    00000004     --HOLE-- [fill = 0]
                  00017240    00000014     CarSim.obj (.text:_ZN5Eigen8internal54copy_using_evaluator_LinearTraversal_CompleteUnrollingINS0_31generic_dense_assignment_kernelINS0_9evaluatorINS_5BlockINS_6MatrixIfLi3ELi4ELi0ELi3ELi4EEELi3ELi1ELb1EEEEENS3_INS5_IfLi3ELi1ELi0ELi3ELi1EEEEENS0_9assign_opIffEELi0EEELi1ELi3EE3runERSD_)
                  00017254    00000004     --HOLE-- [fill = 0]
                  00017258    00000014     CarSim.obj (.text:_ZN5Eigen8internal54copy_using_evaluator_LinearTraversal_CompleteUnrollingINS0_31generic_dense_assignment_kernelINS0_9evaluatorINS_5BlockINS_6MatrixIfLi3ELi4ELi0ELi3ELi4EEELi3ELi1ELb1EEEEENS3_INS5_IfLi3ELi1ELi0ELi3ELi1EEEEENS0_9assign_opIffEELi0EEELi2ELi3EE3runERSD_)
                  0001726c    00000004     --HOLE-- [fill = 0]
                  00017270    00000014     PathTrackSim.obj (.text:_ZN5Eigen8internal54copy_using_evaluator_LinearTraversal_CompleteUnrollingINS0_31generic_dense_assignment_kernelINS0_9evaluatorINS_6MatrixIfLi2ELi1ELi0ELi2ELi1EEEEENS3_INS_12CwiseUnaryOpINS0_18scalar_opposite_opIfEEKS5_EEEENS0_9assign_opIffEELi0EEELi0ELi2EE3runERSF_)
                  00017284    00000004     --HOLE-- [fill = 0]
                  00017288    00000014     PathTrackSim.obj (.text:_ZN5Eigen8internal54copy_using_evaluator_LinearTraversal_CompleteUnrollingINS0_31generic_dense_assignment_kernelINS0_9evaluatorINS_6MatrixIfLi2ELi1ELi0ELi2ELi1EEEEENS3_INS_12CwiseUnaryOpINS0_18scalar_opposite_opIfEEKS5_EEEENS0_9assign_opIffEELi0EEELi1ELi2EE3runERSF_)
                  0001729c    00000004     --HOLE-- [fill = 0]
                  000172a0    00000014     PathGenerator.obj (.text:_ZN5Eigen8internal54copy_using_evaluator_LinearTraversal_CompleteUnrollingINS0_31generic_dense_assignment_kernelINS0_9evaluatorINS_6MatrixIfLi2ELi1ELi0ELi2ELi1EEEEENS3_INS_13CwiseBinaryOpINS0_13scalar_sum_opIffEEKS5_KNS7_INS0_17scalar_product_opIffEEKNS_14CwiseNullaryOpINS0_18scalar_constant_opIfEESA_EEKNS7_INS0_20scalar_difference_opIffEESA_SA_EEEEEEEENS0_9assign_opIffEELi0EEELi0ELi2EE3runERSS_)
                  000172b4    00000004     --HOLE-- [fill = 0]
                  000172b8    00000014     PathGenerator.obj (.text:_ZN5Eigen8internal54copy_using_evaluator_LinearTraversal_CompleteUnrollingINS0_31generic_dense_assignment_kernelINS0_9evaluatorINS_6MatrixIfLi2ELi1ELi0ELi2ELi1EEEEENS3_INS_13CwiseBinaryOpINS0_13scalar_sum_opIffEEKS5_KNS7_INS0_17scalar_product_opIffEEKNS_14CwiseNullaryOpINS0_18scalar_constant_opIfEESA_EEKNS7_INS0_20scalar_difference_opIffEESA_SA_EEEEEEEENS0_9assign_opIffEELi0EEELi1ELi2EE3runERSS_)
                  000172cc    00000004     --HOLE-- [fill = 0]
                  000172d0    00000014     PathGenerator.obj (.text:_ZN5Eigen8internal54copy_using_evaluator_LinearTraversal_CompleteUnrollingINS0_31generic_dense_assignment_kernelINS0_9evaluatorINS_6MatrixIfLi2ELi1ELi0ELi2ELi1EEEEENS3_INS_13CwiseBinaryOpINS0_13scalar_sum_opIffEEKS5_KNS7_INS0_17scalar_product_opIffEEKNS_14CwiseNullaryOpINS0_18scalar_constant_opIfEESA_EESA_EEEEEENS0_9assign_opIffEELi0EEELi0ELi2EE3runERSO_)
                  000172e4    00000004     --HOLE-- [fill = 0]
                  000172e8    00000014     PathGenerator.obj (.text:_ZN5Eigen8internal54copy_using_evaluator_LinearTraversal_CompleteUnrollingINS0_31generic_dense_assignment_kernelINS0_9evaluatorINS_6MatrixIfLi2ELi1ELi0ELi2ELi1EEEEENS3_INS_13CwiseBinaryOpINS0_13scalar_sum_opIffEEKS5_KNS7_INS0_17scalar_product_opIffEEKNS_14CwiseNullaryOpINS0_18scalar_constant_opIfEESA_EESA_EEEEEENS0_9assign_opIffEELi0EEELi1ELi2EE3runERSO_)
                  000172fc    00000004     --HOLE-- [fill = 0]
                  00017300    00000014     PathGenerator.obj (.text:_ZN5Eigen8internal54copy_using_evaluator_LinearTraversal_CompleteUnrollingINS0_31generic_dense_assignment_kernelINS0_9evaluatorINS_6MatrixIfLi2ELi1ELi0ELi2ELi1EEEEENS3_INS_13CwiseBinaryOpINS0_13scalar_sum_opIffEEKS5_SA_EEEENS0_9assign_opIffEELi0EEELi0ELi2EE3runERSF_)
                  00017314    00000004     --HOLE-- [fill = 0]
                  00017318    00000014     PathGenerator.obj (.text:_ZN5Eigen8internal54copy_using_evaluator_LinearTraversal_CompleteUnrollingINS0_31generic_dense_assignment_kernelINS0_9evaluatorINS_6MatrixIfLi2ELi1ELi0ELi2ELi1EEEEENS3_INS_13CwiseBinaryOpINS0_13scalar_sum_opIffEEKS5_SA_EEEENS0_9assign_opIffEELi0EEELi1ELi2EE3runERSF_)
                  0001732c    00000004     --HOLE-- [fill = 0]
                  00017330    00000014     PathGenerator.obj (.text:_ZN5Eigen8internal54copy_using_evaluator_LinearTraversal_CompleteUnrollingINS0_31generic_dense_assignment_kernelINS0_9evaluatorINS_6MatrixIfLi2ELi1ELi0ELi2ELi1EEEEENS3_INS_13CwiseBinaryOpINS0_20scalar_difference_opIffEEKS5_SA_EEEENS0_9assign_opIffEELi0EEELi0ELi2EE3runERSF_)
                  00017344    00000004     --HOLE-- [fill = 0]
                  00017348    00000014     PathGenerator.obj (.text:_ZN5Eigen8internal54copy_using_evaluator_LinearTraversal_CompleteUnrollingINS0_31generic_dense_assignment_kernelINS0_9evaluatorINS_6MatrixIfLi2ELi1ELi0ELi2ELi1EEEEENS3_INS_13CwiseBinaryOpINS0_20scalar_difference_opIffEEKS5_SA_EEEENS0_9assign_opIffEELi0EEELi1ELi2EE3runERSF_)
                  0001735c    00000004     --HOLE-- [fill = 0]
                  00017360    00000014     PathGenerator.obj (.text:_ZN5Eigen8internal54copy_using_evaluator_LinearTraversal_CompleteUnrollingINS0_31generic_dense_assignment_kernelINS0_9evaluatorINS_6MatrixIfLi2ELi1ELi0ELi2ELi1EEEEENS3_INS_14CwiseNullaryOpINS0_18scalar_constant_opIfEES5_EEEENS0_13mul_assign_opIffEELi0EEELi0ELi2EE3runERSE_)
                  00017374    00000004     --HOLE-- [fill = 0]
                  00017378    00000014     PathGenerator.obj (.text:_ZN5Eigen8internal54copy_using_evaluator_LinearTraversal_CompleteUnrollingINS0_31generic_dense_assignment_kernelINS0_9evaluatorINS_6MatrixIfLi2ELi1ELi0ELi2ELi1EEEEENS3_INS_14CwiseNullaryOpINS0_18scalar_constant_opIfEES5_EEEENS0_13mul_assign_opIffEELi0EEELi1ELi2EE3runERSE_)
                  0001738c    00000004     --HOLE-- [fill = 0]
                  00017390    00000014     PathGenerator.obj (.text:_ZN5Eigen8internal54copy_using_evaluator_LinearTraversal_CompleteUnrollingINS0_31generic_dense_assignment_kernelINS0_9evaluatorINS_6MatrixIfLi2ELi1ELi0ELi2ELi1EEEEES6_NS0_14swap_assign_opIfEELi0EEELi0ELi2EE3runERS9_)
                  000173a4    00000004     --HOLE-- [fill = 0]
                  000173a8    00000014     PathGenerator.obj (.text:_ZN5Eigen8internal54copy_using_evaluator_LinearTraversal_CompleteUnrollingINS0_31generic_dense_assignment_kernelINS0_9evaluatorINS_6MatrixIfLi2ELi1ELi0ELi2ELi1EEEEES6_NS0_14swap_assign_opIfEELi0EEELi1ELi2EE3runERS9_)
                  000173bc    00000004     --HOLE-- [fill = 0]
                  000173c0    00000014     PathGenerator.obj (.text:_ZN5Eigen8internal54copy_using_evaluator_LinearTraversal_CompleteUnrollingINS0_31generic_dense_assignment_kernelINS0_9evaluatorINS_6MatrixIfLi2ELi2ELi0ELi2ELi2EEEEES6_NS0_9assign_opIffEELi0EEELi0ELi4EE3runERS9_)
                  000173d4    00000004     --HOLE-- [fill = 0]
                  000173d8    00000014     PathGenerator.obj (.text:_ZN5Eigen8internal54copy_using_evaluator_LinearTraversal_CompleteUnrollingINS0_31generic_dense_assignment_kernelINS0_9evaluatorINS_6MatrixIfLi2ELi2ELi0ELi2ELi2EEEEES6_NS0_9assign_opIffEELi0EEELi1ELi4EE3runERS9_)
                  000173ec    00000004     --HOLE-- [fill = 0]
                  000173f0    00000014     PathGenerator.obj (.text:_ZN5Eigen8internal54copy_using_evaluator_LinearTraversal_CompleteUnrollingINS0_31generic_dense_assignment_kernelINS0_9evaluatorINS_6MatrixIfLi2ELi2ELi0ELi2ELi2EEEEES6_NS0_9assign_opIffEELi0EEELi2ELi4EE3runERS9_)
                  00017404    00000004     --HOLE-- [fill = 0]
                  00017408    00000014     PathGenerator.obj (.text:_ZN5Eigen8internal54copy_using_evaluator_LinearTraversal_CompleteUnrollingINS0_31generic_dense_assignment_kernelINS0_9evaluatorINS_6MatrixIfLi2ELi2ELi0ELi2ELi2EEEEES6_NS0_9assign_opIffEELi0EEELi3ELi4EE3runERS9_)
                  0001741c    00000004     --HOLE-- [fill = 0]
                  00017420    00000014     PathTrackSim.obj (.text:_ZN5Eigen8internal54copy_using_evaluator_LinearTraversal_CompleteUnrollingINS0_31generic_dense_assignment_kernelINS0_9evaluatorINS_6MatrixIfLi3ELi1ELi0ELi3ELi1EEEEENS3_INS_13CwiseBinaryOpINS0_13scalar_sum_opIffEEKNS7_INS0_17scalar_product_opIffEEKNS_14CwiseNullaryOpINS0_18scalar_constant_opIfEEKS5_EESF_EESJ_EEEENS0_9assign_opIffEELi0EEELi0ELi3EE3runERSO_)
                  00017434    00000004     --HOLE-- [fill = 0]
                  00017438    00000014     PathTrackSim.obj (.text:_ZN5Eigen8internal54copy_using_evaluator_LinearTraversal_CompleteUnrollingINS0_31generic_dense_assignment_kernelINS0_9evaluatorINS_6MatrixIfLi3ELi1ELi0ELi3ELi1EEEEENS3_INS_13CwiseBinaryOpINS0_13scalar_sum_opIffEEKNS7_INS0_17scalar_product_opIffEEKNS_14CwiseNullaryOpINS0_18scalar_constant_opIfEEKS5_EESF_EESJ_EEEENS0_9assign_opIffEELi0EEELi1ELi3EE3runERSO_)
                  0001744c    00000004     --HOLE-- [fill = 0]
                  00017450    00000014     PathTrackSim.obj (.text:_ZN5Eigen8internal54copy_using_evaluator_LinearTraversal_CompleteUnrollingINS0_31generic_dense_assignment_kernelINS0_9evaluatorINS_6MatrixIfLi3ELi1ELi0ELi3ELi1EEEEENS3_INS_13CwiseBinaryOpINS0_13scalar_sum_opIffEEKNS7_INS0_17scalar_product_opIffEEKNS_14CwiseNullaryOpINS0_18scalar_constant_opIfEEKS5_EESF_EESJ_EEEENS0_9assign_opIffEELi0EEELi2ELi3EE3runERSO_)
                  00017464    00000004     --HOLE-- [fill = 0]
                  00017468    00000014     CarSim.obj (.text:_ZN5Eigen8internal54copy_using_evaluator_LinearTraversal_CompleteUnrollingINS0_31generic_dense_assignment_kernelINS0_9evaluatorINS_6MatrixIfLi3ELi1ELi0ELi3ELi1EEEEENS3_INS_13CwiseBinaryOpINS0_13scalar_sum_opIffEEKS5_KNS7_INS0_17scalar_product_opIffEEKNS_14CwiseNullaryOpINS0_18scalar_constant_opIfEESA_EEKNS7_IS9_KNS7_IS9_KNS7_IS9_KNS_5BlockINS4_IfLi3ELi4ELi0ELi3ELi4EEELi3ELi1ELb1EEEKNS7_ISC_SH_SL_EEEESN_EESL_EEEEEEEENS0_9assign_opIffEELi0EEELi0ELi3EE3runERS10_)
                  0001747c    00000004     --HOLE-- [fill = 0]
                  00017480    00000014     CarSim.obj (.text:_ZN5Eigen8internal54copy_using_evaluator_LinearTraversal_CompleteUnrollingINS0_31generic_dense_assignment_kernelINS0_9evaluatorINS_6MatrixIfLi3ELi1ELi0ELi3ELi1EEEEENS3_INS_13CwiseBinaryOpINS0_13scalar_sum_opIffEEKS5_KNS7_INS0_17scalar_product_opIffEEKNS_14CwiseNullaryOpINS0_18scalar_constant_opIfEESA_EEKNS7_IS9_KNS7_IS9_KNS7_IS9_KNS_5BlockINS4_IfLi3ELi4ELi0ELi3ELi4EEELi3ELi1ELb1EEEKNS7_ISC_SH_SL_EEEESN_EESL_EEEEEEEENS0_9assign_opIffEELi0EEELi1ELi3EE3runERS10_)
                  00017494    00000004     --HOLE-- [fill = 0]
                  00017498    00000014     CarSim.obj (.text:_ZN5Eigen8internal54copy_using_evaluator_LinearTraversal_CompleteUnrollingINS0_31generic_dense_assignment_kernelINS0_9evaluatorINS_6MatrixIfLi3ELi1ELi0ELi3ELi1EEEEENS3_INS_13CwiseBinaryOpINS0_13scalar_sum_opIffEEKS5_KNS7_INS0_17scalar_product_opIffEEKNS_14CwiseNullaryOpINS0_18scalar_constant_opIfEESA_EEKNS7_IS9_KNS7_IS9_KNS7_IS9_KNS_5BlockINS4_IfLi3ELi4ELi0ELi3ELi4EEELi3ELi1ELb1EEEKNS7_ISC_SH_SL_EEEESN_EESL_EEEEEEEENS0_9assign_opIffEELi0EEELi2ELi3EE3runERS10_)
                  000174ac    00000004     --HOLE-- [fill = 0]
                  000174b0    00000014     PathTrackSim.obj (.text:_ZN5Eigen8internal54copy_using_evaluator_LinearTraversal_CompleteUnrollingINS0_31generic_dense_assignment_kernelINS0_9evaluatorINS_6MatrixIfLi3ELi1ELi0ELi3ELi1EEEEENS3_INS_13CwiseBinaryOpINS0_17scalar_product_opIffEEKNS_14CwiseNullaryOpINS0_18scalar_constant_opIfEEKS5_EEKNS7_INS0_13scalar_sum_opIffEEKNS7_ISH_KNS7_ISH_KNS_5BlockINS4_IfLi3ELi4ELi0ELi3ELi4EEELi3ELi1ELb1EEEKNS7_IS9_SF_SL_EEEESN_EESL_EEEEEENS0_13add_assign_opIffEELi0EEELi0ELi3EE3runERSY_)
                  000174c4    00000004     --HOLE-- [fill = 0]
                  000174c8    00000014     PathTrackSim.obj (.text:_ZN5Eigen8internal54copy_using_evaluator_LinearTraversal_CompleteUnrollingINS0_31generic_dense_assignment_kernelINS0_9evaluatorINS_6MatrixIfLi3ELi1ELi0ELi3ELi1EEEEENS3_INS_13CwiseBinaryOpINS0_17scalar_product_opIffEEKNS_14CwiseNullaryOpINS0_18scalar_constant_opIfEEKS5_EEKNS7_INS0_13scalar_sum_opIffEEKNS7_ISH_KNS7_ISH_KNS_5BlockINS4_IfLi3ELi4ELi0ELi3ELi4EEELi3ELi1ELb1EEEKNS7_IS9_SF_SL_EEEESN_EESL_EEEEEENS0_13add_assign_opIffEELi0EEELi1ELi3EE3runERSY_)
                  000174dc    00000004     --HOLE-- [fill = 0]
                  000174e0    00000014     PathTrackSim.obj (.text:_ZN5Eigen8internal54copy_using_evaluator_LinearTraversal_CompleteUnrollingINS0_31generic_dense_assignment_kernelINS0_9evaluatorINS_6MatrixIfLi3ELi1ELi0ELi3ELi1EEEEENS3_INS_13CwiseBinaryOpINS0_17scalar_product_opIffEEKNS_14CwiseNullaryOpINS0_18scalar_constant_opIfEEKS5_EEKNS7_INS0_13scalar_sum_opIffEEKNS7_ISH_KNS7_ISH_KNS_5BlockINS4_IfLi3ELi4ELi0ELi3ELi4EEELi3ELi1ELb1EEEKNS7_IS9_SF_SL_EEEESN_EESL_EEEEEENS0_13add_assign_opIffEELi0EEELi2ELi3EE3runERSY_)
                  000174f4    00000004     --HOLE-- [fill = 0]
                  000174f8    00000014     PathTrackSim.obj (.text:_ZN5Eigen8internal54copy_using_evaluator_LinearTraversal_CompleteUnrollingINS0_31generic_dense_assignment_kernelINS0_9evaluatorINS_6MatrixIfLi3ELi1ELi0ELi3ELi1EEEEENS3_INS_13CwiseBinaryOpINS0_17scalar_product_opIffEEKNS_14CwiseNullaryOpINS0_18scalar_constant_opIfEEKS5_EESD_EEEENS0_13add_assign_opIffEELi0EEELi0ELi3EE3runERSK_)
                  0001750c    00000004     --HOLE-- [fill = 0]
                  00017510    00000014     PathTrackSim.obj (.text:_ZN5Eigen8internal54copy_using_evaluator_LinearTraversal_CompleteUnrollingINS0_31generic_dense_assignment_kernelINS0_9evaluatorINS_6MatrixIfLi3ELi1ELi0ELi3ELi1EEEEENS3_INS_13CwiseBinaryOpINS0_17scalar_product_opIffEEKNS_14CwiseNullaryOpINS0_18scalar_constant_opIfEEKS5_EESD_EEEENS0_13add_assign_opIffEELi0EEELi1ELi3EE3runERSK_)
                  00017524    00000004     --HOLE-- [fill = 0]
                  00017528    00000014     PathTrackSim.obj (.text:_ZN5Eigen8internal54copy_using_evaluator_LinearTraversal_CompleteUnrollingINS0_31generic_dense_assignment_kernelINS0_9evaluatorINS_6MatrixIfLi3ELi1ELi0ELi3ELi1EEEEENS3_INS_13CwiseBinaryOpINS0_17scalar_product_opIffEEKNS_14CwiseNullaryOpINS0_18scalar_constant_opIfEEKS5_EESD_EEEENS0_13add_assign_opIffEELi0EEELi2ELi3EE3runERSK_)
                  0001753c    00000004     --HOLE-- [fill = 0]
                  00017540    00000014     Car.obj (.text:_ZN5Eigen8internal54copy_using_evaluator_LinearTraversal_CompleteUnrollingINS0_31generic_dense_assignment_kernelINS0_9evaluatorINS_6MatrixIfLi3ELi1ELi0ELi3ELi1EEEEENS3_INS_3MapIKS5_Li0ENS_6StrideILi0ELi0EEEEEEENS0_9assign_opIffEELi0EEELi0ELi3EE3runERSF_)
                  00017554    00000004     --HOLE-- [fill = 0]
                  00017558    00000014     Car.obj (.text:_ZN5Eigen8internal54copy_using_evaluator_LinearTraversal_CompleteUnrollingINS0_31generic_dense_assignment_kernelINS0_9evaluatorINS_6MatrixIfLi3ELi1ELi0ELi3ELi1EEEEENS3_INS_3MapIKS5_Li0ENS_6StrideILi0ELi0EEEEEEENS0_9assign_opIffEELi0EEELi1ELi3EE3runERSF_)
                  0001756c    00000004     --HOLE-- [fill = 0]
                  00017570    00000014     Car.obj (.text:_ZN5Eigen8internal54copy_using_evaluator_LinearTraversal_CompleteUnrollingINS0_31generic_dense_assignment_kernelINS0_9evaluatorINS_6MatrixIfLi3ELi1ELi0ELi3ELi1EEEEENS3_INS_3MapIKS5_Li0ENS_6StrideILi0ELi0EEEEEEENS0_9assign_opIffEELi0EEELi2ELi3EE3runERSF_)
                  00017584    00000004     --HOLE-- [fill = 0]
                  00017588    00000014     Car.obj (.text:_ZN5Eigen8internal54copy_using_evaluator_LinearTraversal_CompleteUnrollingINS0_31generic_dense_assignment_kernelINS0_9evaluatorINS_6MatrixIfLi3ELi1ELi0ELi3ELi1EEEEES6_NS0_9assign_opIffEELi0EEELi0ELi3EE3runERS9_)
                  0001759c    00000004     --HOLE-- [fill = 0]
                  000175a0    00000014     Car.obj (.text:_ZN5Eigen8internal54copy_using_evaluator_LinearTraversal_CompleteUnrollingINS0_31generic_dense_assignment_kernelINS0_9evaluatorINS_6MatrixIfLi3ELi1ELi0ELi3ELi1EEEEES6_NS0_9assign_opIffEELi0EEELi1ELi3EE3runERS9_)
                  000175b4    00000004     --HOLE-- [fill = 0]
                  000175b8    00000014     Car.obj (.text:_ZN5Eigen8internal54copy_using_evaluator_LinearTraversal_CompleteUnrollingINS0_31generic_dense_assignment_kernelINS0_9evaluatorINS_6MatrixIfLi3ELi1ELi0ELi3ELi1EEEEES6_NS0_9assign_opIffEELi0EEELi2ELi3EE3runERS9_)
                  000175cc    00000004     --HOLE-- [fill = 0]
                  000175d0    00000014     CarSim.obj (.text:_ZN5Eigen9BlockImplINS_6MatrixIfLi3ELi4ELi0ELi3ELi4EEELi3ELi1ELb1ENS_5DenseEEC2ERS2_i)
                  000175e4    00000004     --HOLE-- [fill = 0]
                  000175e8    00000014     CarFuzzy.obj (.text:_ZN5fuzzy22Fuzzy3InputsControllerD0Ev)
                  000175fc    00000004     --HOLE-- [fill = 0]
                  00017600    00000014     Car.obj (.text:_ZN7carTask16PathTrackSimTaskD0Ev)
                  00017614    00000004     --HOLE-- [fill = 0]
                  00017618    00000014     PathTrackSim.obj (.text:_ZNK5Eigen15PlainObjectBaseINS_6MatrixIfLi3ELi1ELi0ELi3ELi1EEEE5coeffEi)
                  0001762c    00000004     --HOLE-- [fill = 0]
                  00017630    00000014     PathGenerator.obj (.text:_ZNK5Eigen8internal15redux_evaluatorINS_12CwiseUnaryOpINS0_14scalar_abs2_opIfEEKNS_13CwiseBinaryOpINS0_20scalar_difference_opIffEEKNS_6MatrixIfLi2ELi1ELi0ELi2ELi1EEESA_EEEEE17coeffByOuterInnerEii)
                  00017644    00000004     --HOLE-- [fill = 0]
                  00017648    00000014     PathGenerator.obj (.text:_ZNK5Eigen8internal15redux_evaluatorINS_12CwiseUnaryOpINS0_14scalar_abs2_opIfEEKNS_6MatrixIfLi2ELi1ELi0ELi2ELi1EEEEEE17coeffByOuterInnerEii)
                  0001765c    00000004     --HOLE-- [fill = 0]
                  00017660    00000014     PathTrackSim.obj (.text:_ZNK5Eigen8internal15redux_evaluatorINS_12CwiseUnaryOpINS0_14scalar_abs2_opIfEEKNS_6MatrixIfLi3ELi1ELi0ELi3ELi1EEEEEE17coeffByOuterInnerEii)
                  00017674    00000004     --HOLE-- [fill = 0]
                  00017678    00000014     PathGenerator.obj (.text:_ZNK5Eigen8internal15redux_evaluatorINS_13CwiseBinaryOpINS0_22scalar_conj_product_opIffEEKNS_6MatrixIfLi2ELi1ELi0ELi2ELi1EEES7_EEE17coeffByOuterInnerEii)
                  0001768c    00000004     --HOLE-- [fill = 0]
                  00017690    00000014     PathTrackSim.obj (.text:_ZNK5Eigen8internal15redux_evaluatorINS_13CwiseBinaryOpINS0_22scalar_conj_product_opIffEEKNS_6MatrixIfLi3ELi1ELi0ELi3ELi1EEES7_EEE17coeffByOuterInnerEii)
                  000176a4    00000004     --HOLE-- [fill = 0]
                  000176a8    00000014     PathGenerator.obj (.text:_ZNK5Eigen9DenseBaseINS_12CwiseUnaryOpINS_8internal14scalar_abs2_opIfEEKNS_13CwiseBinaryOpINS2_20scalar_difference_opIffEEKNS_6MatrixIfLi2ELi1ELi0ELi2ELi1EEESA_EEEEE3sumEv)
                  000176bc    00000004     --HOLE-- [fill = 0]
                  000176c0    00000014     PathGenerator.obj (.text:_ZNK5Eigen9DenseBaseINS_12CwiseUnaryOpINS_8internal14scalar_abs2_opIfEEKNS_6MatrixIfLi2ELi1ELi0ELi2ELi1EEEEEE3sumEv)
                  000176d4    00000004     --HOLE-- [fill = 0]
                  000176d8    00000014     PathTrackSim.obj (.text:_ZNK5Eigen9DenseBaseINS_12CwiseUnaryOpINS_8internal14scalar_abs2_opIfEEKNS_6MatrixIfLi3ELi1ELi0ELi3ELi1EEEEEE3sumEv)
                  000176ec    00000004     --HOLE-- [fill = 0]
                  000176f0    00000014     PathGenerator.obj (.text:_ZNK5Eigen9DenseBaseINS_13CwiseBinaryOpINS_8internal22scalar_conj_product_opIffEEKNS_6MatrixIfLi2ELi1ELi0ELi2ELi1EEES7_EEE3sumEv)
                  00017704    00000004     --HOLE-- [fill = 0]
                  00017708    00000014     PathTrackSim.obj (.text:_ZNK5Eigen9DenseBaseINS_13CwiseBinaryOpINS_8internal22scalar_conj_product_opIffEEKNS_6MatrixIfLi3ELi1ELi0ELi3ELi1EEES7_EEE3sumEv)
                  0001771c    00000004     --HOLE-- [fill = 0]
                  00017720    00000014     PathGenerator.obj (.text:_ZNKSt3__210__list_impIPN9pathTrack8PathPartENS_9allocatorIS3_EEE5emptyEv)
                  00017734    00000004     --HOLE-- [fill = 0]
                  00017738    00000014     PathTrackSim.obj (.text:_ZNKSt3__210__list_impIfNS_9allocatorIfEEE5emptyEv)
                  0001774c    00000004     --HOLE-- [fill = 0]
                  00017750    00000014     PathGenerator.obj (.text:_ZNSt3__210__distanceINS_14__bit_iteratorINS_6vectorIbNS_9allocatorIbEEEELb0ELj0EEEEENS_15iterator_traitsIT_E15difference_typeES8_S8_NS_26random_access_iterator_tagE)
                  00017764    00000004     --HOLE-- [fill = 0]
                  00017768    00000014     PathGenerator.obj (.text:_ZNSt3__214__split_bufferItRNS_9allocatorItEEE17__destruct_at_endEPt)
                  0001777c    00000004     --HOLE-- [fill = 0]
                  00017780    00000014     PathGenerator.obj (.text:_ZNSt3__215__list_iteratorIPN9pathTrack8PathPartEPvEC1EPNS_16__list_node_baseIS3_S4_EE)
                  00017794    00000004     --HOLE-- [fill = 0]
                  00017798    00000014     PathTrackSim.obj (.text:_ZNSt3__215__list_iteratorIfPvEC1EPNS_16__list_node_baseIfS1_EE)
                  000177ac    00000004     --HOLE-- [fill = 0]
                  000177b0    00000014     PathGenerator.obj (.text:_ZNSt3__216allocator_traitsINS_9allocatorINS_11__list_nodeIPN9pathTrack8PathPartEPvEEEEE10deallocateERS8_PS7_j)
                  000177c4    00000004     --HOLE-- [fill = 0]
                  000177c8    00000014     PathGenerator.obj (.text:_ZNSt3__216allocator_traitsINS_9allocatorINS_11__list_nodeIPN9pathTrack8PathPartEPvEEEEE7destroyIS5_EEvRS8_PT_)
                  000177dc    00000004     --HOLE-- [fill = 0]
                  000177e0    00000014     PathTrackSim.obj (.text:_ZNSt3__216allocator_traitsINS_9allocatorINS_11__list_nodeIfPvEEEEE10deallocateERS5_PS4_j)
                  000177f4    00000004     --HOLE-- [fill = 0]
                  000177f8    00000014     PathTrackSim.obj (.text:_ZNSt3__216allocator_traitsINS_9allocatorINS_11__list_nodeIfPvEEEEE7destroyIfEEvRS5_PT_)
                  0001780c    00000004     --HOLE-- [fill = 0]
                  00017810    00000014     PathGenerator.obj (.text:_ZNSt3__216allocator_traitsINS_9allocatorIjEEE10deallocateERS2_Pjj)
                  00017824    00000004     --HOLE-- [fill = 0]
                  00017828    00000014     PathGenerator.obj (.text:_ZNSt3__216allocator_traitsINS_9allocatorItEEE10deallocateERS2_Ptj)
                  0001783c    00000004     --HOLE-- [fill = 0]
                  00017840    00000014     PathGenerator.obj (.text:_ZNSt3__216allocator_traitsINS_9allocatorItEEE7destroyItEEvRS2_PT_)
                  00017854    00000004     --HOLE-- [fill = 0]
                  00017858    00000014     PathGenerator.obj (.text:_ZNSt3__216allocator_traitsINS_9allocatorItEEE9__destroyItEEvNS_17integral_constantIbLb1EEERS2_PT_)
                  0001786c    00000004     --HOLE-- [fill = 0]
                  00017870    00000014     PathGenerator.obj (.text:_ZNSt3__222__compressed_pair_elemIRNS_9allocatorItEELi1ELb0EEC1IS3_vEEOT_)
                  00017884    00000004     --HOLE-- [fill = 0]
                  00017888    00000014     PathGenerator.obj (.text:_ZNSt3__23maxIjEERKT_S3_S3_)
                  0001789c    00000004     --HOLE-- [fill = 0]
                  000178a0    00000014     PathGenerator.obj (.text:_ZNSt3__23minIiEERKT_S3_S3_)
                  000178b4    00000004     --HOLE-- [fill = 0]
                  000178b8    00000014     PathGenerator.obj (.text:_ZNSt3__23minIjEERKT_S3_S3_)
                  000178cc    00000004     --HOLE-- [fill = 0]
                  000178d0    00000014     PathGenerator.obj (.text:_ZNSt3__26vectorIbNS_9allocatorIbEEE3endEv)
                  000178e4    00000014     rtsv7M4_T_le_v4SPD16_eabi.lib : strcpy.c.obj (.text:strcpy)
                  000178f8    00000014                                   : strlen.c.obj (.text:strlen)
                  0001790c    00000004     --HOLE-- [fill = 0]
                  00017910    00000012     PathGenerator.obj (.text:_ZN5Eigen6MatrixIfLi2ELi1ELi0ELi2ELi1EEC1ERKS1_)
                  00017922    00000006     --HOLE-- [fill = 0]
                  00017928    00000012     Task.obj (.text:_ZN5Eigen6MatrixIfLi2ELi1ELi0ELi2ELi1EEC1Ev)
                  0001793a    00000006     --HOLE-- [fill = 0]
                  00017940    00000012     PathGenerator.obj (.text:_ZN5Eigen6MatrixIfLi2ELi1ELi0ELi2ELi1EEaSEOS1_)
                  00017952    00000006     --HOLE-- [fill = 0]
                  00017958    00000012     PathGenerator.obj (.text:_ZN5Eigen6MatrixIfLi2ELi2ELi0ELi2ELi2EEC1ERKS1_)
                  0001796a    00000006     --HOLE-- [fill = 0]
                  00017970    00000012     PathGenerator.obj (.text:_ZN5Eigen6MatrixIfLi2ELi2ELi0ELi2ELi2EEC1Ev)
                  00017982    00000006     --HOLE-- [fill = 0]
                  00017988    00000012     Car.obj (.text:_ZN5Eigen6MatrixIfLi3ELi1ELi0ELi3ELi1EEC1Ev)
                  0001799a    00000006     --HOLE-- [fill = 0]
                  000179a0    00000012     CarSim.obj (.text:_ZN5Eigen6MatrixIfLi3ELi4ELi0ELi3ELi4EEC1Ev)
                  000179b2    00000006     --HOLE-- [fill = 0]
                  000179b8    00000012     PathGenerator.obj (.text:_ZN5Eigen8internal15BlockImpl_denseINS_6MatrixIfLi2ELi2ELi0ELi2ELi2EEELin1ELin1ELb0ELb1EE4initEv)
                  000179ca    00000006     --HOLE-- [fill = 0]
                  000179d0    00000012     CarSim.obj (.text:_ZN5Eigen8internal15BlockImpl_denseINS_6MatrixIfLi3ELi4ELi0ELi3ELi4EEELi3ELi1ELb1ELb1EE4initEv)
                  000179e2    00000006     --HOLE-- [fill = 0]
                  000179e8    00000012     PathGenerator.obj (.text:_ZN5Eigen8internal20redux_novec_unrollerINS0_13scalar_sum_opIffEENS0_15redux_evaluatorINS_12CwiseUnaryOpINS0_14scalar_abs2_opIfEEKNS_13CwiseBinaryOpINS0_20scalar_difference_opIffEEKNS_6MatrixIfLi2ELi1ELi0ELi2ELi1EEESD_EEEEEELi0ELi1EE3runERKSH_RKS3_)
                  000179fa    00000006     --HOLE-- [fill = 0]
                  00017a00    00000012     PathGenerator.obj (.text:_ZN5Eigen8internal20redux_novec_unrollerINS0_13scalar_sum_opIffEENS0_15redux_evaluatorINS_12CwiseUnaryOpINS0_14scalar_abs2_opIfEEKNS_13CwiseBinaryOpINS0_20scalar_difference_opIffEEKNS_6MatrixIfLi2ELi1ELi0ELi2ELi1EEESD_EEEEEELi1ELi1EE3runERKSH_RKS3_)
                  00017a12    00000006     --HOLE-- [fill = 0]
                  00017a18    00000012     PathGenerator.obj (.text:_ZN5Eigen8internal20redux_novec_unrollerINS0_13scalar_sum_opIffEENS0_15redux_evaluatorINS_12CwiseUnaryOpINS0_14scalar_abs2_opIfEEKNS_6MatrixIfLi2ELi1ELi0ELi2ELi1EEEEEEELi0ELi1EE3runERKSC_RKS3_)
                  00017a2a    00000006     --HOLE-- [fill = 0]
                  00017a30    00000012     PathGenerator.obj (.text:_ZN5Eigen8internal20redux_novec_unrollerINS0_13scalar_sum_opIffEENS0_15redux_evaluatorINS_12CwiseUnaryOpINS0_14scalar_abs2_opIfEEKNS_6MatrixIfLi2ELi1ELi0ELi2ELi1EEEEEEELi1ELi1EE3runERKSC_RKS3_)
                  00017a42    00000006     --HOLE-- [fill = 0]
                  00017a48    00000012     PathTrackSim.obj (.text:_ZN5Eigen8internal20redux_novec_unrollerINS0_13scalar_sum_opIffEENS0_15redux_evaluatorINS_12CwiseUnaryOpINS0_14scalar_abs2_opIfEEKNS_6MatrixIfLi3ELi1ELi0ELi3ELi1EEEEEEELi0ELi1EE3runERKSC_RKS3_)
                  00017a5a    00000006     --HOLE-- [fill = 0]
                  00017a60    00000012     PathTrackSim.obj (.text:_ZN5Eigen8internal20redux_novec_unrollerINS0_13scalar_sum_opIffEENS0_15redux_evaluatorINS_12CwiseUnaryOpINS0_14scalar_abs2_opIfEEKNS_6MatrixIfLi3ELi1ELi0ELi3ELi1EEEEEEELi1ELi1EE3runERKSC_RKS3_)
                  00017a72    00000006     --HOLE-- [fill = 0]
                  00017a78    00000012     PathTrackSim.obj (.text:_ZN5Eigen8internal20redux_novec_unrollerINS0_13scalar_sum_opIffEENS0_15redux_evaluatorINS_12CwiseUnaryOpINS0_14scalar_abs2_opIfEEKNS_6MatrixIfLi3ELi1ELi0ELi3ELi1EEEEEEELi2ELi1EE3runERKSC_RKS3_)
                  00017a8a    00000006     --HOLE-- [fill = 0]
                  00017a90    00000012     PathGenerator.obj (.text:_ZN5Eigen8internal20redux_novec_unrollerINS0_13scalar_sum_opIffEENS0_15redux_evaluatorINS_13CwiseBinaryOpINS0_22scalar_conj_product_opIffEEKNS_6MatrixIfLi2ELi1ELi0ELi2ELi1EEESA_EEEELi0ELi1EE3runERKSC_RKS3_)
                  00017aa2    00000006     --HOLE-- [fill = 0]
                  00017aa8    00000012     PathGenerator.obj (.text:_ZN5Eigen8internal20redux_novec_unrollerINS0_13scalar_sum_opIffEENS0_15redux_evaluatorINS_13CwiseBinaryOpINS0_22scalar_conj_product_opIffEEKNS_6MatrixIfLi2ELi1ELi0ELi2ELi1EEESA_EEEELi1ELi1EE3runERKSC_RKS3_)
                  00017aba    00000006     --HOLE-- [fill = 0]
                  00017ac0    00000012     PathTrackSim.obj (.text:_ZN5Eigen8internal20redux_novec_unrollerINS0_13scalar_sum_opIffEENS0_15redux_evaluatorINS_13CwiseBinaryOpINS0_22scalar_conj_product_opIffEEKNS_6MatrixIfLi3ELi1ELi0ELi3ELi1EEESA_EEEELi0ELi1EE3runERKSC_RKS3_)
                  00017ad2    00000006     --HOLE-- [fill = 0]
                  00017ad8    00000012     PathTrackSim.obj (.text:_ZN5Eigen8internal20redux_novec_unrollerINS0_13scalar_sum_opIffEENS0_15redux_evaluatorINS_13CwiseBinaryOpINS0_22scalar_conj_product_opIffEEKNS_6MatrixIfLi3ELi1ELi0ELi3ELi1EEESA_EEEELi1ELi1EE3runERKSC_RKS3_)
                  00017aea    00000006     --HOLE-- [fill = 0]
                  00017af0    00000012     PathTrackSim.obj (.text:_ZN5Eigen8internal20redux_novec_unrollerINS0_13scalar_sum_opIffEENS0_15redux_evaluatorINS_13CwiseBinaryOpINS0_22scalar_conj_product_opIffEEKNS_6MatrixIfLi3ELi1ELi0ELi3ELi1EEESA_EEEELi2ELi1EE3runERKSC_RKS3_)
                  00017b02    00000006     --HOLE-- [fill = 0]
                  00017b08    00000012     CarSim.obj (.text:_ZN5Eigen8internal9evaluatorIKNS_13CwiseBinaryOpINS0_13scalar_sum_opIffEEKNS2_IS4_KNS2_IS4_KNS_5BlockINS_6MatrixIfLi3ELi4ELi0ELi3ELi4EEELi3ELi1ELb1EEEKNS2_INS0_17scalar_product_opIffEEKNS_14CwiseNullaryOpINS0_18scalar_constant_opIfEEKNS6_IfLi3ELi1ELi0ELi3ELi1EEEEES9_EEEESK_EES9_EEEC1ERSQ_)
                  00017b1a    00000006     --HOLE-- [fill = 0]
                  00017b20    00000012     CarSim.obj (.text:_ZN5Eigen8internal9evaluatorIKNS_13CwiseBinaryOpINS0_13scalar_sum_opIffEEKNS2_IS4_KNS_5BlockINS_6MatrixIfLi3ELi4ELi0ELi3ELi4EEELi3ELi1ELb1EEEKNS2_INS0_17scalar_product_opIffEEKNS_14CwiseNullaryOpINS0_18scalar_constant_opIfEEKNS6_IfLi3ELi1ELi0ELi3ELi1EEEEES9_EEEESK_EEEC1ERSO_)
                  00017b32    00000006     --HOLE-- [fill = 0]
                  00017b38    00000012     CarSim.obj (.text:_ZN5Eigen8internal9evaluatorIKNS_13CwiseBinaryOpINS0_13scalar_sum_opIffEEKNS_5BlockINS_6MatrixIfLi3ELi4ELi0ELi3ELi4EEELi3ELi1ELb1EEEKNS2_INS0_17scalar_product_opIffEEKNS_14CwiseNullaryOpINS0_18scalar_constant_opIfEEKNS6_IfLi3ELi1ELi0ELi3ELi1EEEEES9_EEEEEC1ERSM_)
                  00017b4a    00000006     --HOLE-- [fill = 0]
                  00017b50    00000012     PathGenerator.obj (.text:_ZN5Eigen8internal9evaluatorIKNS_13CwiseBinaryOpINS0_17scalar_product_opIffEEKNS_14CwiseNullaryOpINS0_18scalar_constant_opIfEEKNS_6MatrixIfLi2ELi1ELi0ELi2ELi1EEEEEKNS2_INS0_20scalar_difference_opIffEESA_SA_EEEEEC1ERSI_)
                  00017b62    00000006     --HOLE-- [fill = 0]
                  00017b68    00000012     PathGenerator.obj (.text:_ZN5Eigen8internal9evaluatorIKNS_13CwiseBinaryOpINS0_17scalar_product_opIffEEKNS_14CwiseNullaryOpINS0_18scalar_constant_opIfEEKNS_6MatrixIfLi2ELi1ELi0ELi2ELi1EEEEESA_EEEC1ERSE_)
                  00017b7a    00000006     --HOLE-- [fill = 0]
                  00017b80    00000012     CarSim.obj (.text:_ZN5Eigen8internal9evaluatorIKNS_13CwiseBinaryOpINS0_17scalar_product_opIffEEKNS_14CwiseNullaryOpINS0_18scalar_constant_opIfEEKNS_6MatrixIfLi3ELi1ELi0ELi3ELi1EEEEEKNS2_INS0_13scalar_sum_opIffEEKNS2_ISE_KNS2_ISE_KNS_5BlockINS8_IfLi3ELi4ELi0ELi3ELi4EEELi3ELi1ELb1EEEKNS2_IS4_SC_SI_EEEESK_EESI_EEEEEC1ERSS_)
                  00017b92    00000006     --HOLE-- [fill = 0]
                  00017b98    00000012     CarSim.obj (.text:_ZN5Eigen8internal9evaluatorIKNS_13CwiseBinaryOpINS0_17scalar_product_opIffEEKNS_14CwiseNullaryOpINS0_18scalar_constant_opIfEEKNS_6MatrixIfLi3ELi1ELi0ELi3ELi1EEEEEKNS_5BlockINS8_IfLi3ELi4ELi0ELi3ELi4EEELi3ELi1ELb1EEEEEEC1ERSI_)
                  00017baa    00000006     --HOLE-- [fill = 0]
                  00017bb0    00000012     PathTrackSim.obj (.text:_ZN5Eigen8internal9evaluatorIKNS_13CwiseBinaryOpINS0_17scalar_product_opIffEEKNS_14CwiseNullaryOpINS0_18scalar_constant_opIfEEKNS_6MatrixIfLi3ELi1ELi0ELi3ELi1EEEEESA_EEEC1ERSE_)
                  00017bc2    00000006     --HOLE-- [fill = 0]
                  00017bc8    00000012     PathGenerator.obj (.text:_ZN5Eigen8internal9evaluatorIKNS_13CwiseBinaryOpINS0_20scalar_difference_opIffEEKNS_6MatrixIfLi2ELi1ELi0ELi2ELi1EEES7_EEEC1ERS9_)
                  00017bda    00000006     --HOLE-- [fill = 0]
                  00017be0    00000012     PathGenerator.obj (.text:_ZN5Eigen8internal9evaluatorIKNS_14CwiseNullaryOpINS0_18scalar_constant_opIfEEKNS_6MatrixIfLi2ELi1ELi0ELi2ELi1EEEEEEC1ERS9_)
                  00017bf2    00000006     --HOLE-- [fill = 0]
                  00017bf8    00000012     CarSim.obj (.text:_ZN5Eigen8internal9evaluatorIKNS_14CwiseNullaryOpINS0_18scalar_constant_opIfEEKNS_6MatrixIfLi3ELi1ELi0ELi3ELi1EEEEEEC1ERS9_)
                  00017c0a    00000006     --HOLE-- [fill = 0]
                  00017c10    00000012     CarSim.obj (.text:_ZN5Eigen8internal9evaluatorIKNS_5BlockINS_6MatrixIfLi3ELi4ELi0ELi3ELi4EEELi3ELi1ELb1EEEEC1ERS6_)
                  00017c22    00000006     --HOLE-- [fill = 0]
                  00017c28    00000012     PathGenerator.obj (.text:_ZN5Eigen8internal9evaluatorIKNS_6MatrixIfLi2ELi1ELi0ELi2ELi1EEEEC1ERS4_)
                  00017c3a    00000006     --HOLE-- [fill = 0]
                  00017c40    00000012     CarSim.obj (.text:_ZN5Eigen8internal9evaluatorIKNS_6MatrixIfLi3ELi1ELi0ELi3ELi1EEEEC1ERS4_)
                  00017c52    00000006     --HOLE-- [fill = 0]
                  00017c58    00000012     PathGenerator.obj (.text:_ZN5Eigen8internal9evaluatorINS_12CwiseUnaryOpINS0_14scalar_abs2_opIfEEKNS_13CwiseBinaryOpINS0_20scalar_difference_opIffEEKNS_6MatrixIfLi2ELi1ELi0ELi2ELi1EEESA_EEEEEC1ERKSD_)
                  00017c6a    00000006     --HOLE-- [fill = 0]
                  00017c70    00000012     PathGenerator.obj (.text:_ZN5Eigen8internal9evaluatorINS_12CwiseUnaryOpINS0_14scalar_abs2_opIfEEKNS_6MatrixIfLi2ELi1ELi0ELi2ELi1EEEEEEC1ERKS8_)
                  00017c82    00000006     --HOLE-- [fill = 0]
                  00017c88    00000012     PathTrackSim.obj (.text:_ZN5Eigen8internal9evaluatorINS_12CwiseUnaryOpINS0_14scalar_abs2_opIfEEKNS_6MatrixIfLi3ELi1ELi0ELi3ELi1EEEEEEC1ERKS8_)
                  00017c9a    00000006     --HOLE-- [fill = 0]
                  00017ca0    00000012     PathTrackSim.obj (.text:_ZN5Eigen8internal9evaluatorINS_12CwiseUnaryOpINS0_18scalar_opposite_opIfEEKNS_6MatrixIfLi2ELi1ELi0ELi2ELi1EEEEEEC1ERKS8_)
                  00017cb2    00000006     --HOLE-- [fill = 0]
                  00017cb8    00000012     PathTrackSim.obj (.text:_ZN5Eigen8internal9evaluatorINS_13CwiseBinaryOpINS0_13scalar_sum_opIffEEKNS2_INS0_17scalar_product_opIffEEKNS_14CwiseNullaryOpINS0_18scalar_constant_opIfEEKNS_6MatrixIfLi3ELi1ELi0ELi3ELi1EEEEESC_EESG_EEEC1ERKSH_)
                  00017cca    00000006     --HOLE-- [fill = 0]
                  00017cd0    00000012     CarSim.obj (.text:_ZN5Eigen8internal9evaluatorINS_13CwiseBinaryOpINS0_13scalar_sum_opIffEEKNS2_IS4_KNS2_IS4_KNS_5BlockINS_6MatrixIfLi3ELi4ELi0ELi3ELi4EEELi3ELi1ELb1EEEKNS2_INS0_17scalar_product_opIffEEKNS_14CwiseNullaryOpINS0_18scalar_constant_opIfEEKNS6_IfLi3ELi1ELi0ELi3ELi1EEEEES9_EEEESK_EES9_EEEC1ERKSP_)
                  00017ce2    00000006     --HOLE-- [fill = 0]
                  00017ce8    00000012     CarSim.obj (.text:_ZN5Eigen8internal9evaluatorINS_13CwiseBinaryOpINS0_13scalar_sum_opIffEEKNS2_IS4_KNS_5BlockINS_6MatrixIfLi3ELi4ELi0ELi3ELi4EEELi3ELi1ELb1EEEKNS2_INS0_17scalar_product_opIffEEKNS_14CwiseNullaryOpINS0_18scalar_constant_opIfEEKNS6_IfLi3ELi1ELi0ELi3ELi1EEEEES9_EEEESK_EEEC1ERKSN_)
                  00017cfa    00000006     --HOLE-- [fill = 0]
                  00017d00    00000012     CarSim.obj (.text:_ZN5Eigen8internal9evaluatorINS_13CwiseBinaryOpINS0_13scalar_sum_opIffEEKNS_5BlockINS_6MatrixIfLi3ELi4ELi0ELi3ELi4EEELi3ELi1ELb1EEEKNS2_INS0_17scalar_product_opIffEEKNS_14CwiseNullaryOpINS0_18scalar_constant_opIfEEKNS6_IfLi3ELi1ELi0ELi3ELi1EEEEES9_EEEEEC1ERKSL_)
                  00017d12    00000006     --HOLE-- [fill = 0]
                  00017d18    00000012     PathGenerator.obj (.text:_ZN5Eigen8internal9evaluatorINS_13CwiseBinaryOpINS0_13scalar_sum_opIffEEKNS_6MatrixIfLi2ELi1ELi0ELi2ELi1EEEKNS2_INS0_17scalar_product_opIffEEKNS_14CwiseNullaryOpINS0_18scalar_constant_opIfEES7_EEKNS2_INS0_20scalar_difference_opIffEES7_S7_EEEEEEEC1ERKSL_)
                  00017d2a    00000006     --HOLE-- [fill = 0]
                  00017d30    00000012     PathGenerator.obj (.text:_ZN5Eigen8internal9evaluatorINS_13CwiseBinaryOpINS0_13scalar_sum_opIffEEKNS_6MatrixIfLi2ELi1ELi0ELi2ELi1EEEKNS2_INS0_17scalar_product_opIffEEKNS_14CwiseNullaryOpINS0_18scalar_constant_opIfEES7_EES7_EEEEEC1ERKSH_)
                  00017d42    00000006     --HOLE-- [fill = 0]
                  00017d48    00000012     PathGenerator.obj (.text:_ZN5Eigen8internal9evaluatorINS_13CwiseBinaryOpINS0_13scalar_sum_opIffEEKNS_6MatrixIfLi2ELi1ELi0ELi2ELi1EEES7_EEEC1ERKS8_)
                  00017d5a    00000006     --HOLE-- [fill = 0]
                  00017d60    00000012     CarSim.obj (.text:_ZN5Eigen8internal9evaluatorINS_13CwiseBinaryOpINS0_13scalar_sum_opIffEEKNS_6MatrixIfLi3ELi1ELi0ELi3ELi1EEEKNS2_INS0_17scalar_product_opIffEEKNS_14CwiseNullaryOpINS0_18scalar_constant_opIfEES7_EEKNS2_IS4_KNS2_IS4_KNS2_IS4_KNS_5BlockINS5_IfLi3ELi4ELi0ELi3ELi4EEELi3ELi1ELb1EEEKNS2_IS9_SE_SI_EEEESK_EESI_EEEEEEEC1ERKST_)
                  00017d72    00000006     --HOLE-- [fill = 0]
                  00017d78    00000012     PathGenerator.obj (.text:_ZN5Eigen8internal9evaluatorINS_13CwiseBinaryOpINS0_17scalar_product_opIffEEKNS_14CwiseNullaryOpINS0_18scalar_constant_opIfEEKNS_6MatrixIfLi2ELi1ELi0ELi2ELi1EEEEEKNS2_INS0_20scalar_difference_opIffEESA_SA_EEEEEC1ERKSH_)
                  00017d8a    00000006     --HOLE-- [fill = 0]
                  00017d90    00000012     PathGenerator.obj (.text:_ZN5Eigen8internal9evaluatorINS_13CwiseBinaryOpINS0_17scalar_product_opIffEEKNS_14CwiseNullaryOpINS0_18scalar_constant_opIfEEKNS_6MatrixIfLi2ELi1ELi0ELi2ELi1EEEEESA_EEEC1ERKSD_)
                  00017da2    00000006     --HOLE-- [fill = 0]
                  00017da8    00000012     CarSim.obj (.text:_ZN5Eigen8internal9evaluatorINS_13CwiseBinaryOpINS0_17scalar_product_opIffEEKNS_14CwiseNullaryOpINS0_18scalar_constant_opIfEEKNS_6MatrixIfLi3ELi1ELi0ELi3ELi1EEEEEKNS2_INS0_13scalar_sum_opIffEEKNS2_ISE_KNS2_ISE_KNS_5BlockINS8_IfLi3ELi4ELi0ELi3ELi4EEELi3ELi1ELb1EEEKNS2_IS4_SC_SI_EEEESK_EESI_EEEEEC1ERKSR_)
                  00017dba    00000006     --HOLE-- [fill = 0]
                  00017dc0    00000012     CarSim.obj (.text:_ZN5Eigen8internal9evaluatorINS_13CwiseBinaryOpINS0_17scalar_product_opIffEEKNS_14CwiseNullaryOpINS0_18scalar_constant_opIfEEKNS_6MatrixIfLi3ELi1ELi0ELi3ELi1EEEEEKNS_5BlockINS8_IfLi3ELi4ELi0ELi3ELi4EEELi3ELi1ELb1EEEEEEC1ERKSH_)
                  00017dd2    00000006     --HOLE-- [fill = 0]
                  00017dd8    00000012     PathTrackSim.obj (.text:_ZN5Eigen8internal9evaluatorINS_13CwiseBinaryOpINS0_17scalar_product_opIffEEKNS_14CwiseNullaryOpINS0_18scalar_constant_opIfEEKNS_6MatrixIfLi3ELi1ELi0ELi3ELi1EEEEESA_EEEC1ERKSD_)
                  00017dea    00000006     --HOLE-- [fill = 0]
                  00017df0    00000012     PathGenerator.obj (.text:_ZN5Eigen8internal9evaluatorINS_13CwiseBinaryOpINS0_20scalar_difference_opIffEEKNS_6MatrixIfLi2ELi1ELi0ELi2ELi1EEES7_EEEC1ERKS8_)
                  00017e02    00000006     --HOLE-- [fill = 0]
                  00017e08    00000012     PathGenerator.obj (.text:_ZN5Eigen8internal9evaluatorINS_13CwiseBinaryOpINS0_22scalar_conj_product_opIffEEKNS_6MatrixIfLi2ELi1ELi0ELi2ELi1EEES7_EEEC1ERKS8_)
                  00017e1a    00000006     --HOLE-- [fill = 0]
                  00017e20    00000012     PathTrackSim.obj (.text:_ZN5Eigen8internal9evaluatorINS_13CwiseBinaryOpINS0_22scalar_conj_product_opIffEEKNS_6MatrixIfLi3ELi1ELi0ELi3ELi1EEES7_EEEC1ERKS8_)
                  00017e32    00000006     --HOLE-- [fill = 0]
                  00017e38    00000012     Car.obj (.text:_ZN5Eigen8internal9evaluatorINS_3MapIKNS_6MatrixIfLi3ELi1ELi0ELi3ELi1EEELi0ENS_6StrideILi0ELi0EEEEEEC1ERKS8_)
                  00017e4a    00000006     --HOLE-- [fill = 0]
                  00017e50    00000012     PathGenerator.obj (.text:_ZN5Eigen8internal9evaluatorINS_5BlockINS_6MatrixIfLi2ELi2ELi0ELi2ELi2EEELin1ELin1ELb0EEEEC1ERKS5_)
                  00017e62    00000006     --HOLE-- [fill = 0]
                  00017e68    00000012     CarSim.obj (.text:_ZN5Eigen8internal9evaluatorINS_5BlockINS_6MatrixIfLi3ELi4ELi0ELi3ELi4EEELi3ELi1ELb1EEEEC1ERKS5_)
                  00017e7a    00000006     --HOLE-- [fill = 0]
                  00017e80    00000012     PathGenerator.obj (.text:_ZN5Eigen8internal9evaluatorINS_6MatrixIfLi2ELi1ELi0ELi2ELi1EEEEC1ERKS3_)
                  00017e92    00000006     --HOLE-- [fill = 0]
                  00017e98    00000012     PathGenerator.obj (.text:_ZN5Eigen8internal9evaluatorINS_6MatrixIfLi2ELi2ELi0ELi2ELi2EEEEC1ERKS3_)
                  00017eaa    00000006     --HOLE-- [fill = 0]
                  00017eb0    00000012     Car.obj (.text:_ZN5Eigen8internal9evaluatorINS_6MatrixIfLi3ELi1ELi0ELi3ELi1EEEEC1ERKS3_)
                  00017ec2    00000006     --HOLE-- [fill = 0]
                  00017ec8    00000012     CarSim.obj (.text:_ZN5Eigen8internal9evaluatorINS_6MatrixIfLi3ELi4ELi0ELi3ELi4EEEEC1ERKS3_)
                  00017eda    00000006     --HOLE-- [fill = 0]
                  00017ee0    00000012     PathGenerator.obj (.text:_ZN5Eigen8internal9evaluatorINS_9TransposeINS_6MatrixIfLi2ELi1ELi0ELi2ELi1EEEEEEC1ERKS5_)
                  00017ef2    00000006     --HOLE-- [fill = 0]
                  00017ef8    00000012     PathGenerator.obj (.text:_ZNK5Eigen8internal11conj_helperIffLb0ELb0EE4pmulERKfS4_)
                  00017f0a    00000006     --HOLE-- [fill = 0]
                  00017f10    00000012     PathGenerator.obj (.text:_ZNK5Eigen8internal14swap_assign_opIfE11assignCoeffERfRKf)
                  00017f22    00000006     --HOLE-- [fill = 0]
                  00017f28    00000012     PathGenerator.obj (.text:_ZNKSt3__26vectorIbNS_9allocatorIbEEE8capacityEv)
                  00017f3a    00000006     --HOLE-- [fill = 0]
                  00017f40    00000012     PathGenerator.obj (.text:_ZNSt3__210__list_impIPN9pathTrack8PathPartENS_9allocatorIS3_EEE5beginEv)
                  00017f52    00000006     --HOLE-- [fill = 0]
                  00017f58    00000012     PathTrackSim.obj (.text:_ZNSt3__210__list_impIfNS_9allocatorIfEEE5beginEv)
                  00017f6a    00000006     --HOLE-- [fill = 0]
                  00017f70    00000012     PathGenerator.obj (.text:_ZNSt3__215__list_iteratorIPN9pathTrack8PathPartEPvEC1Ev)
                  00017f82    00000006     --HOLE-- [fill = 0]
                  00017f88    00000012     PathGenerator.obj (.text:_ZNSt3__216allocator_traitsINS_9allocatorINS_11__list_nodeIPN9pathTrack8PathPartEPvEEEEE8allocateERS8_j)
                  00017f9a    00000006     --HOLE-- [fill = 0]
                  00017fa0    00000012     PathTrackSim.obj (.text:_ZNSt3__216allocator_traitsINS_9allocatorINS_11__list_nodeIfPvEEEEE8allocateERS5_j)
                  00017fb2    00000006     --HOLE-- [fill = 0]
                  00017fb8    00000012     PathGenerator.obj (.text:_ZNSt3__216allocator_traitsINS_9allocatorIjEEE8allocateERS2_j)
                  00017fca    00000006     --HOLE-- [fill = 0]
                  00017fd0    00000012     PathGenerator.obj (.text:_ZNSt3__216allocator_traitsINS_9allocatorItEEE8allocateERS2_j)
                  00017fe2    00000006     --HOLE-- [fill = 0]
                  00017fe8    00000012     PathGenerator.obj (.text:_ZNSt3__26vectorIbNS_9allocatorIbEEE10__align_itEj)
                  00017ffa    00000006     --HOLE-- [fill = 0]
                  00018000    00000012     PathGenerator.obj (.text:_ZNSt3__26vectorIbNS_9allocatorIbEEE26__external_cap_to_internalEj)
                  00018012    00000006     --HOLE-- [fill = 0]
                  00018018    00000012     PathGenerator.obj (.text:_ZNSt3__26vectorIbNS_9allocatorIbEEE4backEv)
                  0001802a    00000006     --HOLE-- [fill = 0]
                  00018030    00000012     PathGenerator.obj (.text:_ZNSt3__26vectorIbNS_9allocatorIbEEE5beginEv)
                  00018042    00000006     --HOLE-- [fill = 0]
                  00018048    00000012     startup_msp432p401r_ccs.obj (.text)
                  0001805a    00000012     rtsv7M4_T_le_v4SPD16_eabi.lib : wcslen.c.obj (.text:wcslen)
                  0001806c    00000010     msp432p4xx_driverlib.lib : interrupt.o (.text:Interrupt_disableSleepOnIsrExit)
                  0001807c    00000010                              : interrupt.o (.text:Interrupt_enableMaster)
                  0001808c    00000010                              : pcm.o (.text:PCM_setCoreVoltageLevel)
                  0001809c    00000010                              : pcm.o (.text:PCM_setPowerMode)
                  000180ac    00000010                              : systick.o (.text:SysTick_enableInterrupt)
                  000180bc    00000010                              : systick.o (.text:SysTick_enableModule)
                  000180cc    00000004     --HOLE-- [fill = 0]
                  000180d0    00000010     Car.obj (.text:_Z3cosf)
                  000180e0    00000010     Car.obj (.text:_Z3sinf)
                  000180f0    00000010     CarSim.obj (.text:_Z3tanf)
                  00018100    00000010     PathGenerator.obj (.text:_Z4acosf)
                  00018110    00000010     PathGenerator.obj (.text:_Z4sqrtf)
                  00018120    00000010     PathGenerator.obj (.text:_ZN5Eigen12DenseStorageIfLi2ELi2ELi1ELi0EE6resizeEiii)
                  00018130    00000010     Car.obj (.text:_ZN5Eigen12DenseStorageIfLi3ELi3ELi1ELi0EE6resizeEiii)
                  00018140    00000010     PathGenerator.obj (.text:_ZN5Eigen12DenseStorageIfLi4ELi2ELi2ELi0EE6resizeEiii)
                  00018150    00000010     PathGenerator.obj (.text:_ZN5Eigen15PlainObjectBaseINS_6MatrixIfLi2ELi1ELi0ELi2ELi1EEEEC2ERKS3_)
                  00018160    00000010     PathGenerator.obj (.text:_ZN5Eigen15PlainObjectBaseINS_6MatrixIfLi2ELi1ELi0ELi2ELi1EEEEC2INS_13CwiseBinaryOpINS_8internal13scalar_sum_opIffEEKS2_KNS5_INS6_17scalar_product_opIffEEKNS_14CwiseNullaryOpINS6_18scalar_constant_opIfEES9_EEKNS5_INS6_20scalar_difference_opIffEES9_S9_EEEEEEEERKNS_9DenseBaseIT_EE)
                  00018170    00000010     PathGenerator.obj (.text:_ZN5Eigen15PlainObjectBaseINS_6MatrixIfLi2ELi1ELi0ELi2ELi1EEEEC2INS_13CwiseBinaryOpINS_8internal13scalar_sum_opIffEEKS2_KNS5_INS6_17scalar_product_opIffEEKNS_14CwiseNullaryOpINS6_18scalar_constant_opIfEES9_EES9_EEEEEERKNS_9DenseBaseIT_EE)
                  00018180    00000010     PathGenerator.obj (.text:_ZN5Eigen15PlainObjectBaseINS_6MatrixIfLi2ELi1ELi0ELi2ELi1EEEEC2INS_13CwiseBinaryOpINS_8internal20scalar_difference_opIffEEKS2_S9_EEEERKNS_9DenseBaseIT_EE)
                  00018190    00000010     PathGenerator.obj (.text:_ZN5Eigen15PlainObjectBaseINS_6MatrixIfLi2ELi2ELi0ELi2ELi2EEEEC2ERKS3_)
                  000181a0    00000010     PathTrackSim.obj (.text:_ZN5Eigen6MatrixIfLi2ELi1ELi0ELi2ELi1EEaSINS_12CwiseUnaryOpINS_8internal18scalar_opposite_opIfEEKS1_EEEERS1_RKNS_9DenseBaseIT_EE)
                  000181b0    00000010     PathGenerator.obj (.text:_ZN5Eigen6MatrixIfLi2ELi1ELi0ELi2ELi1EEaSINS_13CwiseBinaryOpINS_8internal13scalar_sum_opIffEEKS1_KNS3_INS4_17scalar_product_opIffEEKNS_14CwiseNullaryOpINS4_18scalar_constant_opIfEES7_EES7_EEEEEERS1_RKNS_9DenseBaseIT_EE)
                  000181c0    00000010     PathGenerator.obj (.text:_ZN5Eigen6MatrixIfLi2ELi1ELi0ELi2ELi1EEaSINS_13CwiseBinaryOpINS_8internal13scalar_sum_opIffEEKS1_S7_EEEERS1_RKNS_9DenseBaseIT_EE)
                  000181d0    00000010     PathGenerator.obj (.text:_ZN5Eigen6MatrixIfLi2ELi2ELi0ELi2ELi2EEaSERKS1_)
                  000181e0    00000010     Car.obj (.text:_ZN5Eigen6MatrixIfLi3ELi1ELi0ELi3ELi1EEaSERKS1_)
                  000181f0    00000010     PathTrackSim.obj (.text:_ZN5Eigen6MatrixIfLi3ELi1ELi0ELi3ELi1EEaSINS_13CwiseBinaryOpINS_8internal13scalar_sum_opIffEEKNS3_INS4_17scalar_product_opIffEEKNS_14CwiseNullaryOpINS4_18scalar_constant_opIfEEKS1_EESC_EESG_EEEERS1_RKNS_9DenseBaseIT_EE)
                  00018200    00000010     CarSim.obj (.text:_ZN5Eigen6MatrixIfLi3ELi1ELi0ELi3ELi1EEaSINS_13CwiseBinaryOpINS_8internal13scalar_sum_opIffEEKS1_KNS3_INS4_17scalar_product_opIffEEKNS_14CwiseNullaryOpINS4_18scalar_constant_opIfEES7_EEKNS3_IS6_KNS3_IS6_KNS3_IS6_KNS_5BlockINS0_IfLi3ELi4ELi0ELi3ELi4EEELi3ELi1ELb1EEEKNS3_IS9_SE_SI_EEEESK_EESI_EEEEEEEERS1_RKNS_9DenseBaseIT_EE)
                  00018210    00000010     PathGenerator.obj (.text:_ZN5Eigen6numext4sqrtIfEET_RKS2_)
                  00018220    00000010     Car.obj (.text:_ZN5Eigen7MapBaseINS_3MapIKNS_6MatrixIfLi3ELi1ELi0ELi3ELi1EEELi0ENS_6StrideILi0ELi0EEEEELi0EEC2EPKf)
                  00018230    00000010     PathGenerator.obj (.text:_ZN5Eigen8internal15block_evaluatorINS_6MatrixIfLi2ELi2ELi0ELi2ELi2EEELin1ELin1ELb0ELb1EEC2ERKNS_5BlockIS3_Lin1ELin1ELb0EEE)
                  00018240    00000010     CarSim.obj (.text:_ZN5Eigen8internal15block_evaluatorINS_6MatrixIfLi3ELi4ELi0ELi3ELi4EEELi3ELi1ELb1ELb1EEC2ERKNS_5BlockIS3_Li3ELi1ELb1EEE)
                  00018250    00000010     PathGenerator.obj (.text:_ZN5Eigen8internal15unary_evaluatorINS_12CwiseUnaryOpINS0_14scalar_abs2_opIfEEKNS_13CwiseBinaryOpINS0_20scalar_difference_opIffEEKNS_6MatrixIfLi2ELi1ELi0ELi2ELi1EEESA_EEEENS0_10IndexBasedEfEC2ERKSD_)
                  00018260    00000010     PathGenerator.obj (.text:_ZN5Eigen8internal15unary_evaluatorINS_12CwiseUnaryOpINS0_14scalar_abs2_opIfEEKNS_6MatrixIfLi2ELi1ELi0ELi2ELi1EEEEENS0_10IndexBasedEfEC2ERKS8_)
                  00018270    00000010     PathTrackSim.obj (.text:_ZN5Eigen8internal15unary_evaluatorINS_12CwiseUnaryOpINS0_14scalar_abs2_opIfEEKNS_6MatrixIfLi3ELi1ELi0ELi3ELi1EEEEENS0_10IndexBasedEfEC2ERKS8_)
                  00018280    00000010     PathTrackSim.obj (.text:_ZN5Eigen8internal15unary_evaluatorINS_12CwiseUnaryOpINS0_18scalar_opposite_opIfEEKNS_6MatrixIfLi2ELi1ELi0ELi2ELi1EEEEENS0_10IndexBasedEfEC2ERKS8_)
                  00018290    00000010     PathGenerator.obj (.text:_ZN5Eigen8internal15unary_evaluatorINS_9TransposeINS_6MatrixIfLi2ELi1ELi0ELi2ELi1EEEEENS0_10IndexBasedEfEC2ERKS5_)
                  000182a0    00000010     PathTrackSim.obj (.text:_ZN5Eigen8internal16binary_evaluatorINS_13CwiseBinaryOpINS0_13scalar_sum_opIffEEKNS2_INS0_17scalar_product_opIffEEKNS_14CwiseNullaryOpINS0_18scalar_constant_opIfEEKNS_6MatrixIfLi3ELi1ELi0ELi3ELi1EEEEESC_EESG_EENS0_10IndexBasedESI_ffEC2ERKSH_)
                  000182b0    00000010     CarSim.obj (.text:_ZN5Eigen8internal16binary_evaluatorINS_13CwiseBinaryOpINS0_13scalar_sum_opIffEEKNS2_IS4_KNS2_IS4_KNS_5BlockINS_6MatrixIfLi3ELi4ELi0ELi3ELi4EEELi3ELi1ELb1EEEKNS2_INS0_17scalar_product_opIffEEKNS_14CwiseNullaryOpINS0_18scalar_constant_opIfEEKNS6_IfLi3ELi1ELi0ELi3ELi1EEEEES9_EEEESK_EES9_EENS0_10IndexBasedESQ_ffEC2ERKSP_)
                  000182c0    00000010     CarSim.obj (.text:_ZN5Eigen8internal16binary_evaluatorINS_13CwiseBinaryOpINS0_13scalar_sum_opIffEEKNS2_IS4_KNS_5BlockINS_6MatrixIfLi3ELi4ELi0ELi3ELi4EEELi3ELi1ELb1EEEKNS2_INS0_17scalar_product_opIffEEKNS_14CwiseNullaryOpINS0_18scalar_constant_opIfEEKNS6_IfLi3ELi1ELi0ELi3ELi1EEEEES9_EEEESK_EENS0_10IndexBasedESO_ffEC2ERKSN_)
                  000182d0    00000010     CarSim.obj (.text:_ZN5Eigen8internal16binary_evaluatorINS_13CwiseBinaryOpINS0_13scalar_sum_opIffEEKNS_5BlockINS_6MatrixIfLi3ELi4ELi0ELi3ELi4EEELi3ELi1ELb1EEEKNS2_INS0_17scalar_product_opIffEEKNS_14CwiseNullaryOpINS0_18scalar_constant_opIfEEKNS6_IfLi3ELi1ELi0ELi3ELi1EEEEES9_EEEENS0_10IndexBasedESM_ffEC2ERKSL_)
                  000182e0    00000010     PathGenerator.obj (.text:_ZN5Eigen8internal16binary_evaluatorINS_13CwiseBinaryOpINS0_13scalar_sum_opIffEEKNS_6MatrixIfLi2ELi1ELi0ELi2ELi1EEEKNS2_INS0_17scalar_product_opIffEEKNS_14CwiseNullaryOpINS0_18scalar_constant_opIfEES7_EEKNS2_INS0_20scalar_difference_opIffEES7_S7_EEEEEENS0_10IndexBasedESM_ffEC2ERKSL_)
                  000182f0    00000010     PathGenerator.obj (.text:_ZN5Eigen8internal16binary_evaluatorINS_13CwiseBinaryOpINS0_13scalar_sum_opIffEEKNS_6MatrixIfLi2ELi1ELi0ELi2ELi1EEEKNS2_INS0_17scalar_product_opIffEEKNS_14CwiseNullaryOpINS0_18scalar_constant_opIfEES7_EES7_EEEENS0_10IndexBasedESI_ffEC2ERKSH_)
                  00018300    00000010     PathGenerator.obj (.text:_ZN5Eigen8internal16binary_evaluatorINS_13CwiseBinaryOpINS0_13scalar_sum_opIffEEKNS_6MatrixIfLi2ELi1ELi0ELi2ELi1EEES7_EENS0_10IndexBasedES9_ffEC2ERKS8_)
                  00018310    00000010     CarSim.obj (.text:_ZN5Eigen8internal16binary_evaluatorINS_13CwiseBinaryOpINS0_13scalar_sum_opIffEEKNS_6MatrixIfLi3ELi1ELi0ELi3ELi1EEEKNS2_INS0_17scalar_product_opIffEEKNS_14CwiseNullaryOpINS0_18scalar_constant_opIfEES7_EEKNS2_IS4_KNS2_IS4_KNS2_IS4_KNS_5BlockINS5_IfLi3ELi4ELi0ELi3ELi4EEELi3ELi1ELb1EEEKNS2_IS9_SE_SI_EEEESK_EESI_EEEEEENS0_10IndexBasedESU_ffEC2ERKST_)
                  00018320    00000010     PathGenerator.obj (.text:_ZN5Eigen8internal16binary_evaluatorINS_13CwiseBinaryOpINS0_17scalar_product_opIffEEKNS_14CwiseNullaryOpINS0_18scalar_constant_opIfEEKNS_6MatrixIfLi2ELi1ELi0ELi2ELi1EEEEEKNS2_INS0_20scalar_difference_opIffEESA_SA_EEEENS0_10IndexBasedESI_ffEC2ERKSH_)
                  00018330    00000010     PathGenerator.obj (.text:_ZN5Eigen8internal16binary_evaluatorINS_13CwiseBinaryOpINS0_17scalar_product_opIffEEKNS_14CwiseNullaryOpINS0_18scalar_constant_opIfEEKNS_6MatrixIfLi2ELi1ELi0ELi2ELi1EEEEESA_EENS0_10IndexBasedESE_ffEC2ERKSD_)
                  00018340    00000010     CarSim.obj (.text:_ZN5Eigen8internal16binary_evaluatorINS_13CwiseBinaryOpINS0_17scalar_product_opIffEEKNS_14CwiseNullaryOpINS0_18scalar_constant_opIfEEKNS_6MatrixIfLi3ELi1ELi0ELi3ELi1EEEEEKNS2_INS0_13scalar_sum_opIffEEKNS2_ISE_KNS2_ISE_KNS_5BlockINS8_IfLi3ELi4ELi0ELi3ELi4EEELi3ELi1ELb1EEEKNS2_IS4_SC_SI_EEEESK_EESI_EEEENS0_10IndexBasedESS_ffEC2ERKSR_)
                  00018350    00000010     CarSim.obj (.text:_ZN5Eigen8internal16binary_evaluatorINS_13CwiseBinaryOpINS0_17scalar_product_opIffEEKNS_14CwiseNullaryOpINS0_18scalar_constant_opIfEEKNS_6MatrixIfLi3ELi1ELi0ELi3ELi1EEEEEKNS_5BlockINS8_IfLi3ELi4ELi0ELi3ELi4EEELi3ELi1ELb1EEEEENS0_10IndexBasedESI_ffEC2ERKSH_)
                  00018360    00000010     PathTrackSim.obj (.text:_ZN5Eigen8internal16binary_evaluatorINS_13CwiseBinaryOpINS0_17scalar_product_opIffEEKNS_14CwiseNullaryOpINS0_18scalar_constant_opIfEEKNS_6MatrixIfLi3ELi1ELi0ELi3ELi1EEEEESA_EENS0_10IndexBasedESE_ffEC2ERKSD_)
                  00018370    00000010     PathGenerator.obj (.text:_ZN5Eigen8internal16binary_evaluatorINS_13CwiseBinaryOpINS0_20scalar_difference_opIffEEKNS_6MatrixIfLi2ELi1ELi0ELi2ELi1EEES7_EENS0_10IndexBasedES9_ffEC2ERKS8_)
                  00018380    00000010     PathGenerator.obj (.text:_ZN5Eigen8internal16binary_evaluatorINS_13CwiseBinaryOpINS0_22scalar_conj_product_opIffEEKNS_6MatrixIfLi2ELi1ELi0ELi2ELi1EEES7_EENS0_10IndexBasedES9_ffEC2ERKS8_)
                  00018390    00000010     PathTrackSim.obj (.text:_ZN5Eigen8internal16binary_evaluatorINS_13CwiseBinaryOpINS0_22scalar_conj_product_opIffEEKNS_6MatrixIfLi3ELi1ELi0ELi3ELi1EEES7_EENS0_10IndexBasedES9_ffEC2ERKS8_)
                  000183a0    00000010     Car.obj (.text:_ZN5Eigen8internal17mapbase_evaluatorINS_3MapIKNS_6MatrixIfLi3ELi1ELi0ELi3ELi1EEELi0ENS_6StrideILi0ELi0EEEEES5_EC2ERKS8_)
                  000183b0    00000010     PathGenerator.obj (.text:_ZN5Eigen8internal17mapbase_evaluatorINS_5BlockINS_6MatrixIfLi2ELi2ELi0ELi2ELi2EEELin1ELin1ELb0EEENS3_IfLin1ELin1ELi0ELi2ELi2EEEEC2ERKS5_)
                  000183c0    00000010     CarSim.obj (.text:_ZN5Eigen8internal17mapbase_evaluatorINS_5BlockINS_6MatrixIfLi3ELi4ELi0ELi3ELi4EEELi3ELi1ELb1EEENS3_IfLi3ELi1ELi0ELi3ELi1EEEEC2ERKS5_)
                  000183d0    00000010     PathGenerator.obj (.text:_ZN5Eigen8internal17real_default_implIfLb0EE3runERKf)
                  000183e0    00000010     PathGenerator.obj (.text:_ZN5Eigen8internal18check_for_aliasingINS_5BlockINS_6MatrixIfLi2ELi2ELi0ELi2ELi2EEELin1ELin1ELb0EEENS3_IfLi2ELi1ELi0ELi2ELi1EEEEEvRKT_RKT0_)
                  000183f0    00000010     PathGenerator.obj (.text:_ZN5Eigen8internal18check_for_aliasingINS_5BlockINS_6MatrixIfLi2ELi2ELi0ELi2ELi2EEELin1ELin1ELb0EEENS_9TransposeINS3_IfLi2ELi1ELi0ELi2ELi1EEEEEEEvRKT_RKT0_)
                  00018400    00000010     CarSim.obj (.text:_ZN5Eigen8internal18check_for_aliasingINS_5BlockINS_6MatrixIfLi3ELi4ELi0ELi3ELi4EEELi3ELi1ELb1EEENS3_IfLi3ELi1ELi0ELi3ELi1EEEEEvRKT_RKT0_)
                  00018410    00000010     PathTrackSim.obj (.text:_ZN5Eigen8internal18check_for_aliasingINS_6MatrixIfLi2ELi1ELi0ELi2ELi1EEENS_12CwiseUnaryOpINS0_18scalar_opposite_opIfEEKS3_EEEEvRKT_RKT0_)
                  00018420    00000010     PathGenerator.obj (.text:_ZN5Eigen8internal18check_for_aliasingINS_6MatrixIfLi2ELi1ELi0ELi2ELi1EEENS_13CwiseBinaryOpINS0_13scalar_sum_opIffEEKS3_KNS4_INS0_17scalar_product_opIffEEKNS_14CwiseNullaryOpINS0_18scalar_constant_opIfEES7_EEKNS4_INS0_20scalar_difference_opIffEES7_S7_EEEEEEEEvRKT_RKT0_)
                  00018430    00000010     PathGenerator.obj (.text:_ZN5Eigen8internal18check_for_aliasingINS_6MatrixIfLi2ELi1ELi0ELi2ELi1EEENS_13CwiseBinaryOpINS0_13scalar_sum_opIffEEKS3_KNS4_INS0_17scalar_product_opIffEEKNS_14CwiseNullaryOpINS0_18scalar_constant_opIfEES7_EES7_EEEEEEvRKT_RKT0_)
                  00018440    00000010     PathGenerator.obj (.text:_ZN5Eigen8internal18check_for_aliasingINS_6MatrixIfLi2ELi1ELi0ELi2ELi1EEENS_13CwiseBinaryOpINS0_13scalar_sum_opIffEEKS3_S7_EEEEvRKT_RKT0_)
                  00018450    00000010     PathGenerator.obj (.text:_ZN5Eigen8internal18check_for_aliasingINS_6MatrixIfLi2ELi1ELi0ELi2ELi1EEENS_13CwiseBinaryOpINS0_20scalar_difference_opIffEEKS3_S7_EEEEvRKT_RKT0_)
                  00018460    00000010     PathGenerator.obj (.text:_ZN5Eigen8internal18check_for_aliasingINS_6MatrixIfLi2ELi1ELi0ELi2ELi1EEENS_14CwiseNullaryOpINS0_18scalar_constant_opIfEES3_EEEEvRKT_RKT0_)
                  00018470    00000010     PathGenerator.obj (.text:_ZN5Eigen8internal18check_for_aliasingINS_6MatrixIfLi2ELi1ELi0ELi2ELi1EEES3_EEvRKT_RKT0_)
                  00018480    00000010     PathGenerator.obj (.text:_ZN5Eigen8internal18check_for_aliasingINS_6MatrixIfLi2ELi2ELi0ELi2ELi2EEES3_EEvRKT_RKT0_)
                  00018490    00000010     PathTrackSim.obj (.text:_ZN5Eigen8internal18check_for_aliasingINS_6MatrixIfLi3ELi1ELi0ELi3ELi1EEENS_13CwiseBinaryOpINS0_13scalar_sum_opIffEEKNS4_INS0_17scalar_product_opIffEEKNS_14CwiseNullaryOpINS0_18scalar_constant_opIfEEKS3_EESC_EESG_EEEEvRKT_RKT0_)
                  000184a0    00000010     CarSim.obj (.text:_ZN5Eigen8internal18check_for_aliasingINS_6MatrixIfLi3ELi1ELi0ELi3ELi1EEENS_13CwiseBinaryOpINS0_13scalar_sum_opIffEEKS3_KNS4_INS0_17scalar_product_opIffEEKNS_14CwiseNullaryOpINS0_18scalar_constant_opIfEES7_EEKNS4_IS6_KNS4_IS6_KNS4_IS6_KNS_5BlockINS2_IfLi3ELi4ELi0ELi3ELi4EEELi3ELi1ELb1EEEKNS4_IS9_SE_SI_EEEESK_EESI_EEEEEEEEvRKT_RKT0_)
                  000184b0    00000010     PathTrackSim.obj (.text:_ZN5Eigen8internal18check_for_aliasingINS_6MatrixIfLi3ELi1ELi0ELi3ELi1EEENS_13CwiseBinaryOpINS0_17scalar_product_opIffEEKNS_14CwiseNullaryOpINS0_18scalar_constant_opIfEEKS3_EEKNS4_INS0_13scalar_sum_opIffEEKNS4_ISE_KNS4_ISE_KNS_5BlockINS2_IfLi3ELi4ELi0ELi3ELi4EEELi3ELi1ELb1EEEKNS4_IS6_SC_SI_EEEESK_EESI_EEEEEEvRKT_RKT0_)
                  000184c0    00000010     PathTrackSim.obj (.text:_ZN5Eigen8internal18check_for_aliasingINS_6MatrixIfLi3ELi1ELi0ELi3ELi1EEENS_13CwiseBinaryOpINS0_17scalar_product_opIffEEKNS_14CwiseNullaryOpINS0_18scalar_constant_opIfEEKS3_EESA_EEEEvRKT_RKT0_)
                  000184d0    00000010     Car.obj (.text:_ZN5Eigen8internal18check_for_aliasingINS_6MatrixIfLi3ELi1ELi0ELi3ELi1EEENS_3MapIKS3_Li0ENS_6StrideILi0ELi0EEEEEEEvRKT_RKT0_)
                  000184e0    00000010     Car.obj (.text:_ZN5Eigen8internal18check_for_aliasingINS_6MatrixIfLi3ELi1ELi0ELi3ELi1EEES3_EEvRKT_RKT0_)
                  000184f0    00000010     PathTrackSim.obj (.text:_ZN5Eigen8internal19throw_std_bad_allocEv)
                  00018500    00000010     PathGenerator.obj (.text:_ZN5Eigen8internal21extract_data_selectorINS_5BlockINS_6MatrixIfLi2ELi2ELi0ELi2ELi2EEELin1ELin1ELb0EEELb1EE3runERKS5_)
                  00018510    00000010     PathTrackSim.obj (.text:_ZN5Eigen8internal9conj_implIfLb0EE3runERKf)
                  00018520    00000010     CarSim.obj (.text:_ZN5Eigen8internal9evaluatorINS_13CwiseBinaryOpINS0_13scalar_sum_opIffEEKNS2_IS4_KNS2_IS4_KNS_5BlockINS_6MatrixIfLi3ELi4ELi0ELi3ELi4EEELi3ELi1ELb1EEEKNS2_INS0_17scalar_product_opIffEEKNS_14CwiseNullaryOpINS0_18scalar_constant_opIfEEKNS6_IfLi3ELi1ELi0ELi3ELi1EEEEES9_EEEESK_EES9_EEEC2ERKSP_)
                  00018530    00000010     CarSim.obj (.text:_ZN5Eigen8internal9evaluatorINS_13CwiseBinaryOpINS0_13scalar_sum_opIffEEKNS2_IS4_KNS_5BlockINS_6MatrixIfLi3ELi4ELi0ELi3ELi4EEELi3ELi1ELb1EEEKNS2_INS0_17scalar_product_opIffEEKNS_14CwiseNullaryOpINS0_18scalar_constant_opIfEEKNS6_IfLi3ELi1ELi0ELi3ELi1EEEEES9_EEEESK_EEEC2ERKSN_)
                  00018540    00000010     CarSim.obj (.text:_ZN5Eigen8internal9evaluatorINS_13CwiseBinaryOpINS0_13scalar_sum_opIffEEKNS_5BlockINS_6MatrixIfLi3ELi4ELi0ELi3ELi4EEELi3ELi1ELb1EEEKNS2_INS0_17scalar_product_opIffEEKNS_14CwiseNullaryOpINS0_18scalar_constant_opIfEEKNS6_IfLi3ELi1ELi0ELi3ELi1EEEEES9_EEEEEC2ERKSL_)
                  00018550    00000010     PathGenerator.obj (.text:_ZN5Eigen8internal9evaluatorINS_13CwiseBinaryOpINS0_17scalar_product_opIffEEKNS_14CwiseNullaryOpINS0_18scalar_constant_opIfEEKNS_6MatrixIfLi2ELi1ELi0ELi2ELi1EEEEEKNS2_INS0_20scalar_difference_opIffEESA_SA_EEEEEC2ERKSH_)
                  00018560    00000010     PathGenerator.obj (.text:_ZN5Eigen8internal9evaluatorINS_13CwiseBinaryOpINS0_17scalar_product_opIffEEKNS_14CwiseNullaryOpINS0_18scalar_constant_opIfEEKNS_6MatrixIfLi2ELi1ELi0ELi2ELi1EEEEESA_EEEC2ERKSD_)
                  00018570    00000010     CarSim.obj (.text:_ZN5Eigen8internal9evaluatorINS_13CwiseBinaryOpINS0_17scalar_product_opIffEEKNS_14CwiseNullaryOpINS0_18scalar_constant_opIfEEKNS_6MatrixIfLi3ELi1ELi0ELi3ELi1EEEEEKNS2_INS0_13scalar_sum_opIffEEKNS2_ISE_KNS2_ISE_KNS_5BlockINS8_IfLi3ELi4ELi0ELi3ELi4EEELi3ELi1ELb1EEEKNS2_IS4_SC_SI_EEEESK_EESI_EEEEEC2ERKSR_)
                  00018580    00000010     CarSim.obj (.text:_ZN5Eigen8internal9evaluatorINS_13CwiseBinaryOpINS0_17scalar_product_opIffEEKNS_14CwiseNullaryOpINS0_18scalar_constant_opIfEEKNS_6MatrixIfLi3ELi1ELi0ELi3ELi1EEEEEKNS_5BlockINS8_IfLi3ELi4ELi0ELi3ELi4EEELi3ELi1ELb1EEEEEEC2ERKSH_)
                  00018590    00000010     PathTrackSim.obj (.text:_ZN5Eigen8internal9evaluatorINS_13CwiseBinaryOpINS0_17scalar_product_opIffEEKNS_14CwiseNullaryOpINS0_18scalar_constant_opIfEEKNS_6MatrixIfLi3ELi1ELi0ELi3ELi1EEEEESA_EEEC2ERKSD_)
                  000185a0    00000010     PathGenerator.obj (.text:_ZN5Eigen8internal9evaluatorINS_13CwiseBinaryOpINS0_20scalar_difference_opIffEEKNS_6MatrixIfLi2ELi1ELi0ELi2ELi1EEES7_EEEC2ERKS8_)
                  000185b0    00000010     PathGenerator.obj (.text:_ZN5Eigen8internal9evaluatorINS_14CwiseNullaryOpINS0_18scalar_constant_opIfEEKNS_6MatrixIfLi2ELi1ELi0ELi2ELi1EEEEEEC2ERKS8_)
                  000185c0    00000010     CarSim.obj (.text:_ZN5Eigen8internal9evaluatorINS_14CwiseNullaryOpINS0_18scalar_constant_opIfEEKNS_6MatrixIfLi3ELi1ELi0ELi3ELi1EEEEEEC2ERKS8_)
                  000185d0    00000010     PathGenerator.obj (.text:_ZN5Eigen8internal9evaluatorINS_15PlainObjectBaseINS_6MatrixIfLi2ELi1ELi0ELi2ELi1EEEEEEC2ERKS5_)
                  000185e0    00000010     PathGenerator.obj (.text:_ZN5Eigen8internal9evaluatorINS_15PlainObjectBaseINS_6MatrixIfLi2ELi2ELi0ELi2ELi2EEEEEEC2ERKS5_)
                  000185f0    00000010     Car.obj (.text:_ZN5Eigen8internal9evaluatorINS_15PlainObjectBaseINS_6MatrixIfLi3ELi1ELi0ELi3ELi1EEEEEEC2ERKS5_)
                  00018600    00000010     CarSim.obj (.text:_ZN5Eigen8internal9evaluatorINS_15PlainObjectBaseINS_6MatrixIfLi3ELi4ELi0ELi3ELi4EEEEEEC2ERKS5_)
                  00018610    00000010     CarSim.obj (.text:_ZN5Eigen8internal9evaluatorINS_5BlockINS_6MatrixIfLi3ELi4ELi0ELi3ELi4EEELi3ELi1ELb1EEEEC2ERKS5_)
                  00018620    00000010     PathGenerator.obj (.text:_ZN5Eigen8internal9evaluatorINS_6MatrixIfLi2ELi1ELi0ELi2ELi1EEEEC2ERKS3_)
                  00018630    00000010     Car.obj (.text:_ZN5Eigen8internal9evaluatorINS_6MatrixIfLi3ELi1ELi0ELi3ELi1EEEEC2ERKS3_)
                  00018640    00000010     FuzzyController.obj (.text:_ZN5fuzzy8FuzzyVar15getFuzzySetsNumEv)
                  00018650    00000010     PathTrackSim.obj (.text:_ZNK5Eigen13CwiseBinaryOpINS_8internal13scalar_sum_opIffEEKNS0_INS1_17scalar_product_opIffEEKNS_14CwiseNullaryOpINS1_18scalar_constant_opIfEEKNS_6MatrixIfLi3ELi1ELi0ELi3ELi1EEEEESB_EESF_E4colsEv)
                  00018660    00000010     PathTrackSim.obj (.text:_ZNK5Eigen13CwiseBinaryOpINS_8internal13scalar_sum_opIffEEKNS0_INS1_17scalar_product_opIffEEKNS_14CwiseNullaryOpINS1_18scalar_constant_opIfEEKNS_6MatrixIfLi3ELi1ELi0ELi3ELi1EEEEESB_EESF_E4rowsEv)
                  00018670    00000010     CarSim.obj (.text:_ZNK5Eigen13CwiseBinaryOpINS_8internal13scalar_sum_opIffEEKNS0_IS3_KNS0_IS3_KNS_5BlockINS_6MatrixIfLi3ELi4ELi0ELi3ELi4EEELi3ELi1ELb1EEEKNS0_INS1_17scalar_product_opIffEEKNS_14CwiseNullaryOpINS1_18scalar_constant_opIfEEKNS5_IfLi3ELi1ELi0ELi3ELi1EEEEES8_EEEESJ_EES8_E4colsEv)
                  00018680    00000010     CarSim.obj (.text:_ZNK5Eigen13CwiseBinaryOpINS_8internal13scalar_sum_opIffEEKNS0_IS3_KNS0_IS3_KNS_5BlockINS_6MatrixIfLi3ELi4ELi0ELi3ELi4EEELi3ELi1ELb1EEEKNS0_INS1_17scalar_product_opIffEEKNS_14CwiseNullaryOpINS1_18scalar_constant_opIfEEKNS5_IfLi3ELi1ELi0ELi3ELi1EEEEES8_EEEESJ_EES8_E4rowsEv)
                  00018690    00000010     CarSim.obj (.text:_ZNK5Eigen13CwiseBinaryOpINS_8internal13scalar_sum_opIffEEKNS0_IS3_KNS_5BlockINS_6MatrixIfLi3ELi4ELi0ELi3ELi4EEELi3ELi1ELb1EEEKNS0_INS1_17scalar_product_opIffEEKNS_14CwiseNullaryOpINS1_18scalar_constant_opIfEEKNS5_IfLi3ELi1ELi0ELi3ELi1EEEEES8_EEEESJ_E4colsEv)
                  000186a0    00000010     CarSim.obj (.text:_ZNK5Eigen13CwiseBinaryOpINS_8internal13scalar_sum_opIffEEKNS0_IS3_KNS_5BlockINS_6MatrixIfLi3ELi4ELi0ELi3ELi4EEELi3ELi1ELb1EEEKNS0_INS1_17scalar_product_opIffEEKNS_14CwiseNullaryOpINS1_18scalar_constant_opIfEEKNS5_IfLi3ELi1ELi0ELi3ELi1EEEEES8_EEEESJ_E4rowsEv)
                  000186b0    00000010     PathGenerator.obj (.text:_ZNK5Eigen13CwiseBinaryOpINS_8internal13scalar_sum_opIffEEKNS_6MatrixIfLi2ELi1ELi0ELi2ELi1EEEKNS0_INS1_17scalar_product_opIffEEKNS_14CwiseNullaryOpINS1_18scalar_constant_opIfEES6_EEKNS0_INS1_20scalar_difference_opIffEES6_S6_EEEEE4colsEv)
                  000186c0    00000010     PathGenerator.obj (.text:_ZNK5Eigen13CwiseBinaryOpINS_8internal13scalar_sum_opIffEEKNS_6MatrixIfLi2ELi1ELi0ELi2ELi1EEEKNS0_INS1_17scalar_product_opIffEEKNS_14CwiseNullaryOpINS1_18scalar_constant_opIfEES6_EEKNS0_INS1_20scalar_difference_opIffEES6_S6_EEEEE4rowsEv)
                  000186d0    00000010     PathGenerator.obj (.text:_ZNK5Eigen13CwiseBinaryOpINS_8internal13scalar_sum_opIffEEKNS_6MatrixIfLi2ELi1ELi0ELi2ELi1EEEKNS0_INS1_17scalar_product_opIffEEKNS_14CwiseNullaryOpINS1_18scalar_constant_opIfEES6_EES6_EEE4colsEv)
                  000186e0    00000010     PathGenerator.obj (.text:_ZNK5Eigen13CwiseBinaryOpINS_8internal13scalar_sum_opIffEEKNS_6MatrixIfLi2ELi1ELi0ELi2ELi1EEEKNS0_INS1_17scalar_product_opIffEEKNS_14CwiseNullaryOpINS1_18scalar_constant_opIfEES6_EES6_EEE4rowsEv)
                  000186f0    00000010     PathGenerator.obj (.text:_ZNK5Eigen13CwiseBinaryOpINS_8internal13scalar_sum_opIffEEKNS_6MatrixIfLi2ELi1ELi0ELi2ELi1EEES6_E4colsEv)
                  00018700    00000010     PathGenerator.obj (.text:_ZNK5Eigen13CwiseBinaryOpINS_8internal13scalar_sum_opIffEEKNS_6MatrixIfLi2ELi1ELi0ELi2ELi1EEES6_E4rowsEv)
                  00018710    00000010     CarSim.obj (.text:_ZNK5Eigen13CwiseBinaryOpINS_8internal13scalar_sum_opIffEEKNS_6MatrixIfLi3ELi1ELi0ELi3ELi1EEEKNS0_INS1_17scalar_product_opIffEEKNS_14CwiseNullaryOpINS1_18scalar_constant_opIfEES6_EEKNS0_IS3_KNS0_IS3_KNS0_IS3_KNS_5BlockINS4_IfLi3ELi4ELi0ELi3ELi4EEELi3ELi1ELb1EEEKNS0_IS8_SD_SH_EEEESJ_EESH_EEEEE4colsEv)
                  00018720    00000010     CarSim.obj (.text:_ZNK5Eigen13CwiseBinaryOpINS_8internal13scalar_sum_opIffEEKNS_6MatrixIfLi3ELi1ELi0ELi3ELi1EEEKNS0_INS1_17scalar_product_opIffEEKNS_14CwiseNullaryOpINS1_18scalar_constant_opIfEES6_EEKNS0_IS3_KNS0_IS3_KNS0_IS3_KNS_5BlockINS4_IfLi3ELi4ELi0ELi3ELi4EEELi3ELi1ELb1EEEKNS0_IS8_SD_SH_EEEESJ_EESH_EEEEE4rowsEv)
                  00018730    00000010     PathGenerator.obj (.text:_ZNK5Eigen13CwiseBinaryOpINS_8internal17scalar_product_opIffEEKNS_14CwiseNullaryOpINS1_18scalar_constant_opIfEEKNS_6MatrixIfLi2ELi1ELi0ELi2ELi1EEEEEKNS0_INS1_20scalar_difference_opIffEES9_S9_EEE4colsEv)
                  00018740    00000010     PathGenerator.obj (.text:_ZNK5Eigen13CwiseBinaryOpINS_8internal17scalar_product_opIffEEKNS_14CwiseNullaryOpINS1_18scalar_constant_opIfEEKNS_6MatrixIfLi2ELi1ELi0ELi2ELi1EEEEEKNS0_INS1_20scalar_difference_opIffEES9_S9_EEE4rowsEv)
                  00018750    00000010     PathGenerator.obj (.text:_ZNK5Eigen13CwiseBinaryOpINS_8internal17scalar_product_opIffEEKNS_14CwiseNullaryOpINS1_18scalar_constant_opIfEEKNS_6MatrixIfLi2ELi1ELi0ELi2ELi1EEEEES9_E4colsEv)
                  00018760    00000010     PathGenerator.obj (.text:_ZNK5Eigen13CwiseBinaryOpINS_8internal17scalar_product_opIffEEKNS_14CwiseNullaryOpINS1_18scalar_constant_opIfEEKNS_6MatrixIfLi2ELi1ELi0ELi2ELi1EEEEES9_E4rowsEv)
                  00018770    00000010     CarSim.obj (.text:_ZNK5Eigen13CwiseBinaryOpINS_8internal17scalar_product_opIffEEKNS_14CwiseNullaryOpINS1_18scalar_constant_opIfEEKNS_6MatrixIfLi3ELi1ELi0ELi3ELi1EEEEEKNS0_INS1_13scalar_sum_opIffEEKNS0_ISD_KNS0_ISD_KNS_5BlockINS7_IfLi3ELi4ELi0ELi3ELi4EEELi3ELi1ELb1EEEKNS0_IS3_SB_SH_EEEESJ_EESH_EEE4colsEv)
                  00018780    00000010     CarSim.obj (.text:_ZNK5Eigen13CwiseBinaryOpINS_8internal17scalar_product_opIffEEKNS_14CwiseNullaryOpINS1_18scalar_constant_opIfEEKNS_6MatrixIfLi3ELi1ELi0ELi3ELi1EEEEEKNS0_INS1_13scalar_sum_opIffEEKNS0_ISD_KNS0_ISD_KNS_5BlockINS7_IfLi3ELi4ELi0ELi3ELi4EEELi3ELi1ELb1EEEKNS0_IS3_SB_SH_EEEESJ_EESH_EEE4rowsEv)
                  00018790    00000010     CarSim.obj (.text:_ZNK5Eigen13CwiseBinaryOpINS_8internal17scalar_product_opIffEEKNS_14CwiseNullaryOpINS1_18scalar_constant_opIfEEKNS_6MatrixIfLi3ELi1ELi0ELi3ELi1EEEEEKNS_5BlockINS7_IfLi3ELi4ELi0ELi3ELi4EEELi3ELi1ELb1EEEE4colsEv)
                  000187a0    00000010     CarSim.obj (.text:_ZNK5Eigen13CwiseBinaryOpINS_8internal17scalar_product_opIffEEKNS_14CwiseNullaryOpINS1_18scalar_constant_opIfEEKNS_6MatrixIfLi3ELi1ELi0ELi3ELi1EEEEEKNS_5BlockINS7_IfLi3ELi4ELi0ELi3ELi4EEELi3ELi1ELb1EEEE4rowsEv)
                  000187b0    00000010     PathTrackSim.obj (.text:_ZNK5Eigen13CwiseBinaryOpINS_8internal17scalar_product_opIffEEKNS_14CwiseNullaryOpINS1_18scalar_constant_opIfEEKNS_6MatrixIfLi3ELi1ELi0ELi3ELi1EEEEES9_E4colsEv)
                  000187c0    00000010     PathTrackSim.obj (.text:_ZNK5Eigen13CwiseBinaryOpINS_8internal17scalar_product_opIffEEKNS_14CwiseNullaryOpINS1_18scalar_constant_opIfEEKNS_6MatrixIfLi3ELi1ELi0ELi3ELi1EEEEES9_E4rowsEv)
                  000187d0    00000010     PathGenerator.obj (.text:_ZNK5Eigen13CwiseBinaryOpINS_8internal20scalar_difference_opIffEEKNS_6MatrixIfLi2ELi1ELi0ELi2ELi1EEES6_E4colsEv)
                  000187e0    00000010     PathGenerator.obj (.text:_ZNK5Eigen13CwiseBinaryOpINS_8internal20scalar_difference_opIffEEKNS_6MatrixIfLi2ELi1ELi0ELi2ELi1EEES6_E4rowsEv)
                  000187f0    00000010     PathGenerator.obj (.text:_ZNK5Eigen13CwiseBinaryOpINS_8internal22scalar_conj_product_opIffEEKNS_6MatrixIfLi2ELi1ELi0ELi2ELi1EEES6_E4colsEv)
                  00018800    00000010     PathGenerator.obj (.text:_ZNK5Eigen13CwiseBinaryOpINS_8internal22scalar_conj_product_opIffEEKNS_6MatrixIfLi2ELi1ELi0ELi2ELi1EEES6_E4rowsEv)
                  00018810    00000010     PathTrackSim.obj (.text:_ZNK5Eigen13CwiseBinaryOpINS_8internal22scalar_conj_product_opIffEEKNS_6MatrixIfLi3ELi1ELi0ELi3ELi1EEES6_E4colsEv)
                  00018820    00000010     PathTrackSim.obj (.text:_ZNK5Eigen13CwiseBinaryOpINS_8internal22scalar_conj_product_opIffEEKNS_6MatrixIfLi3ELi1ELi0ELi3ELi1EEES6_E4rowsEv)
                  00018830    00000010     PathGenerator.obj (.text:_ZNK5Eigen15DenseCoeffsBaseINS_6MatrixIfLi2ELi2ELi0ELi2ELi2EEELi3EE11outerStrideEv)
                  00018840    00000010     CarSim.obj (.text:_ZNK5Eigen15DenseCoeffsBaseINS_6MatrixIfLi3ELi4ELi0ELi3ELi4EEELi3EE11outerStrideEv)
                  00018850    00000010     CarSim.obj (.text:_ZNK5Eigen8internal18scalar_constant_opIfEclEv)
                  00018860    00000010     PathGenerator.obj (.text:_ZNK5Eigen9EigenBaseINS_12CwiseUnaryOpINS_8internal14scalar_abs2_opIfEEKNS_13CwiseBinaryOpINS2_20scalar_difference_opIffEEKNS_6MatrixIfLi2ELi1ELi0ELi2ELi1EEESA_EEEEE4colsEv)
                  00018870    00000010     PathGenerator.obj (.text:_ZNK5Eigen9EigenBaseINS_12CwiseUnaryOpINS_8internal14scalar_abs2_opIfEEKNS_13CwiseBinaryOpINS2_20scalar_difference_opIffEEKNS_6MatrixIfLi2ELi1ELi0ELi2ELi1EEESA_EEEEE4rowsEv)
                  00018880    00000010     PathGenerator.obj (.text:_ZNK5Eigen9EigenBaseINS_12CwiseUnaryOpINS_8internal14scalar_abs2_opIfEEKNS_6MatrixIfLi2ELi1ELi0ELi2ELi1EEEEEE4colsEv)
                  00018890    00000010     PathGenerator.obj (.text:_ZNK5Eigen9EigenBaseINS_12CwiseUnaryOpINS_8internal14scalar_abs2_opIfEEKNS_6MatrixIfLi2ELi1ELi0ELi2ELi1EEEEEE4rowsEv)
                  000188a0    00000010     PathTrackSim.obj (.text:_ZNK5Eigen9EigenBaseINS_12CwiseUnaryOpINS_8internal14scalar_abs2_opIfEEKNS_6MatrixIfLi3ELi1ELi0ELi3ELi1EEEEEE4colsEv)
                  000188b0    00000010     PathTrackSim.obj (.text:_ZNK5Eigen9EigenBaseINS_12CwiseUnaryOpINS_8internal14scalar_abs2_opIfEEKNS_6MatrixIfLi3ELi1ELi0ELi3ELi1EEEEEE4rowsEv)
                  000188c0    00000010     PathGenerator.obj (.text:_ZNK5Eigen9EigenBaseINS_13CwiseBinaryOpINS_8internal22scalar_conj_product_opIffEEKNS_6MatrixIfLi2ELi1ELi0ELi2ELi1EEES7_EEE4colsEv)
                  000188d0    00000010     PathGenerator.obj (.text:_ZNK5Eigen9EigenBaseINS_13CwiseBinaryOpINS_8internal22scalar_conj_product_opIffEEKNS_6MatrixIfLi2ELi1ELi0ELi2ELi1EEES7_EEE4rowsEv)
                  000188e0    00000010     PathTrackSim.obj (.text:_ZNK5Eigen9EigenBaseINS_13CwiseBinaryOpINS_8internal22scalar_conj_product_opIffEEKNS_6MatrixIfLi3ELi1ELi0ELi3ELi1EEES7_EEE4colsEv)
                  000188f0    00000010     PathTrackSim.obj (.text:_ZNK5Eigen9EigenBaseINS_13CwiseBinaryOpINS_8internal22scalar_conj_product_opIffEEKNS_6MatrixIfLi3ELi1ELi0ELi3ELi1EEES7_EEE4rowsEv)
                  00018900    00000010     PathGenerator.obj (.text:_ZNK5Eigen9EigenBaseINS_5BlockINS_6MatrixIfLi2ELi2ELi0ELi2ELi2EEELin1ELin1ELb0EEEE4colsEv)
                  00018910    00000010     PathGenerator.obj (.text:_ZNK5Eigen9EigenBaseINS_5BlockINS_6MatrixIfLi2ELi2ELi0ELi2ELi2EEELin1ELin1ELb0EEEE4rowsEv)
                  00018920    00000010     CarSim.obj (.text:_ZNK5Eigen9EigenBaseINS_5BlockINS_6MatrixIfLi3ELi4ELi0ELi3ELi4EEELi3ELi1ELb1EEEE4colsEv)
                  00018930    00000010     CarSim.obj (.text:_ZNK5Eigen9EigenBaseINS_5BlockINS_6MatrixIfLi3ELi4ELi0ELi3ELi4EEELi3ELi1ELb1EEEE4rowsEv)
                  00018940    00000010     PathGenerator.obj (.text:_ZNK5Eigen9EigenBaseINS_6MatrixIfLi2ELi1ELi0ELi2ELi1EEEE4colsEv)
                  00018950    00000010     PathGenerator.obj (.text:_ZNK5Eigen9EigenBaseINS_6MatrixIfLi2ELi1ELi0ELi2ELi1EEEE4rowsEv)
                  00018960    00000010     PathGenerator.obj (.text:_ZNK5Eigen9EigenBaseINS_6MatrixIfLi2ELi2ELi0ELi2ELi2EEEE4colsEv)
                  00018970    00000010     PathGenerator.obj (.text:_ZNK5Eigen9EigenBaseINS_6MatrixIfLi2ELi2ELi0ELi2ELi2EEEE4rowsEv)
                  00018980    00000010     Task.obj (.text:_ZNK5Eigen9EigenBaseINS_6MatrixIfLi3ELi1ELi0ELi3ELi1EEEE4colsEv)
                  00018990    00000010     Task.obj (.text:_ZNK5Eigen9EigenBaseINS_6MatrixIfLi3ELi1ELi0ELi3ELi1EEEE4rowsEv)
                  000189a0    00000010     CarSim.obj (.text:_ZNK5Eigen9EigenBaseINS_6MatrixIfLi3ELi4ELi0ELi3ELi4EEEE4colsEv)
                  000189b0    00000010     CarSim.obj (.text:_ZNK5Eigen9EigenBaseINS_6MatrixIfLi3ELi4ELi0ELi3ELi4EEEE4rowsEv)
                  000189c0    00000010     PathGenerator.obj (.text:_ZNKSt3__210__list_impIPN9pathTrack8PathPartENS_9allocatorIS3_EEE13__end_as_linkEv)
                  000189d0    00000010     PathTrackSim.obj (.text:_ZNKSt3__210__list_impIfNS_9allocatorIfEEE13__end_as_linkEv)
                  000189e0    00000010     PathGenerator.obj (.text:_ZNKSt3__215__list_iteratorIPN9pathTrack8PathPartEPvEdeEv)
                  000189f0    00000010     PathTrackSim.obj (.text:_ZNKSt3__215__list_iteratorIfPvEdeEv)
                  00018a00    00000010     PathGenerator.obj (.text:_ZNKSt3__26vectorItNS_9allocatorItEEE31__annotate_contiguous_containerEPKvS5_S5_S5_)
                  00018a10    00000010     PathGenerator.obj (.text:_ZNKSt3__29allocatorINS_11__list_nodeIPN9pathTrack8PathPartEPvEEE8max_sizeEv)
                  00018a20    00000010     PathTrackSim.obj (.text:_ZNKSt3__29allocatorINS_11__list_nodeIfPvEEE8max_sizeEv)
                  00018a30    00000010     PathGenerator.obj (.text:_ZNSt3__210unique_ptrINS_11__list_nodeIPN9pathTrack8PathPartEPvEENS_22__allocator_destructorINS_9allocatorIS6_EEEEED1Ev)
                  00018a40    00000010     PathTrackSim.obj (.text:_ZNSt3__210unique_ptrINS_11__list_nodeIfPvEENS_22__allocator_destructorINS_9allocatorIS3_EEEEED1Ev)
                  00018a50    00000010     PathTrackSim.obj (.text:_ZNSt3__213__vector_baseItNS_9allocatorItEEE5clearEv)
                  00018a60    00000010     PathGenerator.obj (.text:_ZNSt3__214__split_bufferItRNS_9allocatorItEEE5clearEv)
                  00018a70    00000010     PathGenerator.obj (.text:_ZNSt3__216__swap_allocatorINS_9allocatorIjEEEEvRT_S4_NS_17integral_constantIbLb0EEE)
                  00018a80    00000010     PathGenerator.obj (.text:_ZNSt3__216allocator_traitsINS_9allocatorINS_11__list_nodeIPN9pathTrack8PathPartEPvEEEEE9__destroyIS5_EEvNS_17integral_constantIbLb0EEERS8_PT_)
                  00018a90    00000010     PathTrackSim.obj (.text:_ZNSt3__216allocator_traitsINS_9allocatorINS_11__list_nodeIfPvEEEEE9__destroyIfEEvNS_17integral_constantIbLb0EEERS5_PT_)
                  00018aa0    00000010     PathGenerator.obj (.text:_ZNSt3__216allocator_traitsINS_9allocatorIjEEE10__max_sizeENS_17integral_constantIbLb1EEERKS2_)
                  00018ab0    00000010     PathGenerator.obj (.text:_ZNSt3__216allocator_traitsINS_9allocatorIjEEE8max_sizeERKS2_)
                  00018ac0    00000010     PathGenerator.obj (.text:_ZNSt3__216allocator_traitsINS_9allocatorItEEE10__max_sizeENS_17integral_constantIbLb1EEERKS2_)
                  00018ad0    00000010     PathGenerator.obj (.text:_ZNSt3__216allocator_traitsINS_9allocatorItEEE8max_sizeERKS2_)
                  00018ae0    00000010     PathGenerator.obj (.text:_ZNSt3__222__compressed_pair_elemINS_22__allocator_destructorINS_9allocatorINS_11__list_nodeIPN9pathTrack8PathPartEPvEEEEEELi1ELb0EEC2ISA_vEEOT_)
                  00018af0    00000010     PathTrackSim.obj (.text:_ZNSt3__222__compressed_pair_elemINS_22__allocator_destructorINS_9allocatorINS_11__list_nodeIfPvEEEEEELi1ELb0EEC2IS7_vEEOT_)
                  00018b00    00000010     PathGenerator.obj (.text:_ZNSt3__222__compressed_pair_elemINS_9allocatorIjEELi1ELb1EEC1IS2_vEEOT_)
                  00018b10    00000010     PathGenerator.obj (.text:_ZNSt3__222__compressed_pair_elemINS_9allocatorIjEELi1ELb1EEC2IS2_vEEOT_)
                  00018b20    00000010     PathGenerator.obj (.text:_ZNSt3__222__compressed_pair_elemIPNS_11__list_nodeIPN9pathTrack8PathPartEPvEELi0ELb0EEC2IRS7_vEEOT_)
                  00018b30    00000010     PathTrackSim.obj (.text:_ZNSt3__222__compressed_pair_elemIPNS_11__list_nodeIfPvEELi0ELb0EEC2IRS4_vEEOT_)
                  00018b40    00000010     PathGenerator.obj (.text:_ZNSt3__222__compressed_pair_elemIPtLi0ELb0EEC2IDnvEEOT_)
                  00018b50    00000010     PathGenerator.obj (.text:_ZNSt3__222__compressed_pair_elemIRNS_9allocatorItEELi1ELb0EEC2IS3_vEEOT_)
                  00018b60    00000010     PathGenerator.obj (.text:_ZNSt3__222__compressed_pair_elemIjLi0ELb0EEC2IivEEOT_)
                  00018b70    00000010     PathGenerator.obj (.text:_ZNSt3__26vectorIbNS_9allocatorIbEEE5clearEv)
                  00018b80    00000010     Task.obj (.text:_ZNSt3__26vectorIbNS_9allocatorIbEEEixEj)
                  00018b90    00000010     PathGenerator.obj (.text:_ZNSt3__26vectorItNS_9allocatorItEEE24__RAII_IncreaseAnnotatorC1ERKS3_j)
                  00018ba0    00000010     PathGenerator.obj (.text:_ZNSt3__29allocatorINS_11__list_nodeIPN9pathTrack8PathPartEPvEEE10deallocateEPS6_j)
                  00018bb0    00000010     PathTrackSim.obj (.text:_ZNSt3__29allocatorINS_11__list_nodeIfPvEEE10deallocateEPS3_j)
                  00018bc0    00000010     PathGenerator.obj (.text:_ZNSt3__29allocatorIjE10deallocateEPjj)
                  00018bd0    00000010     PathGenerator.obj (.text:_ZNSt3__29allocatorItE10deallocateEPtj)
                  00018be0    00000010     rtsv7M4_T_le_v4SPD16_eabi.lib : tolower.c.obj (.text:tolower)
                  00018bf0    0000000e     msp432p4xx_driverlib.lib : systick.o (.text:SysTick_registerInterrupt)
                  00018bfe    0000000e     rtsv7M4_T_le_v4SPD16_eabi.lib : typeinfo.c.obj (.text:_ZN10__cxxabiv117__class_type_infoD0Ev)
                  00018c0c    0000000e                                   : typeinfo.c.obj (.text:_ZN10__cxxabiv120__si_class_type_infoD0Ev)
                  00018c1a    00000006     --HOLE-- [fill = 0]
                  00018c20    0000000e     main.obj (.text:_ZN18ESOSpeedControllerD1Ev)
                  00018c2e    00000002     --HOLE-- [fill = 0]
                  00018c30    0000000e     main.obj (.text:_ZN18PIDSpeedControllerD1Ev)
                  00018c3e    00000002     --HOLE-- [fill = 0]
                  00018c40    0000000e     main.obj (.text:_ZN21PIDDistanceControllerD1Ev)
                  00018c4e    00000002     --HOLE-- [fill = 0]
                  00018c50    0000000e     Car.obj (.text:_ZN22PIDPathTrackControllerD1Ev)
                  00018c5e    00000002     --HOLE-- [fill = 0]
                  00018c60    0000000e     main.obj (.text:_ZN23PIDParkAdjustControllerD1Ev)
                  00018c6e    00000002     --HOLE-- [fill = 0]
                  00018c70    0000000e     PathGenerator.obj (.text:_ZN5Eigen10MatrixBaseINS_12CwiseUnaryOpINS_8internal14scalar_abs2_opIfEEKNS_13CwiseBinaryOpINS2_20scalar_difference_opIffEEKNS_6MatrixIfLi2ELi1ELi0ELi2ELi1EEESA_EEEEEC1Ev)
                  00018c7e    00000002     --HOLE-- [fill = 0]
                  00018c80    0000000e     PathGenerator.obj (.text:_ZN5Eigen10MatrixBaseINS_12CwiseUnaryOpINS_8internal14scalar_abs2_opIfEEKNS_6MatrixIfLi2ELi1ELi0ELi2ELi1EEEEEEC1Ev)
                  00018c8e    00000002     --HOLE-- [fill = 0]
                  00018c90    0000000e     PathTrackSim.obj (.text:_ZN5Eigen10MatrixBaseINS_12CwiseUnaryOpINS_8internal14scalar_abs2_opIfEEKNS_6MatrixIfLi3ELi1ELi0ELi3ELi1EEEEEEC1Ev)
                  00018c9e    00000002     --HOLE-- [fill = 0]
                  00018ca0    0000000e     PathTrackSim.obj (.text:_ZN5Eigen10MatrixBaseINS_12CwiseUnaryOpINS_8internal18scalar_opposite_opIfEEKNS_6MatrixIfLi2ELi1ELi0ELi2ELi1EEEEEEC1Ev)
                  00018cae    00000002     --HOLE-- [fill = 0]
                  00018cb0    0000000e     PathTrackSim.obj (.text:_ZN5Eigen10MatrixBaseINS_13CwiseBinaryOpINS_8internal13scalar_sum_opIffEEKNS1_INS2_17scalar_product_opIffEEKNS_14CwiseNullaryOpINS2_18scalar_constant_opIfEEKNS_6MatrixIfLi3ELi1ELi0ELi3ELi1EEEEESC_EESG_EEEC1Ev)
                  00018cbe    00000002     --HOLE-- [fill = 0]
                  00018cc0    0000000e     CarSim.obj (.text:_ZN5Eigen10MatrixBaseINS_13CwiseBinaryOpINS_8internal13scalar_sum_opIffEEKNS1_IS4_KNS1_IS4_KNS_5BlockINS_6MatrixIfLi3ELi4ELi0ELi3ELi4EEELi3ELi1ELb1EEEKNS1_INS2_17scalar_product_opIffEEKNS_14CwiseNullaryOpINS2_18scalar_constant_opIfEEKNS6_IfLi3ELi1ELi0ELi3ELi1EEEEES9_EEEESK_EES9_EEEC1Ev)
                  00018cce    00000002     --HOLE-- [fill = 0]
                  00018cd0    0000000e     CarSim.obj (.text:_ZN5Eigen10MatrixBaseINS_13CwiseBinaryOpINS_8internal13scalar_sum_opIffEEKNS1_IS4_KNS_5BlockINS_6MatrixIfLi3ELi4ELi0ELi3ELi4EEELi3ELi1ELb1EEEKNS1_INS2_17scalar_product_opIffEEKNS_14CwiseNullaryOpINS2_18scalar_constant_opIfEEKNS6_IfLi3ELi1ELi0ELi3ELi1EEEEES9_EEEESK_EEEC1Ev)
                  00018cde    00000002     --HOLE-- [fill = 0]
                  00018ce0    0000000e     CarSim.obj (.text:_ZN5Eigen10MatrixBaseINS_13CwiseBinaryOpINS_8internal13scalar_sum_opIffEEKNS_5BlockINS_6MatrixIfLi3ELi4ELi0ELi3ELi4EEELi3ELi1ELb1EEEKNS1_INS2_17scalar_product_opIffEEKNS_14CwiseNullaryOpINS2_18scalar_constant_opIfEEKNS6_IfLi3ELi1ELi0ELi3ELi1EEEEES9_EEEEEC1Ev)
                  00018cee    00000002     --HOLE-- [fill = 0]
                  00018cf0    0000000e     PathGenerator.obj (.text:_ZN5Eigen10MatrixBaseINS_13CwiseBinaryOpINS_8internal13scalar_sum_opIffEEKNS_6MatrixIfLi2ELi1ELi0ELi2ELi1EEEKNS1_INS2_17scalar_product_opIffEEKNS_14CwiseNullaryOpINS2_18scalar_constant_opIfEES7_EEKNS1_INS2_20scalar_difference_opIffEES7_S7_EEEEEEEC1Ev)
                  00018cfe    00000002     --HOLE-- [fill = 0]
                  00018d00    0000000e     PathGenerator.obj (.text:_ZN5Eigen10MatrixBaseINS_13CwiseBinaryOpINS_8internal13scalar_sum_opIffEEKNS_6MatrixIfLi2ELi1ELi0ELi2ELi1EEEKNS1_INS2_17scalar_product_opIffEEKNS_14CwiseNullaryOpINS2_18scalar_constant_opIfEES7_EES7_EEEEEC1Ev)
                  00018d0e    00000002     --HOLE-- [fill = 0]
                  00018d10    0000000e     PathGenerator.obj (.text:_ZN5Eigen10MatrixBaseINS_13CwiseBinaryOpINS_8internal13scalar_sum_opIffEEKNS_6MatrixIfLi2ELi1ELi0ELi2ELi1EEES7_EEEC1Ev)
                  00018d1e    00000002     --HOLE-- [fill = 0]
                  00018d20    0000000e     CarSim.obj (.text:_ZN5Eigen10MatrixBaseINS_13CwiseBinaryOpINS_8internal13scalar_sum_opIffEEKNS_6MatrixIfLi3ELi1ELi0ELi3ELi1EEEKNS1_INS2_17scalar_product_opIffEEKNS_14CwiseNullaryOpINS2_18scalar_constant_opIfEES7_EEKNS1_IS4_KNS1_IS4_KNS1_IS4_KNS_5BlockINS5_IfLi3ELi4ELi0ELi3ELi4EEELi3ELi1ELb1EEEKNS1_IS9_SE_SI_EEEESK_EESI_EEEEEEEC1Ev)
                  00018d2e    00000002     --HOLE-- [fill = 0]
                  00018d30    0000000e     PathGenerator.obj (.text:_ZN5Eigen10MatrixBaseINS_13CwiseBinaryOpINS_8internal17scalar_product_opIffEEKNS_14CwiseNullaryOpINS2_18scalar_constant_opIfEEKNS_6MatrixIfLi2ELi1ELi0ELi2ELi1EEEEEKNS1_INS2_20scalar_difference_opIffEESA_SA_EEEEEC1Ev)
                  00018d3e    00000002     --HOLE-- [fill = 0]
                  00018d40    0000000e     PathGenerator.obj (.text:_ZN5Eigen10MatrixBaseINS_13CwiseBinaryOpINS_8internal17scalar_product_opIffEEKNS_14CwiseNullaryOpINS2_18scalar_constant_opIfEEKNS_6MatrixIfLi2ELi1ELi0ELi2ELi1EEEEESA_EEEC1Ev)
                  00018d4e    00000002     --HOLE-- [fill = 0]
                  00018d50    0000000e     CarSim.obj (.text:_ZN5Eigen10MatrixBaseINS_13CwiseBinaryOpINS_8internal17scalar_product_opIffEEKNS_14CwiseNullaryOpINS2_18scalar_constant_opIfEEKNS_6MatrixIfLi3ELi1ELi0ELi3ELi1EEEEEKNS1_INS2_13scalar_sum_opIffEEKNS1_ISE_KNS1_ISE_KNS_5BlockINS8_IfLi3ELi4ELi0ELi3ELi4EEELi3ELi1ELb1EEEKNS1_IS4_SC_SI_EEEESK_EESI_EEEEEC1Ev)
                  00018d5e    00000002     --HOLE-- [fill = 0]
                  00018d60    0000000e     CarSim.obj (.text:_ZN5Eigen10MatrixBaseINS_13CwiseBinaryOpINS_8internal17scalar_product_opIffEEKNS_14CwiseNullaryOpINS2_18scalar_constant_opIfEEKNS_6MatrixIfLi3ELi1ELi0ELi3ELi1EEEEEKNS_5BlockINS8_IfLi3ELi4ELi0ELi3ELi4EEELi3ELi1ELb1EEEEEEC1Ev)
                  00018d6e    00000002     --HOLE-- [fill = 0]
                  00018d70    0000000e     PathTrackSim.obj (.text:_ZN5Eigen10MatrixBaseINS_13CwiseBinaryOpINS_8internal17scalar_product_opIffEEKNS_14CwiseNullaryOpINS2_18scalar_constant_opIfEEKNS_6MatrixIfLi3ELi1ELi0ELi3ELi1EEEEESA_EEEC1Ev)
                  00018d7e    00000002     --HOLE-- [fill = 0]
                  00018d80    0000000e     PathGenerator.obj (.text:_ZN5Eigen10MatrixBaseINS_13CwiseBinaryOpINS_8internal20scalar_difference_opIffEEKNS_6MatrixIfLi2ELi1ELi0ELi2ELi1EEES7_EEEC1Ev)
                  00018d8e    00000002     --HOLE-- [fill = 0]
                  00018d90    0000000e     PathGenerator.obj (.text:_ZN5Eigen10MatrixBaseINS_13CwiseBinaryOpINS_8internal22scalar_conj_product_opIffEEKNS_6MatrixIfLi2ELi1ELi0ELi2ELi1EEES7_EEEC1Ev)
                  00018d9e    00000002     --HOLE-- [fill = 0]
                  00018da0    0000000e     PathTrackSim.obj (.text:_ZN5Eigen10MatrixBaseINS_13CwiseBinaryOpINS_8internal22scalar_conj_product_opIffEEKNS_6MatrixIfLi3ELi1ELi0ELi3ELi1EEES7_EEEC1Ev)
                  00018dae    00000002     --HOLE-- [fill = 0]
                  00018db0    0000000e     PathGenerator.obj (.text:_ZN5Eigen10MatrixBaseINS_14CwiseNullaryOpINS_8internal18scalar_constant_opIfEEKNS_6MatrixIfLi2ELi1ELi0ELi2ELi1EEEEEEC1Ev)
                  00018dbe    00000002     --HOLE-- [fill = 0]
                  00018dc0    0000000e     CarSim.obj (.text:_ZN5Eigen10MatrixBaseINS_14CwiseNullaryOpINS_8internal18scalar_constant_opIfEEKNS_6MatrixIfLi3ELi1ELi0ELi3ELi1EEEEEEC1Ev)
                  00018dce    00000002     --HOLE-- [fill = 0]
                  00018dd0    0000000e     PathGenerator.obj (.text:_ZN5Eigen10MatrixBaseINS_14CwiseNullaryOpINS_8internal18scalar_constant_opIfEENS_6MatrixIfLi2ELi1ELi0ELi2ELi1EEEEEEC1Ev)
                  00018dde    00000002     --HOLE-- [fill = 0]
                  00018de0    0000000e     Car.obj (.text:_ZN5Eigen10MatrixBaseINS_3MapIKNS_6MatrixIfLi3ELi1ELi0ELi3ELi1EEELi0ENS_6StrideILi0ELi0EEEEEEC1Ev)
                  00018dee    00000002     --HOLE-- [fill = 0]
                  00018df0    0000000e     PathGenerator.obj (.text:_ZN5Eigen10MatrixBaseINS_5BlockINS_6MatrixIfLi2ELi2ELi0ELi2ELi2EEELin1ELin1ELb0EEEEC1Ev)
                  00018dfe    00000002     --HOLE-- [fill = 0]
                  00018e00    0000000e     CarSim.obj (.text:_ZN5Eigen10MatrixBaseINS_5BlockINS_6MatrixIfLi3ELi4ELi0ELi3ELi4EEELi3ELi1ELb1EEEEC1Ev)
                  00018e0e    00000002     --HOLE-- [fill = 0]
                  00018e10    0000000e     Task.obj (.text:_ZN5Eigen10MatrixBaseINS_6MatrixIfLi2ELi1ELi0ELi2ELi1EEEEC1Ev)
                  00018e1e    00000002     --HOLE-- [fill = 0]
                  00018e20    0000000e     PathGenerator.obj (.text:_ZN5Eigen10MatrixBaseINS_6MatrixIfLi2ELi2ELi0ELi2ELi2EEEEC1Ev)
                  00018e2e    00000002     --HOLE-- [fill = 0]
                  00018e30    0000000e     Car.obj (.text:_ZN5Eigen10MatrixBaseINS_6MatrixIfLi3ELi1ELi0ELi3ELi1EEEEC1Ev)
                  00018e3e    00000002     --HOLE-- [fill = 0]
                  00018e40    0000000e     CarSim.obj (.text:_ZN5Eigen10MatrixBaseINS_6MatrixIfLi3ELi4ELi0ELi3ELi4EEEEC1Ev)
                  00018e4e    00000002     --HOLE-- [fill = 0]
                  00018e50    0000000e     PathGenerator.obj (.text:_ZN5Eigen10MatrixBaseINS_9TransposeIKNS_6MatrixIfLi2ELi1ELi0ELi2ELi1EEEEEEC1Ev)
                  00018e5e    00000002     --HOLE-- [fill = 0]
                  00018e60    0000000e     PathGenerator.obj (.text:_ZN5Eigen10MatrixBaseINS_9TransposeINS_6MatrixIfLi2ELi1ELi0ELi2ELi1EEEEEEC1Ev)
                  00018e6e    00000002     --HOLE-- [fill = 0]
                  00018e70    0000000e     CarSim.obj (.text:_ZN5Eigen12DenseStorageIfLi12ELi3ELi4ELi0EEC1Ev)
                  00018e7e    00000002     --HOLE-- [fill = 0]
                  00018e80    0000000e     Task.obj (.text:_ZN5Eigen12DenseStorageIfLi2ELi2ELi1ELi0EEC1Ev)
                  00018e8e    00000002     --HOLE-- [fill = 0]
                  00018e90    0000000e     Car.obj (.text:_ZN5Eigen12DenseStorageIfLi3ELi3ELi1ELi0EEC1Ev)
                  00018e9e    00000002     --HOLE-- [fill = 0]
                  00018ea0    0000000e     PathGenerator.obj (.text:_ZN5Eigen12DenseStorageIfLi4ELi2ELi2ELi0EEC1Ev)
                  00018eae    00000002     --HOLE-- [fill = 0]
                  00018eb0    0000000e     PathGenerator.obj (.text:_ZN5Eigen13TransposeImplIKNS_6MatrixIfLi2ELi1ELi0ELi2ELi1EEENS_5DenseEEC1Ev)
                  00018ebe    00000002     --HOLE-- [fill = 0]
                  00018ec0    0000000e     PathGenerator.obj (.text:_ZN5Eigen13TransposeImplINS_6MatrixIfLi2ELi1ELi0ELi2ELi1EEENS_5DenseEEC1Ev)
                  00018ece    00000002     --HOLE-- [fill = 0]
                  00018ed0    0000000e     PathGenerator.obj (.text:_ZN5Eigen16CwiseUnaryOpImplINS_8internal14scalar_abs2_opIfEEKNS_13CwiseBinaryOpINS1_20scalar_difference_opIffEEKNS_6MatrixIfLi2ELi1ELi0ELi2ELi1EEES9_EENS_5DenseEEC1Ev)
                  00018ede    00000002     --HOLE-- [fill = 0]
                  00018ee0    0000000e     PathGenerator.obj (.text:_ZN5Eigen16CwiseUnaryOpImplINS_8internal14scalar_abs2_opIfEEKNS_6MatrixIfLi2ELi1ELi0ELi2ELi1EEENS_5DenseEEC1Ev)
                  00018eee    00000002     --HOLE-- [fill = 0]
                  00018ef0    0000000e     PathTrackSim.obj (.text:_ZN5Eigen16CwiseUnaryOpImplINS_8internal14scalar_abs2_opIfEEKNS_6MatrixIfLi3ELi1ELi0ELi3ELi1EEENS_5DenseEEC1Ev)
                  00018efe    00000002     --HOLE-- [fill = 0]
                  00018f00    0000000e     PathTrackSim.obj (.text:_ZN5Eigen16CwiseUnaryOpImplINS_8internal18scalar_opposite_opIfEEKNS_6MatrixIfLi2ELi1ELi0ELi2ELi1EEENS_5DenseEEC1Ev)
                  00018f0e    00000002     --HOLE-- [fill = 0]
                  00018f10    0000000e     PathTrackSim.obj (.text:_ZN5Eigen17CwiseBinaryOpImplINS_8internal13scalar_sum_opIffEEKNS_13CwiseBinaryOpINS1_17scalar_product_opIffEEKNS_14CwiseNullaryOpINS1_18scalar_constant_opIfEEKNS_6MatrixIfLi3ELi1ELi0ELi3ELi1EEEEESC_EESG_NS_5DenseEEC1Ev)
                  00018f1e    00000002     --HOLE-- [fill = 0]
                  00018f20    0000000e     CarSim.obj (.text:_ZN5Eigen17CwiseBinaryOpImplINS_8internal13scalar_sum_opIffEEKNS_13CwiseBinaryOpIS3_KNS4_IS3_KNS_5BlockINS_6MatrixIfLi3ELi4ELi0ELi3ELi4EEELi3ELi1ELb1EEEKNS4_INS1_17scalar_product_opIffEEKNS_14CwiseNullaryOpINS1_18scalar_constant_opIfEEKNS6_IfLi3ELi1ELi0ELi3ELi1EEEEES9_EEEESK_EES9_NS_5DenseEEC1Ev)
                  00018f2e    00000002     --HOLE-- [fill = 0]
                  00018f30    0000000e     CarSim.obj (.text:_ZN5Eigen17CwiseBinaryOpImplINS_8internal13scalar_sum_opIffEEKNS_13CwiseBinaryOpIS3_KNS_5BlockINS_6MatrixIfLi3ELi4ELi0ELi3ELi4EEELi3ELi1ELb1EEEKNS4_INS1_17scalar_product_opIffEEKNS_14CwiseNullaryOpINS1_18scalar_constant_opIfEEKNS6_IfLi3ELi1ELi0ELi3ELi1EEEEES9_EEEESK_NS_5DenseEEC1Ev)
                  00018f3e    00000002     --HOLE-- [fill = 0]
                  00018f40    0000000e     CarSim.obj (.text:_ZN5Eigen17CwiseBinaryOpImplINS_8internal13scalar_sum_opIffEEKNS_5BlockINS_6MatrixIfLi3ELi4ELi0ELi3ELi4EEELi3ELi1ELb1EEEKNS_13CwiseBinaryOpINS1_17scalar_product_opIffEEKNS_14CwiseNullaryOpINS1_18scalar_constant_opIfEEKNS5_IfLi3ELi1ELi0ELi3ELi1EEEEES8_EENS_5DenseEEC1Ev)
                  00018f4e    00000002     --HOLE-- [fill = 0]
                  00018f50    0000000e     PathGenerator.obj (.text:_ZN5Eigen17CwiseBinaryOpImplINS_8internal13scalar_sum_opIffEEKNS_6MatrixIfLi2ELi1ELi0ELi2ELi1EEEKNS_13CwiseBinaryOpINS1_17scalar_product_opIffEEKNS_14CwiseNullaryOpINS1_18scalar_constant_opIfEES6_EEKNS7_INS1_20scalar_difference_opIffEES6_S6_EEEENS_5DenseEEC1Ev)
                  00018f5e    00000002     --HOLE-- [fill = 0]
                  00018f60    0000000e     PathGenerator.obj (.text:_ZN5Eigen17CwiseBinaryOpImplINS_8internal13scalar_sum_opIffEEKNS_6MatrixIfLi2ELi1ELi0ELi2ELi1EEEKNS_13CwiseBinaryOpINS1_17scalar_product_opIffEEKNS_14CwiseNullaryOpINS1_18scalar_constant_opIfEES6_EES6_EENS_5DenseEEC1Ev)
                  00018f6e    00000002     --HOLE-- [fill = 0]
                  00018f70    0000000e     PathGenerator.obj (.text:_ZN5Eigen17CwiseBinaryOpImplINS_8internal13scalar_sum_opIffEEKNS_6MatrixIfLi2ELi1ELi0ELi2ELi1EEES6_NS_5DenseEEC1Ev)
                  00018f7e    00000002     --HOLE-- [fill = 0]
                  00018f80    0000000e     CarSim.obj (.text:_ZN5Eigen17CwiseBinaryOpImplINS_8internal13scalar_sum_opIffEEKNS_6MatrixIfLi3ELi1ELi0ELi3ELi1EEEKNS_13CwiseBinaryOpINS1_17scalar_product_opIffEEKNS_14CwiseNullaryOpINS1_18scalar_constant_opIfEES6_EEKNS7_IS3_KNS7_IS3_KNS7_IS3_KNS_5BlockINS4_IfLi3ELi4ELi0ELi3ELi4EEELi3ELi1ELb1EEEKNS7_IS9_SE_SI_EEEESK_EESI_EEEENS_5DenseEEC1Ev)
                  00018f8e    00000002     --HOLE-- [fill = 0]
                  00018f90    0000000e     PathGenerator.obj (.text:_ZN5Eigen17CwiseBinaryOpImplINS_8internal17scalar_product_opIffEEKNS_14CwiseNullaryOpINS1_18scalar_constant_opIfEEKNS_6MatrixIfLi2ELi1ELi0ELi2ELi1EEEEEKNS_13CwiseBinaryOpINS1_20scalar_difference_opIffEES9_S9_EENS_5DenseEEC1Ev)
                  00018f9e    00000002     --HOLE-- [fill = 0]
                  00018fa0    0000000e     PathGenerator.obj (.text:_ZN5Eigen17CwiseBinaryOpImplINS_8internal17scalar_product_opIffEEKNS_14CwiseNullaryOpINS1_18scalar_constant_opIfEEKNS_6MatrixIfLi2ELi1ELi0ELi2ELi1EEEEES9_NS_5DenseEEC1Ev)
                  00018fae    00000002     --HOLE-- [fill = 0]
                  00018fb0    0000000e     CarSim.obj (.text:_ZN5Eigen17CwiseBinaryOpImplINS_8internal17scalar_product_opIffEEKNS_14CwiseNullaryOpINS1_18scalar_constant_opIfEEKNS_6MatrixIfLi3ELi1ELi0ELi3ELi1EEEEEKNS_13CwiseBinaryOpINS1_13scalar_sum_opIffEEKNSC_ISE_KNSC_ISE_KNS_5BlockINS7_IfLi3ELi4ELi0ELi3ELi4EEELi3ELi1ELb1EEEKNSC_IS3_SB_SI_EEEESK_EESI_EENS_5DenseEEC1Ev)
                  00018fbe    00000002     --HOLE-- [fill = 0]
                  00018fc0    0000000e     CarSim.obj (.text:_ZN5Eigen17CwiseBinaryOpImplINS_8internal17scalar_product_opIffEEKNS_14CwiseNullaryOpINS1_18scalar_constant_opIfEEKNS_6MatrixIfLi3ELi1ELi0ELi3ELi1EEEEEKNS_5BlockINS7_IfLi3ELi4ELi0ELi3ELi4EEELi3ELi1ELb1EEENS_5DenseEEC1Ev)
                  00018fce    00000002     --HOLE-- [fill = 0]
                  00018fd0    0000000e     PathTrackSim.obj (.text:_ZN5Eigen17CwiseBinaryOpImplINS_8internal17scalar_product_opIffEEKNS_14CwiseNullaryOpINS1_18scalar_constant_opIfEEKNS_6MatrixIfLi3ELi1ELi0ELi3ELi1EEEEES9_NS_5DenseEEC1Ev)
                  00018fde    00000002     --HOLE-- [fill = 0]
                  00018fe0    0000000e     PathGenerator.obj (.text:_ZN5Eigen17CwiseBinaryOpImplINS_8internal20scalar_difference_opIffEEKNS_6MatrixIfLi2ELi1ELi0ELi2ELi1EEES6_NS_5DenseEEC1Ev)
                  00018fee    00000002     --HOLE-- [fill = 0]
                  00018ff0    0000000e     PathGenerator.obj (.text:_ZN5Eigen17CwiseBinaryOpImplINS_8internal22scalar_conj_product_opIffEEKNS_6MatrixIfLi2ELi1ELi0ELi2ELi1EEES6_NS_5DenseEEC1Ev)
                  00018ffe    00000002     --HOLE-- [fill = 0]
                  00019000    0000000e     PathTrackSim.obj (.text:_ZN5Eigen17CwiseBinaryOpImplINS_8internal22scalar_conj_product_opIffEEKNS_6MatrixIfLi3ELi1ELi0ELi3ELi1EEES6_NS_5DenseEEC1Ev)
                  0001900e    00000002     --HOLE-- [fill = 0]
                  00019010    0000000e     Car.obj (.text:_ZN5Eigen3MapIKNS_6MatrixIfLi3ELi1ELi0ELi3ELi1EEELi0ENS_6StrideILi0ELi0EEEE20cast_to_pointer_typeEPKf)
                  0001901e    00000002     --HOLE-- [fill = 0]
                  00019020    0000000e     PathGenerator.obj (.text:_ZN5Eigen8internal14evaluator_baseINS_12CwiseUnaryOpINS0_14scalar_abs2_opIfEEKNS_13CwiseBinaryOpINS0_20scalar_difference_opIffEEKNS_6MatrixIfLi2ELi1ELi0ELi2ELi1EEESA_EEEEEC1Ev)
                  0001902e    00000002     --HOLE-- [fill = 0]
                  00019030    0000000e     PathGenerator.obj (.text:_ZN5Eigen8internal14evaluator_baseINS_12CwiseUnaryOpINS0_14scalar_abs2_opIfEEKNS_13CwiseBinaryOpINS0_20scalar_difference_opIffEEKNS_6MatrixIfLi2ELi1ELi0ELi2ELi1EEESA_EEEEED1Ev)
                  0001903e    00000002     --HOLE-- [fill = 0]
                  00019040    0000000e     PathGenerator.obj (.text:_ZN5Eigen8internal14evaluator_baseINS_12CwiseUnaryOpINS0_14scalar_abs2_opIfEEKNS_6MatrixIfLi2ELi1ELi0ELi2ELi1EEEEEEC1Ev)
                  0001904e    00000002     --HOLE-- [fill = 0]
                  00019050    0000000e     PathGenerator.obj (.text:_ZN5Eigen8internal14evaluator_baseINS_12CwiseUnaryOpINS0_14scalar_abs2_opIfEEKNS_6MatrixIfLi2ELi1ELi0ELi2ELi1EEEEEED1Ev)
                  0001905e    00000002     --HOLE-- [fill = 0]
                  00019060    0000000e     PathTrackSim.obj (.text:_ZN5Eigen8internal14evaluator_baseINS_12CwiseUnaryOpINS0_14scalar_abs2_opIfEEKNS_6MatrixIfLi3ELi1ELi0ELi3ELi1EEEEEEC1Ev)
                  0001906e    00000002     --HOLE-- [fill = 0]
                  00019070    0000000e     PathTrackSim.obj (.text:_ZN5Eigen8internal14evaluator_baseINS_12CwiseUnaryOpINS0_14scalar_abs2_opIfEEKNS_6MatrixIfLi3ELi1ELi0ELi3ELi1EEEEEED1Ev)
                  0001907e    00000002     --HOLE-- [fill = 0]
                  00019080    0000000e     PathTrackSim.obj (.text:_ZN5Eigen8internal14evaluator_baseINS_12CwiseUnaryOpINS0_18scalar_opposite_opIfEEKNS_6MatrixIfLi2ELi1ELi0ELi2ELi1EEEEEEC1Ev)
                  0001908e    00000002     --HOLE-- [fill = 0]
                  00019090    0000000e     PathTrackSim.obj (.text:_ZN5Eigen8internal14evaluator_baseINS_12CwiseUnaryOpINS0_18scalar_opposite_opIfEEKNS_6MatrixIfLi2ELi1ELi0ELi2ELi1EEEEEED1Ev)
                  0001909e    00000002     --HOLE-- [fill = 0]
                  000190a0    0000000e     PathTrackSim.obj (.text:_ZN5Eigen8internal14evaluator_baseINS_13CwiseBinaryOpINS0_13scalar_sum_opIffEEKNS2_INS0_17scalar_product_opIffEEKNS_14CwiseNullaryOpINS0_18scalar_constant_opIfEEKNS_6MatrixIfLi3ELi1ELi0ELi3ELi1EEEEESC_EESG_EEEC1Ev)
                  000190ae    00000002     --HOLE-- [fill = 0]
                  000190b0    0000000e     PathTrackSim.obj (.text:_ZN5Eigen8internal14evaluator_baseINS_13CwiseBinaryOpINS0_13scalar_sum_opIffEEKNS2_INS0_17scalar_product_opIffEEKNS_14CwiseNullaryOpINS0_18scalar_constant_opIfEEKNS_6MatrixIfLi3ELi1ELi0ELi3ELi1EEEEESC_EESG_EEED1Ev)
                  000190be    00000002     --HOLE-- [fill = 0]
                  000190c0    0000000e     CarSim.obj (.text:_ZN5Eigen8internal14evaluator_baseINS_13CwiseBinaryOpINS0_13scalar_sum_opIffEEKNS2_IS4_KNS2_IS4_KNS_5BlockINS_6MatrixIfLi3ELi4ELi0ELi3ELi4EEELi3ELi1ELb1EEEKNS2_INS0_17scalar_product_opIffEEKNS_14CwiseNullaryOpINS0_18scalar_constant_opIfEEKNS6_IfLi3ELi1ELi0ELi3ELi1EEEEES9_EEEESK_EES9_EEEC1Ev)
                  000190ce    00000002     --HOLE-- [fill = 0]
                  000190d0    0000000e     CarSim.obj (.text:_ZN5Eigen8internal14evaluator_baseINS_13CwiseBinaryOpINS0_13scalar_sum_opIffEEKNS2_IS4_KNS2_IS4_KNS_5BlockINS_6MatrixIfLi3ELi4ELi0ELi3ELi4EEELi3ELi1ELb1EEEKNS2_INS0_17scalar_product_opIffEEKNS_14CwiseNullaryOpINS0_18scalar_constant_opIfEEKNS6_IfLi3ELi1ELi0ELi3ELi1EEEEES9_EEEESK_EES9_EEED1Ev)
                  000190de    00000002     --HOLE-- [fill = 0]
                  000190e0    0000000e     CarSim.obj (.text:_ZN5Eigen8internal14evaluator_baseINS_13CwiseBinaryOpINS0_13scalar_sum_opIffEEKNS2_IS4_KNS_5BlockINS_6MatrixIfLi3ELi4ELi0ELi3ELi4EEELi3ELi1ELb1EEEKNS2_INS0_17scalar_product_opIffEEKNS_14CwiseNullaryOpINS0_18scalar_constant_opIfEEKNS6_IfLi3ELi1ELi0ELi3ELi1EEEEES9_EEEESK_EEEC1Ev)
                  000190ee    00000002     --HOLE-- [fill = 0]
                  000190f0    0000000e     CarSim.obj (.text:_ZN5Eigen8internal14evaluator_baseINS_13CwiseBinaryOpINS0_13scalar_sum_opIffEEKNS2_IS4_KNS_5BlockINS_6MatrixIfLi3ELi4ELi0ELi3ELi4EEELi3ELi1ELb1EEEKNS2_INS0_17scalar_product_opIffEEKNS_14CwiseNullaryOpINS0_18scalar_constant_opIfEEKNS6_IfLi3ELi1ELi0ELi3ELi1EEEEES9_EEEESK_EEED1Ev)
                  000190fe    00000002     --HOLE-- [fill = 0]
                  00019100    0000000e     CarSim.obj (.text:_ZN5Eigen8internal14evaluator_baseINS_13CwiseBinaryOpINS0_13scalar_sum_opIffEEKNS_5BlockINS_6MatrixIfLi3ELi4ELi0ELi3ELi4EEELi3ELi1ELb1EEEKNS2_INS0_17scalar_product_opIffEEKNS_14CwiseNullaryOpINS0_18scalar_constant_opIfEEKNS6_IfLi3ELi1ELi0ELi3ELi1EEEEES9_EEEEEC1Ev)
                  0001910e    00000002     --HOLE-- [fill = 0]
                  00019110    0000000e     CarSim.obj (.text:_ZN5Eigen8internal14evaluator_baseINS_13CwiseBinaryOpINS0_13scalar_sum_opIffEEKNS_5BlockINS_6MatrixIfLi3ELi4ELi0ELi3ELi4EEELi3ELi1ELb1EEEKNS2_INS0_17scalar_product_opIffEEKNS_14CwiseNullaryOpINS0_18scalar_constant_opIfEEKNS6_IfLi3ELi1ELi0ELi3ELi1EEEEES9_EEEEED1Ev)
                  0001911e    00000002     --HOLE-- [fill = 0]
                  00019120    0000000e     PathGenerator.obj (.text:_ZN5Eigen8internal14evaluator_baseINS_13CwiseBinaryOpINS0_13scalar_sum_opIffEEKNS_6MatrixIfLi2ELi1ELi0ELi2ELi1EEEKNS2_INS0_17scalar_product_opIffEEKNS_14CwiseNullaryOpINS0_18scalar_constant_opIfEES7_EEKNS2_INS0_20scalar_difference_opIffEES7_S7_EEEEEEEC1Ev)
                  0001912e    00000002     --HOLE-- [fill = 0]
                  00019130    0000000e     PathGenerator.obj (.text:_ZN5Eigen8internal14evaluator_baseINS_13CwiseBinaryOpINS0_13scalar_sum_opIffEEKNS_6MatrixIfLi2ELi1ELi0ELi2ELi1EEEKNS2_INS0_17scalar_product_opIffEEKNS_14CwiseNullaryOpINS0_18scalar_constant_opIfEES7_EEKNS2_INS0_20scalar_difference_opIffEES7_S7_EEEEEEED1Ev)
                  0001913e    00000002     --HOLE-- [fill = 0]
                  00019140    0000000e     PathGenerator.obj (.text:_ZN5Eigen8internal14evaluator_baseINS_13CwiseBinaryOpINS0_13scalar_sum_opIffEEKNS_6MatrixIfLi2ELi1ELi0ELi2ELi1EEEKNS2_INS0_17scalar_product_opIffEEKNS_14CwiseNullaryOpINS0_18scalar_constant_opIfEES7_EES7_EEEEEC1Ev)
                  0001914e    00000002     --HOLE-- [fill = 0]
                  00019150    0000000e     PathGenerator.obj (.text:_ZN5Eigen8internal14evaluator_baseINS_13CwiseBinaryOpINS0_13scalar_sum_opIffEEKNS_6MatrixIfLi2ELi1ELi0ELi2ELi1EEEKNS2_INS0_17scalar_product_opIffEEKNS_14CwiseNullaryOpINS0_18scalar_constant_opIfEES7_EES7_EEEEED1Ev)
                  0001915e    00000002     --HOLE-- [fill = 0]
                  00019160    0000000e     PathGenerator.obj (.text:_ZN5Eigen8internal14evaluator_baseINS_13CwiseBinaryOpINS0_13scalar_sum_opIffEEKNS_6MatrixIfLi2ELi1ELi0ELi2ELi1EEES7_EEEC1Ev)
                  0001916e    00000002     --HOLE-- [fill = 0]
                  00019170    0000000e     PathGenerator.obj (.text:_ZN5Eigen8internal14evaluator_baseINS_13CwiseBinaryOpINS0_13scalar_sum_opIffEEKNS_6MatrixIfLi2ELi1ELi0ELi2ELi1EEES7_EEED1Ev)
                  0001917e    00000002     --HOLE-- [fill = 0]
                  00019180    0000000e     CarSim.obj (.text:_ZN5Eigen8internal14evaluator_baseINS_13CwiseBinaryOpINS0_13scalar_sum_opIffEEKNS_6MatrixIfLi3ELi1ELi0ELi3ELi1EEEKNS2_INS0_17scalar_product_opIffEEKNS_14CwiseNullaryOpINS0_18scalar_constant_opIfEES7_EEKNS2_IS4_KNS2_IS4_KNS2_IS4_KNS_5BlockINS5_IfLi3ELi4ELi0ELi3ELi4EEELi3ELi1ELb1EEEKNS2_IS9_SE_SI_EEEESK_EESI_EEEEEEEC1Ev)
                  0001918e    00000002     --HOLE-- [fill = 0]
                  00019190    0000000e     CarSim.obj (.text:_ZN5Eigen8internal14evaluator_baseINS_13CwiseBinaryOpINS0_13scalar_sum_opIffEEKNS_6MatrixIfLi3ELi1ELi0ELi3ELi1EEEKNS2_INS0_17scalar_product_opIffEEKNS_14CwiseNullaryOpINS0_18scalar_constant_opIfEES7_EEKNS2_IS4_KNS2_IS4_KNS2_IS4_KNS_5BlockINS5_IfLi3ELi4ELi0ELi3ELi4EEELi3ELi1ELb1EEEKNS2_IS9_SE_SI_EEEESK_EESI_EEEEEEED1Ev)
                  0001919e    00000002     --HOLE-- [fill = 0]
                  000191a0    0000000e     PathGenerator.obj (.text:_ZN5Eigen8internal14evaluator_baseINS_13CwiseBinaryOpINS0_17scalar_product_opIffEEKNS_14CwiseNullaryOpINS0_18scalar_constant_opIfEEKNS_6MatrixIfLi2ELi1ELi0ELi2ELi1EEEEEKNS2_INS0_20scalar_difference_opIffEESA_SA_EEEEEC1Ev)
                  000191ae    00000002     --HOLE-- [fill = 0]
                  000191b0    0000000e     PathGenerator.obj (.text:_ZN5Eigen8internal14evaluator_baseINS_13CwiseBinaryOpINS0_17scalar_product_opIffEEKNS_14CwiseNullaryOpINS0_18scalar_constant_opIfEEKNS_6MatrixIfLi2ELi1ELi0ELi2ELi1EEEEEKNS2_INS0_20scalar_difference_opIffEESA_SA_EEEEED1Ev)
                  000191be    00000002     --HOLE-- [fill = 0]
                  000191c0    0000000e     PathGenerator.obj (.text:_ZN5Eigen8internal14evaluator_baseINS_13CwiseBinaryOpINS0_17scalar_product_opIffEEKNS_14CwiseNullaryOpINS0_18scalar_constant_opIfEEKNS_6MatrixIfLi2ELi1ELi0ELi2ELi1EEEEESA_EEEC1Ev)
                  000191ce    00000002     --HOLE-- [fill = 0]
                  000191d0    0000000e     PathGenerator.obj (.text:_ZN5Eigen8internal14evaluator_baseINS_13CwiseBinaryOpINS0_17scalar_product_opIffEEKNS_14CwiseNullaryOpINS0_18scalar_constant_opIfEEKNS_6MatrixIfLi2ELi1ELi0ELi2ELi1EEEEESA_EEED1Ev)
                  000191de    00000002     --HOLE-- [fill = 0]
                  000191e0    0000000e     CarSim.obj (.text:_ZN5Eigen8internal14evaluator_baseINS_13CwiseBinaryOpINS0_17scalar_product_opIffEEKNS_14CwiseNullaryOpINS0_18scalar_constant_opIfEEKNS_6MatrixIfLi3ELi1ELi0ELi3ELi1EEEEEKNS2_INS0_13scalar_sum_opIffEEKNS2_ISE_KNS2_ISE_KNS_5BlockINS8_IfLi3ELi4ELi0ELi3ELi4EEELi3ELi1ELb1EEEKNS2_IS4_SC_SI_EEEESK_EESI_EEEEEC1Ev)
                  000191ee    00000002     --HOLE-- [fill = 0]
                  000191f0    0000000e     CarSim.obj (.text:_ZN5Eigen8internal14evaluator_baseINS_13CwiseBinaryOpINS0_17scalar_product_opIffEEKNS_14CwiseNullaryOpINS0_18scalar_constant_opIfEEKNS_6MatrixIfLi3ELi1ELi0ELi3ELi1EEEEEKNS2_INS0_13scalar_sum_opIffEEKNS2_ISE_KNS2_ISE_KNS_5BlockINS8_IfLi3ELi4ELi0ELi3ELi4EEELi3ELi1ELb1EEEKNS2_IS4_SC_SI_EEEESK_EESI_EEEEED1Ev)
                  000191fe    00000002     --HOLE-- [fill = 0]
                  00019200    0000000e     CarSim.obj (.text:_ZN5Eigen8internal14evaluator_baseINS_13CwiseBinaryOpINS0_17scalar_product_opIffEEKNS_14CwiseNullaryOpINS0_18scalar_constant_opIfEEKNS_6MatrixIfLi3ELi1ELi0ELi3ELi1EEEEEKNS_5BlockINS8_IfLi3ELi4ELi0ELi3ELi4EEELi3ELi1ELb1EEEEEEC1Ev)
                  0001920e    00000002     --HOLE-- [fill = 0]
                  00019210    0000000e     CarSim.obj (.text:_ZN5Eigen8internal14evaluator_baseINS_13CwiseBinaryOpINS0_17scalar_product_opIffEEKNS_14CwiseNullaryOpINS0_18scalar_constant_opIfEEKNS_6MatrixIfLi3ELi1ELi0ELi3ELi1EEEEEKNS_5BlockINS8_IfLi3ELi4ELi0ELi3ELi4EEELi3ELi1ELb1EEEEEED1Ev)
                  0001921e    00000002     --HOLE-- [fill = 0]
                  00019220    0000000e     PathTrackSim.obj (.text:_ZN5Eigen8internal14evaluator_baseINS_13CwiseBinaryOpINS0_17scalar_product_opIffEEKNS_14CwiseNullaryOpINS0_18scalar_constant_opIfEEKNS_6MatrixIfLi3ELi1ELi0ELi3ELi1EEEEESA_EEEC1Ev)
                  0001922e    00000002     --HOLE-- [fill = 0]
                  00019230    0000000e     PathTrackSim.obj (.text:_ZN5Eigen8internal14evaluator_baseINS_13CwiseBinaryOpINS0_17scalar_product_opIffEEKNS_14CwiseNullaryOpINS0_18scalar_constant_opIfEEKNS_6MatrixIfLi3ELi1ELi0ELi3ELi1EEEEESA_EEED1Ev)
                  0001923e    00000002     --HOLE-- [fill = 0]
                  00019240    0000000e     PathGenerator.obj (.text:_ZN5Eigen8internal14evaluator_baseINS_13CwiseBinaryOpINS0_20scalar_difference_opIffEEKNS_6MatrixIfLi2ELi1ELi0ELi2ELi1EEES7_EEEC1Ev)
                  0001924e    00000002     --HOLE-- [fill = 0]
                  00019250    0000000e     PathGenerator.obj (.text:_ZN5Eigen8internal14evaluator_baseINS_13CwiseBinaryOpINS0_20scalar_difference_opIffEEKNS_6MatrixIfLi2ELi1ELi0ELi2ELi1EEES7_EEED1Ev)
                  0001925e    00000002     --HOLE-- [fill = 0]
                  00019260    0000000e     PathGenerator.obj (.text:_ZN5Eigen8internal14evaluator_baseINS_13CwiseBinaryOpINS0_22scalar_conj_product_opIffEEKNS_6MatrixIfLi2ELi1ELi0ELi2ELi1EEES7_EEEC1Ev)
                  0001926e    00000002     --HOLE-- [fill = 0]
                  00019270    0000000e     PathGenerator.obj (.text:_ZN5Eigen8internal14evaluator_baseINS_13CwiseBinaryOpINS0_22scalar_conj_product_opIffEEKNS_6MatrixIfLi2ELi1ELi0ELi2ELi1EEES7_EEED1Ev)
                  0001927e    00000002     --HOLE-- [fill = 0]
                  00019280    0000000e     PathTrackSim.obj (.text:_ZN5Eigen8internal14evaluator_baseINS_13CwiseBinaryOpINS0_22scalar_conj_product_opIffEEKNS_6MatrixIfLi3ELi1ELi0ELi3ELi1EEES7_EEEC1Ev)
                  0001928e    00000002     --HOLE-- [fill = 0]
                  00019290    0000000e     PathTrackSim.obj (.text:_ZN5Eigen8internal14evaluator_baseINS_13CwiseBinaryOpINS0_22scalar_conj_product_opIffEEKNS_6MatrixIfLi3ELi1ELi0ELi3ELi1EEES7_EEED1Ev)
                  0001929e    00000002     --HOLE-- [fill = 0]
                  000192a0    0000000e     PathGenerator.obj (.text:_ZN5Eigen8internal14evaluator_baseINS_14CwiseNullaryOpINS0_18scalar_constant_opIfEEKNS_6MatrixIfLi2ELi1ELi0ELi2ELi1EEEEEEC1Ev)
                  000192ae    00000002     --HOLE-- [fill = 0]
                  000192b0    0000000e     PathGenerator.obj (.text:_ZN5Eigen8internal14evaluator_baseINS_14CwiseNullaryOpINS0_18scalar_constant_opIfEEKNS_6MatrixIfLi2ELi1ELi0ELi2ELi1EEEEEED1Ev)
                  000192be    00000002     --HOLE-- [fill = 0]
                  000192c0    0000000e     CarSim.obj (.text:_ZN5Eigen8internal14evaluator_baseINS_14CwiseNullaryOpINS0_18scalar_constant_opIfEEKNS_6MatrixIfLi3ELi1ELi0ELi3ELi1EEEEEEC1Ev)
                  000192ce    00000002     --HOLE-- [fill = 0]
                  000192d0    0000000e     CarSim.obj (.text:_ZN5Eigen8internal14evaluator_baseINS_14CwiseNullaryOpINS0_18scalar_constant_opIfEEKNS_6MatrixIfLi3ELi1ELi0ELi3ELi1EEEEEED1Ev)
                  000192de    00000002     --HOLE-- [fill = 0]
                  000192e0    0000000e     PathGenerator.obj (.text:_ZN5Eigen8internal14evaluator_baseINS_14CwiseNullaryOpINS0_18scalar_constant_opIfEENS_6MatrixIfLi2ELi1ELi0ELi2ELi1EEEEEEC1Ev)
                  000192ee    00000002     --HOLE-- [fill = 0]
                  000192f0    0000000e     PathGenerator.obj (.text:_ZN5Eigen8internal14evaluator_baseINS_14CwiseNullaryOpINS0_18scalar_constant_opIfEENS_6MatrixIfLi2ELi1ELi0ELi2ELi1EEEEEED1Ev)
                  000192fe    00000002     --HOLE-- [fill = 0]
                  00019300    0000000e     Car.obj (.text:_ZN5Eigen8internal14evaluator_baseINS_3MapIKNS_6MatrixIfLi3ELi1ELi0ELi3ELi1EEELi0ENS_6StrideILi0ELi0EEEEEEC1Ev)
                  0001930e    00000002     --HOLE-- [fill = 0]
                  00019310    0000000e     Car.obj (.text:_ZN5Eigen8internal14evaluator_baseINS_3MapIKNS_6MatrixIfLi3ELi1ELi0ELi3ELi1EEELi0ENS_6StrideILi0ELi0EEEEEED1Ev)
                  0001931e    00000002     --HOLE-- [fill = 0]
                  00019320    0000000e     PathGenerator.obj (.text:_ZN5Eigen8internal14evaluator_baseINS_5BlockINS_6MatrixIfLi2ELi2ELi0ELi2ELi2EEELin1ELin1ELb0EEEEC1Ev)
                  0001932e    00000002     --HOLE-- [fill = 0]
                  00019330    0000000e     PathGenerator.obj (.text:_ZN5Eigen8internal14evaluator_baseINS_5BlockINS_6MatrixIfLi2ELi2ELi0ELi2ELi2EEELin1ELin1ELb0EEEED1Ev)
                  0001933e    00000002     --HOLE-- [fill = 0]
                  00019340    0000000e     CarSim.obj (.text:_ZN5Eigen8internal14evaluator_baseINS_5BlockINS_6MatrixIfLi3ELi4ELi0ELi3ELi4EEELi3ELi1ELb1EEEEC1Ev)
                  0001934e    00000002     --HOLE-- [fill = 0]
                  00019350    0000000e     CarSim.obj (.text:_ZN5Eigen8internal14evaluator_baseINS_5BlockINS_6MatrixIfLi3ELi4ELi0ELi3ELi4EEELi3ELi1ELb1EEEED1Ev)
                  0001935e    00000002     --HOLE-- [fill = 0]
                  00019360    0000000e     PathGenerator.obj (.text:_ZN5Eigen8internal14evaluator_baseINS_6MatrixIfLi2ELi1ELi0ELi2ELi1EEEEC1Ev)
                  0001936e    00000002     --HOLE-- [fill = 0]
                  00019370    0000000e     PathGenerator.obj (.text:_ZN5Eigen8internal14evaluator_baseINS_6MatrixIfLi2ELi1ELi0ELi2ELi1EEEED1Ev)
                  0001937e    00000002     --HOLE-- [fill = 0]
                  00019380    0000000e     PathGenerator.obj (.text:_ZN5Eigen8internal14evaluator_baseINS_6MatrixIfLi2ELi2ELi0ELi2ELi2EEEEC1Ev)
                  0001938e    00000002     --HOLE-- [fill = 0]
                  00019390    0000000e     PathGenerator.obj (.text:_ZN5Eigen8internal14evaluator_baseINS_6MatrixIfLi2ELi2ELi0ELi2ELi2EEEED1Ev)
                  0001939e    00000002     --HOLE-- [fill = 0]
                  000193a0    0000000e     Car.obj (.text:_ZN5Eigen8internal14evaluator_baseINS_6MatrixIfLi3ELi1ELi0ELi3ELi1EEEEC1Ev)
                  000193ae    00000002     --HOLE-- [fill = 0]
                  000193b0    0000000e     Car.obj (.text:_ZN5Eigen8internal14evaluator_baseINS_6MatrixIfLi3ELi1ELi0ELi3ELi1EEEED1Ev)
                  000193be    00000002     --HOLE-- [fill = 0]
                  000193c0    0000000e     CarSim.obj (.text:_ZN5Eigen8internal14evaluator_baseINS_6MatrixIfLi3ELi4ELi0ELi3ELi4EEEEC1Ev)
                  000193ce    00000002     --HOLE-- [fill = 0]
                  000193d0    0000000e     CarSim.obj (.text:_ZN5Eigen8internal14evaluator_baseINS_6MatrixIfLi3ELi4ELi0ELi3ELi4EEEED1Ev)
                  000193de    00000002     --HOLE-- [fill = 0]
                  000193e0    0000000e     PathGenerator.obj (.text:_ZN5Eigen8internal14evaluator_baseINS_9TransposeINS_6MatrixIfLi2ELi1ELi0ELi2ELi1EEEEEEC1Ev)
                  000193ee    00000002     --HOLE-- [fill = 0]
                  000193f0    0000000e     PathGenerator.obj (.text:_ZN5Eigen8internal14evaluator_baseINS_9TransposeINS_6MatrixIfLi2ELi1ELi0ELi2ELi1EEEEEED1Ev)
                  000193fe    00000002     --HOLE-- [fill = 0]
                  00019400    0000000e     PathGenerator.obj (.text:_ZN5Eigen8internal15block_evaluatorINS_6MatrixIfLi2ELi2ELi0ELi2ELi2EEELin1ELin1ELb0ELb1EED1Ev)
                  0001940e    00000002     --HOLE-- [fill = 0]
                  00019410    0000000e     CarSim.obj (.text:_ZN5Eigen8internal15block_evaluatorINS_6MatrixIfLi3ELi4ELi0ELi3ELi4EEELi3ELi1ELb1ELb1EED1Ev)
                  0001941e    00000002     --HOLE-- [fill = 0]
                  00019420    0000000e     PathGenerator.obj (.text:_ZN5Eigen8internal15redux_evaluatorINS_12CwiseUnaryOpINS0_14scalar_abs2_opIfEEKNS_13CwiseBinaryOpINS0_20scalar_difference_opIffEEKNS_6MatrixIfLi2ELi1ELi0ELi2ELi1EEESA_EEEEED1Ev)
                  0001942e    00000002     --HOLE-- [fill = 0]
                  00019430    0000000e     PathGenerator.obj (.text:_ZN5Eigen8internal15redux_evaluatorINS_12CwiseUnaryOpINS0_14scalar_abs2_opIfEEKNS_6MatrixIfLi2ELi1ELi0ELi2ELi1EEEEEED1Ev)
                  0001943e    00000002     --HOLE-- [fill = 0]
                  00019440    0000000e     PathTrackSim.obj (.text:_ZN5Eigen8internal15redux_evaluatorINS_12CwiseUnaryOpINS0_14scalar_abs2_opIfEEKNS_6MatrixIfLi3ELi1ELi0ELi3ELi1EEEEEED1Ev)
                  0001944e    00000002     --HOLE-- [fill = 0]
                  00019450    0000000e     PathGenerator.obj (.text:_ZN5Eigen8internal15redux_evaluatorINS_13CwiseBinaryOpINS0_22scalar_conj_product_opIffEEKNS_6MatrixIfLi2ELi1ELi0ELi2ELi1EEES7_EEED1Ev)
                  0001945e    00000002     --HOLE-- [fill = 0]
                  00019460    0000000e     PathTrackSim.obj (.text:_ZN5Eigen8internal15redux_evaluatorINS_13CwiseBinaryOpINS0_22scalar_conj_product_opIffEEKNS_6MatrixIfLi3ELi1ELi0ELi3ELi1EEES7_EEED1Ev)
                  0001946e    00000002     --HOLE-- [fill = 0]
                  00019470    0000000e     Car.obj (.text:_ZN5Eigen8internal17mapbase_evaluatorINS_3MapIKNS_6MatrixIfLi3ELi1ELi0ELi3ELi1EEELi0ENS_6StrideILi0ELi0EEEEES5_ED1Ev)
                  0001947e    00000002     --HOLE-- [fill = 0]
                  00019480    0000000e     PathGenerator.obj (.text:_ZN5Eigen8internal17mapbase_evaluatorINS_5BlockINS_6MatrixIfLi2ELi2ELi0ELi2ELi2EEELin1ELin1ELb0EEENS3_IfLin1ELin1ELi0ELi2ELi2EEEED1Ev)
                  0001948e    00000002     --HOLE-- [fill = 0]
                  00019490    0000000e     CarSim.obj (.text:_ZN5Eigen8internal17mapbase_evaluatorINS_5BlockINS_6MatrixIfLi3ELi4ELi0ELi3ELi4EEELi3ELi1ELb1EEENS3_IfLi3ELi1ELi0ELi3ELi1EEEED1Ev)
                  0001949e    00000002     --HOLE-- [fill = 0]
                  000194a0    0000000e     PathGenerator.obj (.text:_ZN5Eigen8internal31generic_dense_assignment_kernelINS0_9evaluatorINS_5BlockINS_6MatrixIfLi2ELi2ELi0ELi2ELi2EEELin1ELin1ELb0EEEEENS2_INS4_IfLi2ELi1ELi0ELi2ELi1EEEEENS0_9assign_opIffEELi0EE20colIndexByOuterInnerEii)
                  000194ae    00000002     --HOLE-- [fill = 0]
                  000194b0    0000000e     PathGenerator.obj (.text:_ZN5Eigen8internal31generic_dense_assignment_kernelINS0_9evaluatorINS_5BlockINS_6MatrixIfLi2ELi2ELi0ELi2ELi2EEELin1ELin1ELb0EEEEENS2_INS4_IfLi2ELi1ELi0ELi2ELi1EEEEENS0_9assign_opIffEELi0EE20rowIndexByOuterInnerEii)
                  000194be    00000002     --HOLE-- [fill = 0]
                  000194c0    0000000e     PathGenerator.obj (.text:_ZN5Eigen8internal31generic_dense_assignment_kernelINS0_9evaluatorINS_5BlockINS_6MatrixIfLi2ELi2ELi0ELi2ELi2EEELin1ELin1ELb0EEEEENS2_INS_9TransposeINS4_IfLi2ELi1ELi0ELi2ELi1EEEEEEENS0_9assign_opIffEELi0EE20colIndexByOuterInnerEii)
                  000194ce    00000002     --HOLE-- [fill = 0]
                  000194d0    0000000e     PathGenerator.obj (.text:_ZN5Eigen8internal31generic_dense_assignment_kernelINS0_9evaluatorINS_5BlockINS_6MatrixIfLi2ELi2ELi0ELi2ELi2EEELin1ELin1ELb0EEEEENS2_INS_9TransposeINS4_IfLi2ELi1ELi0ELi2ELi1EEEEEEENS0_9assign_opIffEELi0EE20rowIndexByOuterInnerEii)
                  000194de    00000002     --HOLE-- [fill = 0]
                  000194e0    0000000e     CarSim.obj (.text:_ZN5Eigen8internal9evaluatorIKNS_13CwiseBinaryOpINS0_13scalar_sum_opIffEEKNS2_IS4_KNS2_IS4_KNS_5BlockINS_6MatrixIfLi3ELi4ELi0ELi3ELi4EEELi3ELi1ELb1EEEKNS2_INS0_17scalar_product_opIffEEKNS_14CwiseNullaryOpINS0_18scalar_constant_opIfEEKNS6_IfLi3ELi1ELi0ELi3ELi1EEEEES9_EEEESK_EES9_EEED1Ev)
                  000194ee    00000002     --HOLE-- [fill = 0]
                  000194f0    0000000e     CarSim.obj (.text:_ZN5Eigen8internal9evaluatorIKNS_13CwiseBinaryOpINS0_13scalar_sum_opIffEEKNS2_IS4_KNS_5BlockINS_6MatrixIfLi3ELi4ELi0ELi3ELi4EEELi3ELi1ELb1EEEKNS2_INS0_17scalar_product_opIffEEKNS_14CwiseNullaryOpINS0_18scalar_constant_opIfEEKNS6_IfLi3ELi1ELi0ELi3ELi1EEEEES9_EEEESK_EEED1Ev)
                  000194fe    00000002     --HOLE-- [fill = 0]
                  00019500    0000000e     CarSim.obj (.text:_ZN5Eigen8internal9evaluatorIKNS_13CwiseBinaryOpINS0_13scalar_sum_opIffEEKNS_5BlockINS_6MatrixIfLi3ELi4ELi0ELi3ELi4EEELi3ELi1ELb1EEEKNS2_INS0_17scalar_product_opIffEEKNS_14CwiseNullaryOpINS0_18scalar_constant_opIfEEKNS6_IfLi3ELi1ELi0ELi3ELi1EEEEES9_EEEEED1Ev)
                  0001950e    00000002     --HOLE-- [fill = 0]
                  00019510    0000000e     PathGenerator.obj (.text:_ZN5Eigen8internal9evaluatorIKNS_13CwiseBinaryOpINS0_17scalar_product_opIffEEKNS_14CwiseNullaryOpINS0_18scalar_constant_opIfEEKNS_6MatrixIfLi2ELi1ELi0ELi2ELi1EEEEEKNS2_INS0_20scalar_difference_opIffEESA_SA_EEEEED1Ev)
                  0001951e    00000002     --HOLE-- [fill = 0]
                  00019520    0000000e     PathGenerator.obj (.text:_ZN5Eigen8internal9evaluatorIKNS_13CwiseBinaryOpINS0_17scalar_product_opIffEEKNS_14CwiseNullaryOpINS0_18scalar_constant_opIfEEKNS_6MatrixIfLi2ELi1ELi0ELi2ELi1EEEEESA_EEED1Ev)
                  0001952e    00000002     --HOLE-- [fill = 0]
                  00019530    0000000e     CarSim.obj (.text:_ZN5Eigen8internal9evaluatorIKNS_13CwiseBinaryOpINS0_17scalar_product_opIffEEKNS_14CwiseNullaryOpINS0_18scalar_constant_opIfEEKNS_6MatrixIfLi3ELi1ELi0ELi3ELi1EEEEEKNS2_INS0_13scalar_sum_opIffEEKNS2_ISE_KNS2_ISE_KNS_5BlockINS8_IfLi3ELi4ELi0ELi3ELi4EEELi3ELi1ELb1EEEKNS2_IS4_SC_SI_EEEESK_EESI_EEEEED1Ev)
                  0001953e    00000002     --HOLE-- [fill = 0]
                  00019540    0000000e     CarSim.obj (.text:_ZN5Eigen8internal9evaluatorIKNS_13CwiseBinaryOpINS0_17scalar_product_opIffEEKNS_14CwiseNullaryOpINS0_18scalar_constant_opIfEEKNS_6MatrixIfLi3ELi1ELi0ELi3ELi1EEEEEKNS_5BlockINS8_IfLi3ELi4ELi0ELi3ELi4EEELi3ELi1ELb1EEEEEED1Ev)
                  0001954e    00000002     --HOLE-- [fill = 0]
                  00019550    0000000e     PathTrackSim.obj (.text:_ZN5Eigen8internal9evaluatorIKNS_13CwiseBinaryOpINS0_17scalar_product_opIffEEKNS_14CwiseNullaryOpINS0_18scalar_constant_opIfEEKNS_6MatrixIfLi3ELi1ELi0ELi3ELi1EEEEESA_EEED1Ev)
                  0001955e    00000002     --HOLE-- [fill = 0]
                  00019560    0000000e     PathGenerator.obj (.text:_ZN5Eigen8internal9evaluatorIKNS_13CwiseBinaryOpINS0_20scalar_difference_opIffEEKNS_6MatrixIfLi2ELi1ELi0ELi2ELi1EEES7_EEED1Ev)
                  0001956e    00000002     --HOLE-- [fill = 0]
                  00019570    0000000e     PathGenerator.obj (.text:_ZN5Eigen8internal9evaluatorIKNS_14CwiseNullaryOpINS0_18scalar_constant_opIfEEKNS_6MatrixIfLi2ELi1ELi0ELi2ELi1EEEEEED1Ev)
                  0001957e    00000002     --HOLE-- [fill = 0]
                  00019580    0000000e     CarSim.obj (.text:_ZN5Eigen8internal9evaluatorIKNS_14CwiseNullaryOpINS0_18scalar_constant_opIfEEKNS_6MatrixIfLi3ELi1ELi0ELi3ELi1EEEEEED1Ev)
                  0001958e    00000002     --HOLE-- [fill = 0]
                  00019590    0000000e     CarSim.obj (.text:_ZN5Eigen8internal9evaluatorIKNS_5BlockINS_6MatrixIfLi3ELi4ELi0ELi3ELi4EEELi3ELi1ELb1EEEED1Ev)
                  0001959e    00000002     --HOLE-- [fill = 0]
                  000195a0    0000000e     PathGenerator.obj (.text:_ZN5Eigen8internal9evaluatorIKNS_6MatrixIfLi2ELi1ELi0ELi2ELi1EEEED1Ev)
                  000195ae    00000002     --HOLE-- [fill = 0]
                  000195b0    0000000e     CarSim.obj (.text:_ZN5Eigen8internal9evaluatorIKNS_6MatrixIfLi3ELi1ELi0ELi3ELi1EEEED1Ev)
                  000195be    00000002     --HOLE-- [fill = 0]
                  000195c0    0000000e     PathGenerator.obj (.text:_ZN5Eigen8internal9evaluatorINS_12CwiseUnaryOpINS0_14scalar_abs2_opIfEEKNS_13CwiseBinaryOpINS0_20scalar_difference_opIffEEKNS_6MatrixIfLi2ELi1ELi0ELi2ELi1EEESA_EEEEED1Ev)
                  000195ce    00000002     --HOLE-- [fill = 0]
                  000195d0    0000000e     PathGenerator.obj (.text:_ZN5Eigen8internal9evaluatorINS_12CwiseUnaryOpINS0_14scalar_abs2_opIfEEKNS_6MatrixIfLi2ELi1ELi0ELi2ELi1EEEEEED1Ev)
                  000195de    00000002     --HOLE-- [fill = 0]
                  000195e0    0000000e     PathTrackSim.obj (.text:_ZN5Eigen8internal9evaluatorINS_12CwiseUnaryOpINS0_14scalar_abs2_opIfEEKNS_6MatrixIfLi3ELi1ELi0ELi3ELi1EEEEEED1Ev)
                  000195ee    00000002     --HOLE-- [fill = 0]
                  000195f0    0000000e     PathTrackSim.obj (.text:_ZN5Eigen8internal9evaluatorINS_12CwiseUnaryOpINS0_18scalar_opposite_opIfEEKNS_6MatrixIfLi2ELi1ELi0ELi2ELi1EEEEEED1Ev)
                  000195fe    00000002     --HOLE-- [fill = 0]
                  00019600    0000000e     PathTrackSim.obj (.text:_ZN5Eigen8internal9evaluatorINS_13CwiseBinaryOpINS0_13scalar_sum_opIffEEKNS2_INS0_17scalar_product_opIffEEKNS_14CwiseNullaryOpINS0_18scalar_constant_opIfEEKNS_6MatrixIfLi3ELi1ELi0ELi3ELi1EEEEESC_EESG_EEED1Ev)
                  0001960e    00000002     --HOLE-- [fill = 0]
                  00019610    0000000e     CarSim.obj (.text:_ZN5Eigen8internal9evaluatorINS_13CwiseBinaryOpINS0_13scalar_sum_opIffEEKNS2_IS4_KNS2_IS4_KNS_5BlockINS_6MatrixIfLi3ELi4ELi0ELi3ELi4EEELi3ELi1ELb1EEEKNS2_INS0_17scalar_product_opIffEEKNS_14CwiseNullaryOpINS0_18scalar_constant_opIfEEKNS6_IfLi3ELi1ELi0ELi3ELi1EEEEES9_EEEESK_EES9_EEED1Ev)
                  0001961e    00000002     --HOLE-- [fill = 0]
                  00019620    0000000e     CarSim.obj (.text:_ZN5Eigen8internal9evaluatorINS_13CwiseBinaryOpINS0_13scalar_sum_opIffEEKNS2_IS4_KNS_5BlockINS_6MatrixIfLi3ELi4ELi0ELi3ELi4EEELi3ELi1ELb1EEEKNS2_INS0_17scalar_product_opIffEEKNS_14CwiseNullaryOpINS0_18scalar_constant_opIfEEKNS6_IfLi3ELi1ELi0ELi3ELi1EEEEES9_EEEESK_EEED1Ev)
                  0001962e    00000002     --HOLE-- [fill = 0]
                  00019630    0000000e     CarSim.obj (.text:_ZN5Eigen8internal9evaluatorINS_13CwiseBinaryOpINS0_13scalar_sum_opIffEEKNS_5BlockINS_6MatrixIfLi3ELi4ELi0ELi3ELi4EEELi3ELi1ELb1EEEKNS2_INS0_17scalar_product_opIffEEKNS_14CwiseNullaryOpINS0_18scalar_constant_opIfEEKNS6_IfLi3ELi1ELi0ELi3ELi1EEEEES9_EEEEED1Ev)
                  0001963e    00000002     --HOLE-- [fill = 0]
                  00019640    0000000e     PathGenerator.obj (.text:_ZN5Eigen8internal9evaluatorINS_13CwiseBinaryOpINS0_13scalar_sum_opIffEEKNS_6MatrixIfLi2ELi1ELi0ELi2ELi1EEEKNS2_INS0_17scalar_product_opIffEEKNS_14CwiseNullaryOpINS0_18scalar_constant_opIfEES7_EEKNS2_INS0_20scalar_difference_opIffEES7_S7_EEEEEEED1Ev)
                  0001964e    00000002     --HOLE-- [fill = 0]
                  00019650    0000000e     PathGenerator.obj (.text:_ZN5Eigen8internal9evaluatorINS_13CwiseBinaryOpINS0_13scalar_sum_opIffEEKNS_6MatrixIfLi2ELi1ELi0ELi2ELi1EEEKNS2_INS0_17scalar_product_opIffEEKNS_14CwiseNullaryOpINS0_18scalar_constant_opIfEES7_EES7_EEEEED1Ev)
                  0001965e    00000002     --HOLE-- [fill = 0]
                  00019660    0000000e     PathGenerator.obj (.text:_ZN5Eigen8internal9evaluatorINS_13CwiseBinaryOpINS0_13scalar_sum_opIffEEKNS_6MatrixIfLi2ELi1ELi0ELi2ELi1EEES7_EEED1Ev)
                  0001966e    00000002     --HOLE-- [fill = 0]
                  00019670    0000000e     CarSim.obj (.text:_ZN5Eigen8internal9evaluatorINS_13CwiseBinaryOpINS0_13scalar_sum_opIffEEKNS_6MatrixIfLi3ELi1ELi0ELi3ELi1EEEKNS2_INS0_17scalar_product_opIffEEKNS_14CwiseNullaryOpINS0_18scalar_constant_opIfEES7_EEKNS2_IS4_KNS2_IS4_KNS2_IS4_KNS_5BlockINS5_IfLi3ELi4ELi0ELi3ELi4EEELi3ELi1ELb1EEEKNS2_IS9_SE_SI_EEEESK_EESI_EEEEEEED1Ev)
                  0001967e    00000002     --HOLE-- [fill = 0]
                  00019680    0000000e     PathGenerator.obj (.text:_ZN5Eigen8internal9evaluatorINS_13CwiseBinaryOpINS0_17scalar_product_opIffEEKNS_14CwiseNullaryOpINS0_18scalar_constant_opIfEEKNS_6MatrixIfLi2ELi1ELi0ELi2ELi1EEEEEKNS2_INS0_20scalar_difference_opIffEESA_SA_EEEEED1Ev)
                  0001968e    00000002     --HOLE-- [fill = 0]
                  00019690    0000000e     PathGenerator.obj (.text:_ZN5Eigen8internal9evaluatorINS_13CwiseBinaryOpINS0_17scalar_product_opIffEEKNS_14CwiseNullaryOpINS0_18scalar_constant_opIfEEKNS_6MatrixIfLi2ELi1ELi0ELi2ELi1EEEEESA_EEED1Ev)
                  0001969e    00000002     --HOLE-- [fill = 0]
                  000196a0    0000000e     CarSim.obj (.text:_ZN5Eigen8internal9evaluatorINS_13CwiseBinaryOpINS0_17scalar_product_opIffEEKNS_14CwiseNullaryOpINS0_18scalar_constant_opIfEEKNS_6MatrixIfLi3ELi1ELi0ELi3ELi1EEEEEKNS2_INS0_13scalar_sum_opIffEEKNS2_ISE_KNS2_ISE_KNS_5BlockINS8_IfLi3ELi4ELi0ELi3ELi4EEELi3ELi1ELb1EEEKNS2_IS4_SC_SI_EEEESK_EESI_EEEEED1Ev)
                  000196ae    00000002     --HOLE-- [fill = 0]
                  000196b0    0000000e     CarSim.obj (.text:_ZN5Eigen8internal9evaluatorINS_13CwiseBinaryOpINS0_17scalar_product_opIffEEKNS_14CwiseNullaryOpINS0_18scalar_constant_opIfEEKNS_6MatrixIfLi3ELi1ELi0ELi3ELi1EEEEEKNS_5BlockINS8_IfLi3ELi4ELi0ELi3ELi4EEELi3ELi1ELb1EEEEEED1Ev)
                  000196be    00000002     --HOLE-- [fill = 0]
                  000196c0    0000000e     PathTrackSim.obj (.text:_ZN5Eigen8internal9evaluatorINS_13CwiseBinaryOpINS0_17scalar_product_opIffEEKNS_14CwiseNullaryOpINS0_18scalar_constant_opIfEEKNS_6MatrixIfLi3ELi1ELi0ELi3ELi1EEEEESA_EEED1Ev)
                  000196ce    00000002     --HOLE-- [fill = 0]
                  000196d0    0000000e     PathGenerator.obj (.text:_ZN5Eigen8internal9evaluatorINS_13CwiseBinaryOpINS0_20scalar_difference_opIffEEKNS_6MatrixIfLi2ELi1ELi0ELi2ELi1EEES7_EEED1Ev)
                  000196de    00000002     --HOLE-- [fill = 0]
                  000196e0    0000000e     PathGenerator.obj (.text:_ZN5Eigen8internal9evaluatorINS_13CwiseBinaryOpINS0_22scalar_conj_product_opIffEEKNS_6MatrixIfLi2ELi1ELi0ELi2ELi1EEES7_EEED1Ev)
                  000196ee    00000002     --HOLE-- [fill = 0]
                  000196f0    0000000e     PathTrackSim.obj (.text:_ZN5Eigen8internal9evaluatorINS_13CwiseBinaryOpINS0_22scalar_conj_product_opIffEEKNS_6MatrixIfLi3ELi1ELi0ELi3ELi1EEES7_EEED1Ev)
                  000196fe    00000002     --HOLE-- [fill = 0]
                  00019700    0000000e     PathGenerator.obj (.text:_ZN5Eigen8internal9evaluatorINS_14CwiseNullaryOpINS0_18scalar_constant_opIfEEKNS_6MatrixIfLi2ELi1ELi0ELi2ELi1EEEEEED1Ev)
                  0001970e    00000002     --HOLE-- [fill = 0]
                  00019710    0000000e     CarSim.obj (.text:_ZN5Eigen8internal9evaluatorINS_14CwiseNullaryOpINS0_18scalar_constant_opIfEEKNS_6MatrixIfLi3ELi1ELi0ELi3ELi1EEEEEED1Ev)
                  0001971e    00000002     --HOLE-- [fill = 0]
                  00019720    0000000e     PathGenerator.obj (.text:_ZN5Eigen8internal9evaluatorINS_14CwiseNullaryOpINS0_18scalar_constant_opIfEENS_6MatrixIfLi2ELi1ELi0ELi2ELi1EEEEEED1Ev)
                  0001972e    00000002     --HOLE-- [fill = 0]
                  00019730    0000000e     PathGenerator.obj (.text:_ZN5Eigen8internal9evaluatorINS_15PlainObjectBaseINS_6MatrixIfLi2ELi1ELi0ELi2ELi1EEEEEED1Ev)
                  0001973e    00000002     --HOLE-- [fill = 0]
                  00019740    0000000e     PathGenerator.obj (.text:_ZN5Eigen8internal9evaluatorINS_15PlainObjectBaseINS_6MatrixIfLi2ELi2ELi0ELi2ELi2EEEEEED1Ev)
                  0001974e    00000002     --HOLE-- [fill = 0]
                  00019750    0000000e     Car.obj (.text:_ZN5Eigen8internal9evaluatorINS_15PlainObjectBaseINS_6MatrixIfLi3ELi1ELi0ELi3ELi1EEEEEED1Ev)
                  0001975e    00000002     --HOLE-- [fill = 0]
                  00019760    0000000e     CarSim.obj (.text:_ZN5Eigen8internal9evaluatorINS_15PlainObjectBaseINS_6MatrixIfLi3ELi4ELi0ELi3ELi4EEEEEED1Ev)
                  0001976e    00000002     --HOLE-- [fill = 0]
                  00019770    0000000e     Car.obj (.text:_ZN5Eigen8internal9evaluatorINS_3MapIKNS_6MatrixIfLi3ELi1ELi0ELi3ELi1EEELi0ENS_6StrideILi0ELi0EEEEEED1Ev)
                  0001977e    00000002     --HOLE-- [fill = 0]
                  00019780    0000000e     PathGenerator.obj (.text:_ZN5Eigen8internal9evaluatorINS_5BlockINS_6MatrixIfLi2ELi2ELi0ELi2ELi2EEELin1ELin1ELb0EEEED1Ev)
                  0001978e    00000002     --HOLE-- [fill = 0]
                  00019790    0000000e     CarSim.obj (.text:_ZN5Eigen8internal9evaluatorINS_5BlockINS_6MatrixIfLi3ELi4ELi0ELi3ELi4EEELi3ELi1ELb1EEEED1Ev)
                  0001979e    00000002     --HOLE-- [fill = 0]
                  000197a0    0000000e     PathGenerator.obj (.text:_ZN5Eigen8internal9evaluatorINS_6MatrixIfLi2ELi1ELi0ELi2ELi1EEEED1Ev)
                  000197ae    00000002     --HOLE-- [fill = 0]
                  000197b0    0000000e     PathGenerator.obj (.text:_ZN5Eigen8internal9evaluatorINS_6MatrixIfLi2ELi2ELi0ELi2ELi2EEEED1Ev)
                  000197be    00000002     --HOLE-- [fill = 0]
                  000197c0    0000000e     Car.obj (.text:_ZN5Eigen8internal9evaluatorINS_6MatrixIfLi3ELi1ELi0ELi3ELi1EEEED1Ev)
                  000197ce    00000002     --HOLE-- [fill = 0]
                  000197d0    0000000e     CarSim.obj (.text:_ZN5Eigen8internal9evaluatorINS_6MatrixIfLi3ELi4ELi0ELi3ELi4EEEED1Ev)
                  000197de    00000002     --HOLE-- [fill = 0]
                  000197e0    0000000e     PathGenerator.obj (.text:_ZN5Eigen8internal9evaluatorINS_9TransposeINS_6MatrixIfLi2ELi1ELi0ELi2ELi1EEEEEED1Ev)
                  000197ee    00000002     --HOLE-- [fill = 0]
                  000197f0    0000000e     PathGenerator.obj (.text:_ZN5Eigen9TransposeIKNS_6MatrixIfLi2ELi1ELi0ELi2ELi1EEEE16nestedExpressionEv)
                  000197fe    00000002     --HOLE-- [fill = 0]
                  00019800    0000000e     CarFuzzy.obj (.text:_ZN5fuzzy22Fuzzy3InputsControllerD1Ev)
                  0001980e    00000002     --HOLE-- [fill = 0]
                  00019810    0000000e     Car.obj (.text:_ZN7carTask16PathTrackSimTaskD1Ev)
                  0001981e    00000002     --HOLE-- [fill = 0]
                  00019820    0000000e     PathGenerator.obj (.text:_ZNK5Eigen12CwiseUnaryOpINS_8internal14scalar_abs2_opIfEEKNS_13CwiseBinaryOpINS1_20scalar_difference_opIffEEKNS_6MatrixIfLi2ELi1ELi0ELi2ELi1EEES9_EEE16nestedExpressionEv)
                  0001982e    00000002     --HOLE-- [fill = 0]
                  00019830    0000000e     PathGenerator.obj (.text:_ZNK5Eigen12CwiseUnaryOpINS_8internal14scalar_abs2_opIfEEKNS_13CwiseBinaryOpINS1_20scalar_difference_opIffEEKNS_6MatrixIfLi2ELi1ELi0ELi2ELi1EEES9_EEE4colsEv)
                  0001983e    00000002     --HOLE-- [fill = 0]
                  00019840    0000000e     PathGenerator.obj (.text:_ZNK5Eigen12CwiseUnaryOpINS_8internal14scalar_abs2_opIfEEKNS_13CwiseBinaryOpINS1_20scalar_difference_opIffEEKNS_6MatrixIfLi2ELi1ELi0ELi2ELi1EEES9_EEE4rowsEv)
                  0001984e    00000002     --HOLE-- [fill = 0]
                  00019850    0000000e     PathGenerator.obj (.text:_ZNK5Eigen12CwiseUnaryOpINS_8internal14scalar_abs2_opIfEEKNS_13CwiseBinaryOpINS1_20scalar_difference_opIffEEKNS_6MatrixIfLi2ELi1ELi0ELi2ELi1EEES9_EEE7functorEv)
                  0001985e    00000002     --HOLE-- [fill = 0]
                  00019860    0000000e     PathGenerator.obj (.text:_ZNK5Eigen12CwiseUnaryOpINS_8internal14scalar_abs2_opIfEEKNS_6MatrixIfLi2ELi1ELi0ELi2ELi1EEEE16nestedExpressionEv)
                  0001986e    00000002     --HOLE-- [fill = 0]
                  00019870    0000000e     PathGenerator.obj (.text:_ZNK5Eigen12CwiseUnaryOpINS_8internal14scalar_abs2_opIfEEKNS_6MatrixIfLi2ELi1ELi0ELi2ELi1EEEE4colsEv)
                  0001987e    00000002     --HOLE-- [fill = 0]
                  00019880    0000000e     PathGenerator.obj (.text:_ZNK5Eigen12CwiseUnaryOpINS_8internal14scalar_abs2_opIfEEKNS_6MatrixIfLi2ELi1ELi0ELi2ELi1EEEE4rowsEv)
                  0001988e    00000002     --HOLE-- [fill = 0]
                  00019890    0000000e     PathGenerator.obj (.text:_ZNK5Eigen12CwiseUnaryOpINS_8internal14scalar_abs2_opIfEEKNS_6MatrixIfLi2ELi1ELi0ELi2ELi1EEEE7functorEv)
                  0001989e    00000002     --HOLE-- [fill = 0]
                  000198a0    0000000e     PathTrackSim.obj (.text:_ZNK5Eigen12CwiseUnaryOpINS_8internal14scalar_abs2_opIfEEKNS_6MatrixIfLi3ELi1ELi0ELi3ELi1EEEE16nestedExpressionEv)
                  000198ae    00000002     --HOLE-- [fill = 0]
                  000198b0    0000000e     PathTrackSim.obj (.text:_ZNK5Eigen12CwiseUnaryOpINS_8internal14scalar_abs2_opIfEEKNS_6MatrixIfLi3ELi1ELi0ELi3ELi1EEEE4colsEv)
                  000198be    00000002     --HOLE-- [fill = 0]
                  000198c0    0000000e     PathTrackSim.obj (.text:_ZNK5Eigen12CwiseUnaryOpINS_8internal14scalar_abs2_opIfEEKNS_6MatrixIfLi3ELi1ELi0ELi3ELi1EEEE4rowsEv)
                  000198ce    00000002     --HOLE-- [fill = 0]
                  000198d0    0000000e     PathTrackSim.obj (.text:_ZNK5Eigen12CwiseUnaryOpINS_8internal14scalar_abs2_opIfEEKNS_6MatrixIfLi3ELi1ELi0ELi3ELi1EEEE7functorEv)
                  000198de    00000002     --HOLE-- [fill = 0]
                  000198e0    0000000e     PathTrackSim.obj (.text:_ZNK5Eigen12CwiseUnaryOpINS_8internal18scalar_opposite_opIfEEKNS_6MatrixIfLi2ELi1ELi0ELi2ELi1EEEE16nestedExpressionEv)
                  000198ee    00000002     --HOLE-- [fill = 0]
                  000198f0    0000000e     PathTrackSim.obj (.text:_ZNK5Eigen12CwiseUnaryOpINS_8internal18scalar_opposite_opIfEEKNS_6MatrixIfLi2ELi1ELi0ELi2ELi1EEEE4colsEv)
                  000198fe    00000002     --HOLE-- [fill = 0]
                  00019900    0000000e     PathTrackSim.obj (.text:_ZNK5Eigen12CwiseUnaryOpINS_8internal18scalar_opposite_opIfEEKNS_6MatrixIfLi2ELi1ELi0ELi2ELi1EEEE4rowsEv)
                  0001990e    00000002     --HOLE-- [fill = 0]
                  00019910    0000000e     PathTrackSim.obj (.text:_ZNK5Eigen12CwiseUnaryOpINS_8internal18scalar_opposite_opIfEEKNS_6MatrixIfLi2ELi1ELi0ELi2ELi1EEEE7functorEv)
                  0001991e    00000002     --HOLE-- [fill = 0]
                  00019920    0000000e     PathTrackSim.obj (.text:_ZNK5Eigen13CwiseBinaryOpINS_8internal13scalar_sum_opIffEEKNS0_INS1_17scalar_product_opIffEEKNS_14CwiseNullaryOpINS1_18scalar_constant_opIfEEKNS_6MatrixIfLi3ELi1ELi0ELi3ELi1EEEEESB_EESF_E3lhsEv)
                  0001992e    00000002     --HOLE-- [fill = 0]
                  00019930    0000000e     PathTrackSim.obj (.text:_ZNK5Eigen13CwiseBinaryOpINS_8internal13scalar_sum_opIffEEKNS0_INS1_17scalar_product_opIffEEKNS_14CwiseNullaryOpINS1_18scalar_constant_opIfEEKNS_6MatrixIfLi3ELi1ELi0ELi3ELi1EEEEESB_EESF_E3rhsEv)
                  0001993e    00000002     --HOLE-- [fill = 0]
                  00019940    0000000e     PathTrackSim.obj (.text:_ZNK5Eigen13CwiseBinaryOpINS_8internal13scalar_sum_opIffEEKNS0_INS1_17scalar_product_opIffEEKNS_14CwiseNullaryOpINS1_18scalar_constant_opIfEEKNS_6MatrixIfLi3ELi1ELi0ELi3ELi1EEEEESB_EESF_E7functorEv)
                  0001994e    00000002     --HOLE-- [fill = 0]
                  00019950    0000000e     CarSim.obj (.text:_ZNK5Eigen13CwiseBinaryOpINS_8internal13scalar_sum_opIffEEKNS0_IS3_KNS0_IS3_KNS_5BlockINS_6MatrixIfLi3ELi4ELi0ELi3ELi4EEELi3ELi1ELb1EEEKNS0_INS1_17scalar_product_opIffEEKNS_14CwiseNullaryOpINS1_18scalar_constant_opIfEEKNS5_IfLi3ELi1ELi0ELi3ELi1EEEEES8_EEEESJ_EES8_E3lhsEv)
                  0001995e    00000002     --HOLE-- [fill = 0]
                  00019960    0000000e     CarSim.obj (.text:_ZNK5Eigen13CwiseBinaryOpINS_8internal13scalar_sum_opIffEEKNS0_IS3_KNS0_IS3_KNS_5BlockINS_6MatrixIfLi3ELi4ELi0ELi3ELi4EEELi3ELi1ELb1EEEKNS0_INS1_17scalar_product_opIffEEKNS_14CwiseNullaryOpINS1_18scalar_constant_opIfEEKNS5_IfLi3ELi1ELi0ELi3ELi1EEEEES8_EEEESJ_EES8_E3rhsEv)
                  0001996e    00000002     --HOLE-- [fill = 0]
                  00019970    0000000e     CarSim.obj (.text:_ZNK5Eigen13CwiseBinaryOpINS_8internal13scalar_sum_opIffEEKNS0_IS3_KNS0_IS3_KNS_5BlockINS_6MatrixIfLi3ELi4ELi0ELi3ELi4EEELi3ELi1ELb1EEEKNS0_INS1_17scalar_product_opIffEEKNS_14CwiseNullaryOpINS1_18scalar_constant_opIfEEKNS5_IfLi3ELi1ELi0ELi3ELi1EEEEES8_EEEESJ_EES8_E7functorEv)
                  0001997e    00000002     --HOLE-- [fill = 0]
                  00019980    0000000e     CarSim.obj (.text:_ZNK5Eigen13CwiseBinaryOpINS_8internal13scalar_sum_opIffEEKNS0_IS3_KNS_5BlockINS_6MatrixIfLi3ELi4ELi0ELi3ELi4EEELi3ELi1ELb1EEEKNS0_INS1_17scalar_product_opIffEEKNS_14CwiseNullaryOpINS1_18scalar_constant_opIfEEKNS5_IfLi3ELi1ELi0ELi3ELi1EEEEES8_EEEESJ_E3lhsEv)
                  0001998e    00000002     --HOLE-- [fill = 0]
                  00019990    0000000e     CarSim.obj (.text:_ZNK5Eigen13CwiseBinaryOpINS_8internal13scalar_sum_opIffEEKNS0_IS3_KNS_5BlockINS_6MatrixIfLi3ELi4ELi0ELi3ELi4EEELi3ELi1ELb1EEEKNS0_INS1_17scalar_product_opIffEEKNS_14CwiseNullaryOpINS1_18scalar_constant_opIfEEKNS5_IfLi3ELi1ELi0ELi3ELi1EEEEES8_EEEESJ_E3rhsEv)
                  0001999e    00000002     --HOLE-- [fill = 0]
                  000199a0    0000000e     CarSim.obj (.text:_ZNK5Eigen13CwiseBinaryOpINS_8internal13scalar_sum_opIffEEKNS0_IS3_KNS_5BlockINS_6MatrixIfLi3ELi4ELi0ELi3ELi4EEELi3ELi1ELb1EEEKNS0_INS1_17scalar_product_opIffEEKNS_14CwiseNullaryOpINS1_18scalar_constant_opIfEEKNS5_IfLi3ELi1ELi0ELi3ELi1EEEEES8_EEEESJ_E7functorEv)
                  000199ae    00000002     --HOLE-- [fill = 0]
                  000199b0    0000000e     CarSim.obj (.text:_ZNK5Eigen13CwiseBinaryOpINS_8internal13scalar_sum_opIffEEKNS_5BlockINS_6MatrixIfLi3ELi4ELi0ELi3ELi4EEELi3ELi1ELb1EEEKNS0_INS1_17scalar_product_opIffEEKNS_14CwiseNullaryOpINS1_18scalar_constant_opIfEEKNS5_IfLi3ELi1ELi0ELi3ELi1EEEEES8_EEE3rhsEv)
                  000199be    00000002     --HOLE-- [fill = 0]
                  000199c0    0000000e     CarSim.obj (.text:_ZNK5Eigen13CwiseBinaryOpINS_8internal13scalar_sum_opIffEEKNS_5BlockINS_6MatrixIfLi3ELi4ELi0ELi3ELi4EEELi3ELi1ELb1EEEKNS0_INS1_17scalar_product_opIffEEKNS_14CwiseNullaryOpINS1_18scalar_constant_opIfEEKNS5_IfLi3ELi1ELi0ELi3ELi1EEEEES8_EEE4colsEv)
                  000199ce    00000002     --HOLE-- [fill = 0]
                  000199d0    0000000e     CarSim.obj (.text:_ZNK5Eigen13CwiseBinaryOpINS_8internal13scalar_sum_opIffEEKNS_5BlockINS_6MatrixIfLi3ELi4ELi0ELi3ELi4EEELi3ELi1ELb1EEEKNS0_INS1_17scalar_product_opIffEEKNS_14CwiseNullaryOpINS1_18scalar_constant_opIfEEKNS5_IfLi3ELi1ELi0ELi3ELi1EEEEES8_EEE4rowsEv)
                  000199de    00000002     --HOLE-- [fill = 0]
                  000199e0    0000000e     CarSim.obj (.text:_ZNK5Eigen13CwiseBinaryOpINS_8internal13scalar_sum_opIffEEKNS_5BlockINS_6MatrixIfLi3ELi4ELi0ELi3ELi4EEELi3ELi1ELb1EEEKNS0_INS1_17scalar_product_opIffEEKNS_14CwiseNullaryOpINS1_18scalar_constant_opIfEEKNS5_IfLi3ELi1ELi0ELi3ELi1EEEEES8_EEE7functorEv)
                  000199ee    00000002     --HOLE-- [fill = 0]
                  000199f0    0000000e     PathGenerator.obj (.text:_ZNK5Eigen13CwiseBinaryOpINS_8internal13scalar_sum_opIffEEKNS_6MatrixIfLi2ELi1ELi0ELi2ELi1EEEKNS0_INS1_17scalar_product_opIffEEKNS_14CwiseNullaryOpINS1_18scalar_constant_opIfEES6_EEKNS0_INS1_20scalar_difference_opIffEES6_S6_EEEEE3lhsEv)
                  000199fe    00000002     --HOLE-- [fill = 0]
                  00019a00    0000000e     PathGenerator.obj (.text:_ZNK5Eigen13CwiseBinaryOpINS_8internal13scalar_sum_opIffEEKNS_6MatrixIfLi2ELi1ELi0ELi2ELi1EEEKNS0_INS1_17scalar_product_opIffEEKNS_14CwiseNullaryOpINS1_18scalar_constant_opIfEES6_EEKNS0_INS1_20scalar_difference_opIffEES6_S6_EEEEE3rhsEv)
                  00019a0e    00000002     --HOLE-- [fill = 0]
                  00019a10    0000000e     PathGenerator.obj (.text:_ZNK5Eigen13CwiseBinaryOpINS_8internal13scalar_sum_opIffEEKNS_6MatrixIfLi2ELi1ELi0ELi2ELi1EEEKNS0_INS1_17scalar_product_opIffEEKNS_14CwiseNullaryOpINS1_18scalar_constant_opIfEES6_EEKNS0_INS1_20scalar_difference_opIffEES6_S6_EEEEE7functorEv)
                  00019a1e    00000002     --HOLE-- [fill = 0]
                  00019a20    0000000e     PathGenerator.obj (.text:_ZNK5Eigen13CwiseBinaryOpINS_8internal13scalar_sum_opIffEEKNS_6MatrixIfLi2ELi1ELi0ELi2ELi1EEEKNS0_INS1_17scalar_product_opIffEEKNS_14CwiseNullaryOpINS1_18scalar_constant_opIfEES6_EES6_EEE3lhsEv)
                  00019a2e    00000002     --HOLE-- [fill = 0]
                  00019a30    0000000e     PathGenerator.obj (.text:_ZNK5Eigen13CwiseBinaryOpINS_8internal13scalar_sum_opIffEEKNS_6MatrixIfLi2ELi1ELi0ELi2ELi1EEEKNS0_INS1_17scalar_product_opIffEEKNS_14CwiseNullaryOpINS1_18scalar_constant_opIfEES6_EES6_EEE3rhsEv)
                  00019a3e    00000002     --HOLE-- [fill = 0]
                  00019a40    0000000e     PathGenerator.obj (.text:_ZNK5Eigen13CwiseBinaryOpINS_8internal13scalar_sum_opIffEEKNS_6MatrixIfLi2ELi1ELi0ELi2ELi1EEEKNS0_INS1_17scalar_product_opIffEEKNS_14CwiseNullaryOpINS1_18scalar_constant_opIfEES6_EES6_EEE7functorEv)
                  00019a4e    00000002     --HOLE-- [fill = 0]
                  00019a50    0000000e     PathGenerator.obj (.text:_ZNK5Eigen13CwiseBinaryOpINS_8internal13scalar_sum_opIffEEKNS_6MatrixIfLi2ELi1ELi0ELi2ELi1EEES6_E3lhsEv)
                  00019a5e    00000002     --HOLE-- [fill = 0]
                  00019a60    0000000e     PathGenerator.obj (.text:_ZNK5Eigen13CwiseBinaryOpINS_8internal13scalar_sum_opIffEEKNS_6MatrixIfLi2ELi1ELi0ELi2ELi1EEES6_E3rhsEv)
                  00019a6e    00000002     --HOLE-- [fill = 0]
                  00019a70    0000000e     PathGenerator.obj (.text:_ZNK5Eigen13CwiseBinaryOpINS_8internal13scalar_sum_opIffEEKNS_6MatrixIfLi2ELi1ELi0ELi2ELi1EEES6_E7functorEv)
                  00019a7e    00000002     --HOLE-- [fill = 0]
                  00019a80    0000000e     CarSim.obj (.text:_ZNK5Eigen13CwiseBinaryOpINS_8internal13scalar_sum_opIffEEKNS_6MatrixIfLi3ELi1ELi0ELi3ELi1EEEKNS0_INS1_17scalar_product_opIffEEKNS_14CwiseNullaryOpINS1_18scalar_constant_opIfEES6_EEKNS0_IS3_KNS0_IS3_KNS0_IS3_KNS_5BlockINS4_IfLi3ELi4ELi0ELi3ELi4EEELi3ELi1ELb1EEEKNS0_IS8_SD_SH_EEEESJ_EESH_EEEEE3lhsEv)
                  00019a8e    00000002     --HOLE-- [fill = 0]
                  00019a90    0000000e     CarSim.obj (.text:_ZNK5Eigen13CwiseBinaryOpINS_8internal13scalar_sum_opIffEEKNS_6MatrixIfLi3ELi1ELi0ELi3ELi1EEEKNS0_INS1_17scalar_product_opIffEEKNS_14CwiseNullaryOpINS1_18scalar_constant_opIfEES6_EEKNS0_IS3_KNS0_IS3_KNS0_IS3_KNS_5BlockINS4_IfLi3ELi4ELi0ELi3ELi4EEELi3ELi1ELb1EEEKNS0_IS8_SD_SH_EEEESJ_EESH_EEEEE3rhsEv)
                  00019a9e    00000002     --HOLE-- [fill = 0]
                  00019aa0    0000000e     CarSim.obj (.text:_ZNK5Eigen13CwiseBinaryOpINS_8internal13scalar_sum_opIffEEKNS_6MatrixIfLi3ELi1ELi0ELi3ELi1EEEKNS0_INS1_17scalar_product_opIffEEKNS_14CwiseNullaryOpINS1_18scalar_constant_opIfEES6_EEKNS0_IS3_KNS0_IS3_KNS0_IS3_KNS_5BlockINS4_IfLi3ELi4ELi0ELi3ELi4EEELi3ELi1ELb1EEEKNS0_IS8_SD_SH_EEEESJ_EESH_EEEEE7functorEv)
                  00019aae    00000002     --HOLE-- [fill = 0]
                  00019ab0    0000000e     PathGenerator.obj (.text:_ZNK5Eigen13CwiseBinaryOpINS_8internal17scalar_product_opIffEEKNS_14CwiseNullaryOpINS1_18scalar_constant_opIfEEKNS_6MatrixIfLi2ELi1ELi0ELi2ELi1EEEEEKNS0_INS1_20scalar_difference_opIffEES9_S9_EEE3lhsEv)
                  00019abe    00000002     --HOLE-- [fill = 0]
                  00019ac0    0000000e     PathGenerator.obj (.text:_ZNK5Eigen13CwiseBinaryOpINS_8internal17scalar_product_opIffEEKNS_14CwiseNullaryOpINS1_18scalar_constant_opIfEEKNS_6MatrixIfLi2ELi1ELi0ELi2ELi1EEEEEKNS0_INS1_20scalar_difference_opIffEES9_S9_EEE3rhsEv)
                  00019ace    00000002     --HOLE-- [fill = 0]
                  00019ad0    0000000e     PathGenerator.obj (.text:_ZNK5Eigen13CwiseBinaryOpINS_8internal17scalar_product_opIffEEKNS_14CwiseNullaryOpINS1_18scalar_constant_opIfEEKNS_6MatrixIfLi2ELi1ELi0ELi2ELi1EEEEEKNS0_INS1_20scalar_difference_opIffEES9_S9_EEE7functorEv)
                  00019ade    00000002     --HOLE-- [fill = 0]
                  00019ae0    0000000e     PathGenerator.obj (.text:_ZNK5Eigen13CwiseBinaryOpINS_8internal17scalar_product_opIffEEKNS_14CwiseNullaryOpINS1_18scalar_constant_opIfEEKNS_6MatrixIfLi2ELi1ELi0ELi2ELi1EEEEES9_E3lhsEv)
                  00019aee    00000002     --HOLE-- [fill = 0]
                  00019af0    0000000e     PathGenerator.obj (.text:_ZNK5Eigen13CwiseBinaryOpINS_8internal17scalar_product_opIffEEKNS_14CwiseNullaryOpINS1_18scalar_constant_opIfEEKNS_6MatrixIfLi2ELi1ELi0ELi2ELi1EEEEES9_E3rhsEv)
                  00019afe    00000002     --HOLE-- [fill = 0]
                  00019b00    0000000e     PathGenerator.obj (.text:_ZNK5Eigen13CwiseBinaryOpINS_8internal17scalar_product_opIffEEKNS_14CwiseNullaryOpINS1_18scalar_constant_opIfEEKNS_6MatrixIfLi2ELi1ELi0ELi2ELi1EEEEES9_E7functorEv)
                  00019b0e    00000002     --HOLE-- [fill = 0]
                  00019b10    0000000e     CarSim.obj (.text:_ZNK5Eigen13CwiseBinaryOpINS_8internal17scalar_product_opIffEEKNS_14CwiseNullaryOpINS1_18scalar_constant_opIfEEKNS_6MatrixIfLi3ELi1ELi0ELi3ELi1EEEEEKNS0_INS1_13scalar_sum_opIffEEKNS0_ISD_KNS0_ISD_KNS_5BlockINS7_IfLi3ELi4ELi0ELi3ELi4EEELi3ELi1ELb1EEEKNS0_IS3_SB_SH_EEEESJ_EESH_EEE3lhsEv)
                  00019b1e    00000002     --HOLE-- [fill = 0]
                  00019b20    0000000e     CarSim.obj (.text:_ZNK5Eigen13CwiseBinaryOpINS_8internal17scalar_product_opIffEEKNS_14CwiseNullaryOpINS1_18scalar_constant_opIfEEKNS_6MatrixIfLi3ELi1ELi0ELi3ELi1EEEEEKNS0_INS1_13scalar_sum_opIffEEKNS0_ISD_KNS0_ISD_KNS_5BlockINS7_IfLi3ELi4ELi0ELi3ELi4EEELi3ELi1ELb1EEEKNS0_IS3_SB_SH_EEEESJ_EESH_EEE3rhsEv)
                  00019b2e    00000002     --HOLE-- [fill = 0]
                  00019b30    0000000e     CarSim.obj (.text:_ZNK5Eigen13CwiseBinaryOpINS_8internal17scalar_product_opIffEEKNS_14CwiseNullaryOpINS1_18scalar_constant_opIfEEKNS_6MatrixIfLi3ELi1ELi0ELi3ELi1EEEEEKNS0_INS1_13scalar_sum_opIffEEKNS0_ISD_KNS0_ISD_KNS_5BlockINS7_IfLi3ELi4ELi0ELi3ELi4EEELi3ELi1ELb1EEEKNS0_IS3_SB_SH_EEEESJ_EESH_EEE7functorEv)
                  00019b3e    00000002     --HOLE-- [fill = 0]
                  00019b40    0000000e     CarSim.obj (.text:_ZNK5Eigen13CwiseBinaryOpINS_8internal17scalar_product_opIffEEKNS_14CwiseNullaryOpINS1_18scalar_constant_opIfEEKNS_6MatrixIfLi3ELi1ELi0ELi3ELi1EEEEEKNS_5BlockINS7_IfLi3ELi4ELi0ELi3ELi4EEELi3ELi1ELb1EEEE3lhsEv)
                  00019b4e    00000002     --HOLE-- [fill = 0]
                  00019b50    0000000e     CarSim.obj (.text:_ZNK5Eigen13CwiseBinaryOpINS_8internal17scalar_product_opIffEEKNS_14CwiseNullaryOpINS1_18scalar_constant_opIfEEKNS_6MatrixIfLi3ELi1ELi0ELi3ELi1EEEEEKNS_5BlockINS7_IfLi3ELi4ELi0ELi3ELi4EEELi3ELi1ELb1EEEE3rhsEv)
                  00019b5e    00000002     --HOLE-- [fill = 0]
                  00019b60    0000000e     CarSim.obj (.text:_ZNK5Eigen13CwiseBinaryOpINS_8internal17scalar_product_opIffEEKNS_14CwiseNullaryOpINS1_18scalar_constant_opIfEEKNS_6MatrixIfLi3ELi1ELi0ELi3ELi1EEEEEKNS_5BlockINS7_IfLi3ELi4ELi0ELi3ELi4EEELi3ELi1ELb1EEEE7functorEv)
                  00019b6e    00000002     --HOLE-- [fill = 0]
                  00019b70    0000000e     PathTrackSim.obj (.text:_ZNK5Eigen13CwiseBinaryOpINS_8internal17scalar_product_opIffEEKNS_14CwiseNullaryOpINS1_18scalar_constant_opIfEEKNS_6MatrixIfLi3ELi1ELi0ELi3ELi1EEEEES9_E3lhsEv)
                  00019b7e    00000002     --HOLE-- [fill = 0]
                  00019b80    0000000e     PathTrackSim.obj (.text:_ZNK5Eigen13CwiseBinaryOpINS_8internal17scalar_product_opIffEEKNS_14CwiseNullaryOpINS1_18scalar_constant_opIfEEKNS_6MatrixIfLi3ELi1ELi0ELi3ELi1EEEEES9_E3rhsEv)
                  00019b8e    00000002     --HOLE-- [fill = 0]
                  00019b90    0000000e     PathTrackSim.obj (.text:_ZNK5Eigen13CwiseBinaryOpINS_8internal17scalar_product_opIffEEKNS_14CwiseNullaryOpINS1_18scalar_constant_opIfEEKNS_6MatrixIfLi3ELi1ELi0ELi3ELi1EEEEES9_E7functorEv)
                  00019b9e    00000002     --HOLE-- [fill = 0]
                  00019ba0    0000000e     PathGenerator.obj (.text:_ZNK5Eigen13CwiseBinaryOpINS_8internal20scalar_difference_opIffEEKNS_6MatrixIfLi2ELi1ELi0ELi2ELi1EEES6_E3lhsEv)
                  00019bae    00000002     --HOLE-- [fill = 0]
                  00019bb0    0000000e     PathGenerator.obj (.text:_ZNK5Eigen13CwiseBinaryOpINS_8internal20scalar_difference_opIffEEKNS_6MatrixIfLi2ELi1ELi0ELi2ELi1EEES6_E3rhsEv)
                  00019bbe    00000002     --HOLE-- [fill = 0]
                  00019bc0    0000000e     PathGenerator.obj (.text:_ZNK5Eigen13CwiseBinaryOpINS_8internal20scalar_difference_opIffEEKNS_6MatrixIfLi2ELi1ELi0ELi2ELi1EEES6_E7functorEv)
                  00019bce    00000002     --HOLE-- [fill = 0]
                  00019bd0    0000000e     PathGenerator.obj (.text:_ZNK5Eigen13CwiseBinaryOpINS_8internal22scalar_conj_product_opIffEEKNS_6MatrixIfLi2ELi1ELi0ELi2ELi1EEES6_E3lhsEv)
                  00019bde    00000002     --HOLE-- [fill = 0]
                  00019be0    0000000e     PathGenerator.obj (.text:_ZNK5Eigen13CwiseBinaryOpINS_8internal22scalar_conj_product_opIffEEKNS_6MatrixIfLi2ELi1ELi0ELi2ELi1EEES6_E3rhsEv)
                  00019bee    00000002     --HOLE-- [fill = 0]
                  00019bf0    0000000e     PathGenerator.obj (.text:_ZNK5Eigen13CwiseBinaryOpINS_8internal22scalar_conj_product_opIffEEKNS_6MatrixIfLi2ELi1ELi0ELi2ELi1EEES6_E7functorEv)
                  00019bfe    00000002     --HOLE-- [fill = 0]
                  00019c00    0000000e     PathTrackSim.obj (.text:_ZNK5Eigen13CwiseBinaryOpINS_8internal22scalar_conj_product_opIffEEKNS_6MatrixIfLi3ELi1ELi0ELi3ELi1EEES6_E3lhsEv)
                  00019c0e    00000002     --HOLE-- [fill = 0]
                  00019c10    0000000e     PathTrackSim.obj (.text:_ZNK5Eigen13CwiseBinaryOpINS_8internal22scalar_conj_product_opIffEEKNS_6MatrixIfLi3ELi1ELi0ELi3ELi1EEES6_E3rhsEv)
                  00019c1e    00000002     --HOLE-- [fill = 0]
                  00019c20    0000000e     PathTrackSim.obj (.text:_ZNK5Eigen13CwiseBinaryOpINS_8internal22scalar_conj_product_opIffEEKNS_6MatrixIfLi3ELi1ELi0ELi3ELi1EEES6_E7functorEv)
                  00019c2e    00000002     --HOLE-- [fill = 0]
                  00019c30    0000000e     PathGenerator.obj (.text:_ZNK5Eigen14CwiseNullaryOpINS_8internal18scalar_constant_opIfEEKNS_6MatrixIfLi2ELi1ELi0ELi2ELi1EEEE7functorEv)
                  00019c3e    00000002     --HOLE-- [fill = 0]
                  00019c40    0000000e     CarSim.obj (.text:_ZNK5Eigen14CwiseNullaryOpINS_8internal18scalar_constant_opIfEEKNS_6MatrixIfLi3ELi1ELi0ELi3ELi1EEEE7functorEv)
                  00019c4e    00000002     --HOLE-- [fill = 0]
                  00019c50    0000000e     PathGenerator.obj (.text:_ZNK5Eigen14CwiseNullaryOpINS_8internal18scalar_constant_opIfEENS_6MatrixIfLi2ELi1ELi0ELi2ELi1EEEE7functorEv)
                  00019c5e    00000002     --HOLE-- [fill = 0]
                  00019c60    0000000e     Car.obj (.text:_ZNK5Eigen7MapBaseINS_3MapIKNS_6MatrixIfLi3ELi1ELi0ELi3ELi1EEELi0ENS_6StrideILi0ELi0EEEEELi0EE4dataEv)
                  00019c6e    00000002     --HOLE-- [fill = 0]
                  00019c70    0000000e     PathGenerator.obj (.text:_ZNK5Eigen7MapBaseINS_5BlockINS_6MatrixIfLi2ELi2ELi0ELi2ELi2EEELin1ELin1ELb0EEELi0EE4colsEv)
                  00019c7e    00000002     --HOLE-- [fill = 0]
                  00019c80    0000000e     PathGenerator.obj (.text:_ZNK5Eigen7MapBaseINS_5BlockINS_6MatrixIfLi2ELi2ELi0ELi2ELi2EEELin1ELin1ELb0EEELi0EE4rowsEv)
                  00019c8e    00000002     --HOLE-- [fill = 0]
                  00019c90    0000000e     PathGenerator.obj (.text:_ZNK5Eigen7MapBaseINS_5BlockINS_6MatrixIfLi2ELi2ELi0ELi2ELi2EEELin1ELin1ELb0EEELi1EE4dataEv)
                  00019c9e    00000002     --HOLE-- [fill = 0]
                  00019ca0    0000000e     CarSim.obj (.text:_ZNK5Eigen7MapBaseINS_5BlockINS_6MatrixIfLi3ELi4ELi0ELi3ELi4EEELi3ELi1ELb1EEELi1EE4dataEv)
                  00019cae    00000002     --HOLE-- [fill = 0]
                  00019cb0    0000000e     PathGenerator.obj (.text:_ZNK5Eigen8internal14scalar_abs2_opIfEclERKf)
                  00019cbe    00000002     --HOLE-- [fill = 0]
                  00019cc0    0000000e     PathGenerator.obj (.text:_ZNK5Eigen8internal15BlockImpl_denseINS_6MatrixIfLi2ELi2ELi0ELi2ELi2EEELin1ELin1ELb0ELb1EE11innerStrideEv)
                  00019cce    00000002     --HOLE-- [fill = 0]
                  00019cd0    0000000e     PathGenerator.obj (.text:_ZNK5Eigen8internal15BlockImpl_denseINS_6MatrixIfLi2ELi2ELi0ELi2ELi2EEELin1ELin1ELb0ELb1EE11outerStrideEv)
                  00019cde    00000002     --HOLE-- [fill = 0]
                  00019ce0    0000000e     CarSim.obj (.text:_ZNK5Eigen8internal15BlockImpl_denseINS_6MatrixIfLi3ELi4ELi0ELi3ELi4EEELi3ELi1ELb1ELb1EE11innerStrideEv)
                  00019cee    00000002     --HOLE-- [fill = 0]
                  00019cf0    0000000e     CarSim.obj (.text:_ZNK5Eigen8internal15BlockImpl_denseINS_6MatrixIfLi3ELi4ELi0ELi3ELi4EEELi3ELi1ELb1ELb1EE11outerStrideEv)
                  00019cfe    00000002     --HOLE-- [fill = 0]
                  00019d00    0000000e     PathGenerator.obj (.text:_ZNK5Eigen8internal19variable_if_dynamicIiLin1EE5valueEv)
                  00019d0e    00000002     --HOLE-- [fill = 0]
                  00019d10    0000000e     PathGenerator.obj (.text:_ZNK5Eigen8internal31generic_dense_assignment_kernelINS0_9evaluatorINS_5BlockINS_6MatrixIfLi2ELi2ELi0ELi2ELi2EEELin1ELin1ELb0EEEEENS2_INS4_IfLi2ELi1ELi0ELi2ELi1EEEEENS0_9assign_opIffEELi0EE9innerSizeEv)
                  00019d1e    00000002     --HOLE-- [fill = 0]
                  00019d20    0000000e     PathGenerator.obj (.text:_ZNK5Eigen8internal31generic_dense_assignment_kernelINS0_9evaluatorINS_5BlockINS_6MatrixIfLi2ELi2ELi0ELi2ELi2EEELin1ELin1ELb0EEEEENS2_INS4_IfLi2ELi1ELi0ELi2ELi1EEEEENS0_9assign_opIffEELi0EE9outerSizeEv)
                  00019d2e    00000002     --HOLE-- [fill = 0]
                  00019d30    0000000e     PathGenerator.obj (.text:_ZNK5Eigen8internal31generic_dense_assignment_kernelINS0_9evaluatorINS_5BlockINS_6MatrixIfLi2ELi2ELi0ELi2ELi2EEELin1ELin1ELb0EEEEENS2_INS_9TransposeINS4_IfLi2ELi1ELi0ELi2ELi1EEEEEEENS0_9assign_opIffEELi0EE9innerSizeEv)
                  00019d3e    00000002     --HOLE-- [fill = 0]
                  00019d40    0000000e     PathGenerator.obj (.text:_ZNK5Eigen8internal31generic_dense_assignment_kernelINS0_9evaluatorINS_5BlockINS_6MatrixIfLi2ELi2ELi0ELi2ELi2EEELin1ELin1ELb0EEEEENS2_INS_9TransposeINS4_IfLi2ELi1ELi0ELi2ELi1EEEEEEENS0_9assign_opIffEELi0EE9outerSizeEv)
                  00019d4e    00000002     --HOLE-- [fill = 0]
                  00019d50    0000000e     PathGenerator.obj (.text:_ZNK5Eigen9TransposeINS_6MatrixIfLi2ELi1ELi0ELi2ELi1EEEE16nestedExpressionEv)
                  00019d5e    00000002     --HOLE-- [fill = 0]
                  00019d60    0000000e     PathGenerator.obj (.text:_ZNK5Eigen9TransposeINS_6MatrixIfLi2ELi1ELi0ELi2ELi1EEEE4colsEv)
                  00019d6e    00000002     --HOLE-- [fill = 0]
                  00019d70    0000000e     PathGenerator.obj (.text:_ZNK5Eigen9TransposeINS_6MatrixIfLi2ELi1ELi0ELi2ELi1EEEE4rowsEv)
                  00019d7e    00000002     --HOLE-- [fill = 0]
                  00019d80    0000000e     PathGenerator.obj (.text:_ZNKSt3__210__list_impIPN9pathTrack8PathPartENS_9allocatorIS3_EEE4__szEv)
                  00019d8e    00000002     --HOLE-- [fill = 0]
                  00019d90    0000000e     PathTrackSim.obj (.text:_ZNKSt3__210__list_impIfNS_9allocatorIfEEE4__szEv)
                  00019d9e    00000002     --HOLE-- [fill = 0]
                  00019da0    0000000e     PathGenerator.obj (.text:_ZNKSt3__210unique_ptrINS_11__list_nodeIPN9pathTrack8PathPartEPvEENS_22__allocator_destructorINS_9allocatorIS6_EEEEE3getEv)
                  00019dae    00000002     --HOLE-- [fill = 0]
                  00019db0    0000000e     PathGenerator.obj (.text:_ZNKSt3__210unique_ptrINS_11__list_nodeIPN9pathTrack8PathPartEPvEENS_22__allocator_destructorINS_9allocatorIS6_EEEEEptEv)
                  00019dbe    00000002     --HOLE-- [fill = 0]
                  00019dc0    0000000e     PathTrackSim.obj (.text:_ZNKSt3__210unique_ptrINS_11__list_nodeIfPvEENS_22__allocator_destructorINS_9allocatorIS3_EEEEEptEv)
                  00019dce    00000002     --HOLE-- [fill = 0]
                  00019dd0    0000000e     PathGenerator.obj (.text:_ZNKSt3__213__vector_baseItNS_9allocatorItEEE7__allocEv)
                  00019dde    00000002     --HOLE-- [fill = 0]
                  00019de0    0000000e     PathGenerator.obj (.text:_ZNKSt3__213__vector_baseItNS_9allocatorItEEE9__end_capEv)
                  00019dee    00000002     --HOLE-- [fill = 0]
                  00019df0    0000000e     PathGenerator.obj (.text:_ZNKSt3__214__split_bufferItRNS_9allocatorItEEE9__end_capEv)
                  00019dfe    00000002     --HOLE-- [fill = 0]
                  00019e00    0000000e     PathGenerator.obj (.text:_ZNKSt3__26vectorIbNS_9allocatorIbEEE5__capEv)
                  00019e0e    00000002     --HOLE-- [fill = 0]
                  00019e10    0000000e     PathGenerator.obj (.text:_ZNKSt3__26vectorIbNS_9allocatorIbEEE7__allocEv)
                  00019e1e    00000002     --HOLE-- [fill = 0]
                  00019e20    0000000e     PathGenerator.obj (.text:_ZNKSt3__26vectorItNS_9allocatorItEEE4dataEv)
                  00019e2e    00000002     --HOLE-- [fill = 0]
                  00019e30    0000000e     PathGenerator.obj (.text:_ZNKSt3__29allocatorIjE8max_sizeEv)
                  00019e3e    00000002     --HOLE-- [fill = 0]
                  00019e40    0000000e     PathGenerator.obj (.text:_ZNKSt3__29allocatorItE8max_sizeEv)
                  00019e4e    00000002     --HOLE-- [fill = 0]
                  00019e50    0000000e     PathGenerator.obj (.text:_ZNSt3__210__list_impIPN9pathTrack8PathPartENS_9allocatorIS3_EEE12__node_allocEv)
                  00019e5e    00000002     --HOLE-- [fill = 0]
                  00019e60    0000000e     PathGenerator.obj (.text:_ZNSt3__210__list_impIPN9pathTrack8PathPartENS_9allocatorIS3_EEE4__szEv)
                  00019e6e    00000002     --HOLE-- [fill = 0]
                  00019e70    0000000e     PathTrackSim.obj (.text:_ZNSt3__210__list_impIPN9pathTrack8PathPartENS_9allocatorIS3_EEED1Ev)
                  00019e7e    00000002     --HOLE-- [fill = 0]
                  00019e80    0000000e     PathTrackSim.obj (.text:_ZNSt3__210__list_impIfNS_9allocatorIfEEE12__node_allocEv)
                  00019e8e    00000002     --HOLE-- [fill = 0]
                  00019e90    0000000e     PathTrackSim.obj (.text:_ZNSt3__210__list_impIfNS_9allocatorIfEEE4__szEv)
                  00019e9e    00000002     --HOLE-- [fill = 0]
                  00019ea0    0000000e     PathTrackSim.obj (.text:_ZNSt3__210__list_impIfNS_9allocatorIfEEED1Ev)
                  00019eae    00000002     --HOLE-- [fill = 0]
                  00019eb0    0000000e     PathGenerator.obj (.text:_ZNSt3__213__vector_baseItNS_9allocatorItEEE7__allocEv)
                  00019ebe    00000002     --HOLE-- [fill = 0]
                  00019ec0    0000000e     PathGenerator.obj (.text:_ZNSt3__213__vector_baseItNS_9allocatorItEEE9__end_capEv)
                  00019ece    00000002     --HOLE-- [fill = 0]
                  00019ed0    0000000e     PathGenerator.obj (.text:_ZNSt3__214__split_bufferItRNS_9allocatorItEEE7__allocEv)
                  00019ede    00000002     --HOLE-- [fill = 0]
                  00019ee0    0000000e     PathGenerator.obj (.text:_ZNSt3__214__split_bufferItRNS_9allocatorItEEE9__end_capEv)
                  00019eee    00000002     --HOLE-- [fill = 0]
                  00019ef0    0000000e     PathGenerator.obj (.text:_ZNSt3__217__compressed_pairIPNS_11__list_nodeIPN9pathTrack8PathPartEPvEENS_22__allocator_destructorINS_9allocatorIS6_EEEEE6secondEv)
                  00019efe    00000002     --HOLE-- [fill = 0]
                  00019f00    0000000e     PathTrackSim.obj (.text:_ZNSt3__217__compressed_pairIPNS_11__list_nodeIfPvEENS_22__allocator_destructorINS_9allocatorIS3_EEEEE6secondEv)
                  00019f0e    00000002     --HOLE-- [fill = 0]
                  00019f10    0000000e     PathGenerator.obj (.text:_ZNSt3__217__compressed_pairIPtRNS_9allocatorItEEE6secondEv)
                  00019f1e    00000002     --HOLE-- [fill = 0]
                  00019f20    0000000e     PathGenerator.obj (.text:_ZNSt3__222__compressed_pair_elemINS_9allocatorINS_11__list_nodeIPN9pathTrack8PathPartEPvEEEELi1ELb1EEC1Ev)
                  00019f2e    00000002     --HOLE-- [fill = 0]
                  00019f30    0000000e     PathTrackSim.obj (.text:_ZNSt3__222__compressed_pair_elemINS_9allocatorINS_11__list_nodeIfPvEEEELi1ELb1EEC1Ev)
                  00019f3e    00000002     --HOLE-- [fill = 0]
                  00019f40    0000000e     PathGenerator.obj (.text:_ZNSt3__222__compressed_pair_elemINS_9allocatorIjEELi1ELb1EEC1Ev)
                  00019f4e    00000002     --HOLE-- [fill = 0]
                  00019f50    0000000e     PathGenerator.obj (.text:_ZNSt3__222__compressed_pair_elemINS_9allocatorItEELi1ELb1EEC1Ev)
                  00019f5e    00000002     --HOLE-- [fill = 0]
                  00019f60    0000000e     PathGenerator.obj (.text:_ZNSt3__222__compressed_pair_elemIRNS_9allocatorItEELi1ELb0EE5__getEv)
                  00019f6e    00000002     --HOLE-- [fill = 0]
                  00019f70    0000000e     PathGenerator.obj (.text:_ZNSt3__24listIPN9pathTrack8PathPartENS_9allocatorIS3_EEEC1Ev)
                  00019f7e    00000002     --HOLE-- [fill = 0]
                  00019f80    0000000e     PathTrackSim.obj (.text:_ZNSt3__24listIPN9pathTrack8PathPartENS_9allocatorIS3_EEED1Ev)
                  00019f8e    00000002     --HOLE-- [fill = 0]
                  00019f90    0000000e     PathTrackSim.obj (.text:_ZNSt3__24listIfNS_9allocatorIfEEEC1Ev)
                  00019f9e    00000002     --HOLE-- [fill = 0]
                  00019fa0    0000000e     PathTrackSim.obj (.text:_ZNSt3__24listIfNS_9allocatorIfEEED1Ev)
                  00019fae    00000002     --HOLE-- [fill = 0]
                  00019fb0    0000000e     PathGenerator.obj (.text:_ZNSt3__26vectorIbNS_9allocatorIbEEE26__internal_cap_to_externalEj)
                  00019fbe    00000002     --HOLE-- [fill = 0]
                  00019fc0    0000000e     PathGenerator.obj (.text:_ZNSt3__26vectorIbNS_9allocatorIbEEE5__capEv)
                  00019fce    00000002     --HOLE-- [fill = 0]
                  00019fd0    0000000e     PathGenerator.obj (.text:_ZNSt3__26vectorIbNS_9allocatorIbEEE7__allocEv)
                  00019fde    00000002     --HOLE-- [fill = 0]
                  00019fe0    0000000e     PathGenerator.obj (.text:_ZNSt3__26vectorItNS_9allocatorItEEEC1Ev)
                  00019fee    00000002     --HOLE-- [fill = 0]
                  00019ff0    0000000e     PathTrackSim.obj (.text:_ZNSt3__26vectorItNS_9allocatorItEEED1Ev)
                  00019ffe    00000002     --HOLE-- [fill = 0]
                  0001a000    0000000e     PathGenerator.obj (.text:_ZNSt3__29allocatorIbEC1IjEERKNS0_IT_EE)
                  0001a00e    00000002     --HOLE-- [fill = 0]
                  0001a010    0000000e     PathGenerator.obj (.text:_ZNSt3__29allocatorIjEC1IbEERKNS0_IT_EE)
                  0001a01e    00000002     --HOLE-- [fill = 0]
                  0001a020    0000000e     PathGenerator.obj (.text:_ZnwjPv)
                  0001a02e    0000000e     rtsv7M4_T_le_v4SPD16_eabi.lib : copy_decompress_none.c.obj (.text:decompress:none:__TI_decompress_none)
                  0001a03c    0000000c     msp432p4xx_driverlib.lib : cpu.o (.text:CPU_cpsie)
                  0001a048    0000000c     PathGenerator.obj (.text:_ZN5Eigen10MatrixBaseINS_12CwiseUnaryOpINS_8internal14scalar_abs2_opIfEEKNS_13CwiseBinaryOpINS2_20scalar_difference_opIffEEKNS_6MatrixIfLi2ELi1ELi0ELi2ELi1EEESA_EEEEEC2Ev)
                  0001a054    00000004     --HOLE-- [fill = 0]
                  0001a058    0000000c     PathGenerator.obj (.text:_ZN5Eigen10MatrixBaseINS_12CwiseUnaryOpINS_8internal14scalar_abs2_opIfEEKNS_6MatrixIfLi2ELi1ELi0ELi2ELi1EEEEEEC2Ev)
                  0001a064    00000004     --HOLE-- [fill = 0]
                  0001a068    0000000c     PathTrackSim.obj (.text:_ZN5Eigen10MatrixBaseINS_12CwiseUnaryOpINS_8internal14scalar_abs2_opIfEEKNS_6MatrixIfLi3ELi1ELi0ELi3ELi1EEEEEEC2Ev)
                  0001a074    00000004     --HOLE-- [fill = 0]
                  0001a078    0000000c     PathTrackSim.obj (.text:_ZN5Eigen10MatrixBaseINS_12CwiseUnaryOpINS_8internal18scalar_opposite_opIfEEKNS_6MatrixIfLi2ELi1ELi0ELi2ELi1EEEEEEC2Ev)
                  0001a084    00000004     --HOLE-- [fill = 0]
                  0001a088    0000000c     PathTrackSim.obj (.text:_ZN5Eigen10MatrixBaseINS_13CwiseBinaryOpINS_8internal13scalar_sum_opIffEEKNS1_INS2_17scalar_product_opIffEEKNS_14CwiseNullaryOpINS2_18scalar_constant_opIfEEKNS_6MatrixIfLi3ELi1ELi0ELi3ELi1EEEEESC_EESG_EEEC2Ev)
                  0001a094    00000004     --HOLE-- [fill = 0]
                  0001a098    0000000c     CarSim.obj (.text:_ZN5Eigen10MatrixBaseINS_13CwiseBinaryOpINS_8internal13scalar_sum_opIffEEKNS1_IS4_KNS1_IS4_KNS_5BlockINS_6MatrixIfLi3ELi4ELi0ELi3ELi4EEELi3ELi1ELb1EEEKNS1_INS2_17scalar_product_opIffEEKNS_14CwiseNullaryOpINS2_18scalar_constant_opIfEEKNS6_IfLi3ELi1ELi0ELi3ELi1EEEEES9_EEEESK_EES9_EEEC2Ev)
                  0001a0a4    00000004     --HOLE-- [fill = 0]
                  0001a0a8    0000000c     CarSim.obj (.text:_ZN5Eigen10MatrixBaseINS_13CwiseBinaryOpINS_8internal13scalar_sum_opIffEEKNS1_IS4_KNS_5BlockINS_6MatrixIfLi3ELi4ELi0ELi3ELi4EEELi3ELi1ELb1EEEKNS1_INS2_17scalar_product_opIffEEKNS_14CwiseNullaryOpINS2_18scalar_constant_opIfEEKNS6_IfLi3ELi1ELi0ELi3ELi1EEEEES9_EEEESK_EEEC2Ev)
                  0001a0b4    00000004     --HOLE-- [fill = 0]
                  0001a0b8    0000000c     CarSim.obj (.text:_ZN5Eigen10MatrixBaseINS_13CwiseBinaryOpINS_8internal13scalar_sum_opIffEEKNS_5BlockINS_6MatrixIfLi3ELi4ELi0ELi3ELi4EEELi3ELi1ELb1EEEKNS1_INS2_17scalar_product_opIffEEKNS_14CwiseNullaryOpINS2_18scalar_constant_opIfEEKNS6_IfLi3ELi1ELi0ELi3ELi1EEEEES9_EEEEEC2Ev)
                  0001a0c4    00000004     --HOLE-- [fill = 0]
                  0001a0c8    0000000c     PathGenerator.obj (.text:_ZN5Eigen10MatrixBaseINS_13CwiseBinaryOpINS_8internal13scalar_sum_opIffEEKNS_6MatrixIfLi2ELi1ELi0ELi2ELi1EEEKNS1_INS2_17scalar_product_opIffEEKNS_14CwiseNullaryOpINS2_18scalar_constant_opIfEES7_EEKNS1_INS2_20scalar_difference_opIffEES7_S7_EEEEEEEC2Ev)
                  0001a0d4    00000004     --HOLE-- [fill = 0]
                  0001a0d8    0000000c     PathGenerator.obj (.text:_ZN5Eigen10MatrixBaseINS_13CwiseBinaryOpINS_8internal13scalar_sum_opIffEEKNS_6MatrixIfLi2ELi1ELi0ELi2ELi1EEEKNS1_INS2_17scalar_product_opIffEEKNS_14CwiseNullaryOpINS2_18scalar_constant_opIfEES7_EES7_EEEEEC2Ev)
                  0001a0e4    00000004     --HOLE-- [fill = 0]
                  0001a0e8    0000000c     PathGenerator.obj (.text:_ZN5Eigen10MatrixBaseINS_13CwiseBinaryOpINS_8internal13scalar_sum_opIffEEKNS_6MatrixIfLi2ELi1ELi0ELi2ELi1EEES7_EEEC2Ev)
                  0001a0f4    00000004     --HOLE-- [fill = 0]
                  0001a0f8    0000000c     CarSim.obj (.text:_ZN5Eigen10MatrixBaseINS_13CwiseBinaryOpINS_8internal13scalar_sum_opIffEEKNS_6MatrixIfLi3ELi1ELi0ELi3ELi1EEEKNS1_INS2_17scalar_product_opIffEEKNS_14CwiseNullaryOpINS2_18scalar_constant_opIfEES7_EEKNS1_IS4_KNS1_IS4_KNS1_IS4_KNS_5BlockINS5_IfLi3ELi4ELi0ELi3ELi4EEELi3ELi1ELb1EEEKNS1_IS9_SE_SI_EEEESK_EESI_EEEEEEEC2Ev)
                  0001a104    00000004     --HOLE-- [fill = 0]
                  0001a108    0000000c     PathGenerator.obj (.text:_ZN5Eigen10MatrixBaseINS_13CwiseBinaryOpINS_8internal17scalar_product_opIffEEKNS_14CwiseNullaryOpINS2_18scalar_constant_opIfEEKNS_6MatrixIfLi2ELi1ELi0ELi2ELi1EEEEEKNS1_INS2_20scalar_difference_opIffEESA_SA_EEEEEC2Ev)
                  0001a114    00000004     --HOLE-- [fill = 0]
                  0001a118    0000000c     PathGenerator.obj (.text:_ZN5Eigen10MatrixBaseINS_13CwiseBinaryOpINS_8internal17scalar_product_opIffEEKNS_14CwiseNullaryOpINS2_18scalar_constant_opIfEEKNS_6MatrixIfLi2ELi1ELi0ELi2ELi1EEEEESA_EEEC2Ev)
                  0001a124    00000004     --HOLE-- [fill = 0]
                  0001a128    0000000c     CarSim.obj (.text:_ZN5Eigen10MatrixBaseINS_13CwiseBinaryOpINS_8internal17scalar_product_opIffEEKNS_14CwiseNullaryOpINS2_18scalar_constant_opIfEEKNS_6MatrixIfLi3ELi1ELi0ELi3ELi1EEEEEKNS1_INS2_13scalar_sum_opIffEEKNS1_ISE_KNS1_ISE_KNS_5BlockINS8_IfLi3ELi4ELi0ELi3ELi4EEELi3ELi1ELb1EEEKNS1_IS4_SC_SI_EEEESK_EESI_EEEEEC2Ev)
                  0001a134    00000004     --HOLE-- [fill = 0]
                  0001a138    0000000c     CarSim.obj (.text:_ZN5Eigen10MatrixBaseINS_13CwiseBinaryOpINS_8internal17scalar_product_opIffEEKNS_14CwiseNullaryOpINS2_18scalar_constant_opIfEEKNS_6MatrixIfLi3ELi1ELi0ELi3ELi1EEEEEKNS_5BlockINS8_IfLi3ELi4ELi0ELi3ELi4EEELi3ELi1ELb1EEEEEEC2Ev)
                  0001a144    00000004     --HOLE-- [fill = 0]
                  0001a148    0000000c     PathTrackSim.obj (.text:_ZN5Eigen10MatrixBaseINS_13CwiseBinaryOpINS_8internal17scalar_product_opIffEEKNS_14CwiseNullaryOpINS2_18scalar_constant_opIfEEKNS_6MatrixIfLi3ELi1ELi0ELi3ELi1EEEEESA_EEEC2Ev)
                  0001a154    00000004     --HOLE-- [fill = 0]
                  0001a158    0000000c     PathGenerator.obj (.text:_ZN5Eigen10MatrixBaseINS_13CwiseBinaryOpINS_8internal20scalar_difference_opIffEEKNS_6MatrixIfLi2ELi1ELi0ELi2ELi1EEES7_EEEC2Ev)
                  0001a164    00000004     --HOLE-- [fill = 0]
                  0001a168    0000000c     PathGenerator.obj (.text:_ZN5Eigen10MatrixBaseINS_13CwiseBinaryOpINS_8internal22scalar_conj_product_opIffEEKNS_6MatrixIfLi2ELi1ELi0ELi2ELi1EEES7_EEEC2Ev)
                  0001a174    00000004     --HOLE-- [fill = 0]
                  0001a178    0000000c     PathTrackSim.obj (.text:_ZN5Eigen10MatrixBaseINS_13CwiseBinaryOpINS_8internal22scalar_conj_product_opIffEEKNS_6MatrixIfLi3ELi1ELi0ELi3ELi1EEES7_EEEC2Ev)
                  0001a184    00000004     --HOLE-- [fill = 0]
                  0001a188    0000000c     PathGenerator.obj (.text:_ZN5Eigen10MatrixBaseINS_14CwiseNullaryOpINS_8internal18scalar_constant_opIfEEKNS_6MatrixIfLi2ELi1ELi0ELi2ELi1EEEEEEC2Ev)
                  0001a194    00000004     --HOLE-- [fill = 0]
                  0001a198    0000000c     CarSim.obj (.text:_ZN5Eigen10MatrixBaseINS_14CwiseNullaryOpINS_8internal18scalar_constant_opIfEEKNS_6MatrixIfLi3ELi1ELi0ELi3ELi1EEEEEEC2Ev)
                  0001a1a4    00000004     --HOLE-- [fill = 0]
                  0001a1a8    0000000c     PathGenerator.obj (.text:_ZN5Eigen10MatrixBaseINS_14CwiseNullaryOpINS_8internal18scalar_constant_opIfEENS_6MatrixIfLi2ELi1ELi0ELi2ELi1EEEEEEC2Ev)
                  0001a1b4    00000004     --HOLE-- [fill = 0]
                  0001a1b8    0000000c     Car.obj (.text:_ZN5Eigen10MatrixBaseINS_3MapIKNS_6MatrixIfLi3ELi1ELi0ELi3ELi1EEELi0ENS_6StrideILi0ELi0EEEEEEC2Ev)
                  0001a1c4    00000004     --HOLE-- [fill = 0]
                  0001a1c8    0000000c     PathGenerator.obj (.text:_ZN5Eigen10MatrixBaseINS_5BlockINS_6MatrixIfLi2ELi2ELi0ELi2ELi2EEELin1ELin1ELb0EEEEC2Ev)
                  0001a1d4    00000004     --HOLE-- [fill = 0]
                  0001a1d8    0000000c     CarSim.obj (.text:_ZN5Eigen10MatrixBaseINS_5BlockINS_6MatrixIfLi3ELi4ELi0ELi3ELi4EEELi3ELi1ELb1EEEEC2Ev)
                  0001a1e4    00000004     --HOLE-- [fill = 0]
                  0001a1e8    0000000c     Task.obj (.text:_ZN5Eigen10MatrixBaseINS_6MatrixIfLi2ELi1ELi0ELi2ELi1EEEEC2Ev)
                  0001a1f4    00000004     --HOLE-- [fill = 0]
                  0001a1f8    0000000c     PathGenerator.obj (.text:_ZN5Eigen10MatrixBaseINS_6MatrixIfLi2ELi2ELi0ELi2ELi2EEEEC2Ev)
                  0001a204    00000004     --HOLE-- [fill = 0]
                  0001a208    0000000c     Car.obj (.text:_ZN5Eigen10MatrixBaseINS_6MatrixIfLi3ELi1ELi0ELi3ELi1EEEEC2Ev)
                  0001a214    00000004     --HOLE-- [fill = 0]
                  0001a218    0000000c     CarSim.obj (.text:_ZN5Eigen10MatrixBaseINS_6MatrixIfLi3ELi4ELi0ELi3ELi4EEEEC2Ev)
                  0001a224    00000004     --HOLE-- [fill = 0]
                  0001a228    0000000c     PathGenerator.obj (.text:_ZN5Eigen10MatrixBaseINS_9TransposeIKNS_6MatrixIfLi2ELi1ELi0ELi2ELi1EEEEEEC2Ev)
                  0001a234    00000004     --HOLE-- [fill = 0]
                  0001a238    0000000c     PathGenerator.obj (.text:_ZN5Eigen10MatrixBaseINS_9TransposeINS_6MatrixIfLi2ELi1ELi0ELi2ELi1EEEEEEC2Ev)
                  0001a244    00000004     --HOLE-- [fill = 0]
                  0001a248    0000000c     CarSim.obj (.text:_ZN5Eigen12DenseStorageIfLi12ELi3ELi4ELi0EE4dataEv)
                  0001a254    00000004     --HOLE-- [fill = 0]
                  0001a258    0000000c     PathGenerator.obj (.text:_ZN5Eigen12DenseStorageIfLi2ELi2ELi1ELi0EE4dataEv)
                  0001a264    00000004     --HOLE-- [fill = 0]
                  0001a268    0000000c     Car.obj (.text:_ZN5Eigen12DenseStorageIfLi3ELi3ELi1ELi0EE4dataEv)
                  0001a274    00000004     --HOLE-- [fill = 0]
                  0001a278    0000000c     PathGenerator.obj (.text:_ZN5Eigen12DenseStorageIfLi4ELi2ELi2ELi0EE4dataEv)
                  0001a284    00000004     --HOLE-- [fill = 0]
                  0001a288    0000000c     PathGenerator.obj (.text:_ZN5Eigen13TransposeImplIKNS_6MatrixIfLi2ELi1ELi0ELi2ELi1EEENS_5DenseEEC2Ev)
                  0001a294    00000004     --HOLE-- [fill = 0]
                  0001a298    0000000c     PathGenerator.obj (.text:_ZN5Eigen13TransposeImplINS_6MatrixIfLi2ELi1ELi0ELi2ELi1EEENS_5DenseEEC2Ev)
                  0001a2a4    00000004     --HOLE-- [fill = 0]
                  0001a2a8    0000000c     PathGenerator.obj (.text:_ZN5Eigen15PlainObjectBaseINS_6MatrixIfLi2ELi1ELi0ELi2ELi1EEEE4baseEv)
                  0001a2b4    00000004     --HOLE-- [fill = 0]
                  0001a2b8    0000000c     PathGenerator.obj (.text:_ZN5Eigen15PlainObjectBaseINS_6MatrixIfLi2ELi1ELi0ELi2ELi1EEEE4dataEv)
                  0001a2c4    00000004     --HOLE-- [fill = 0]
                  0001a2c8    0000000c     Task.obj (.text:_ZN5Eigen15PlainObjectBaseINS_6MatrixIfLi2ELi1ELi0ELi2ELi1EEEEC2Ev)
                  0001a2d4    00000004     --HOLE-- [fill = 0]
                  0001a2d8    0000000c     PathGenerator.obj (.text:_ZN5Eigen15PlainObjectBaseINS_6MatrixIfLi2ELi2ELi0ELi2ELi2EEEE4dataEv)
                  0001a2e4    00000004     --HOLE-- [fill = 0]
                  0001a2e8    0000000c     PathGenerator.obj (.text:_ZN5Eigen15PlainObjectBaseINS_6MatrixIfLi2ELi2ELi0ELi2ELi2EEEEC2Ev)
                  0001a2f4    00000004     --HOLE-- [fill = 0]
                  0001a2f8    0000000c     Car.obj (.text:_ZN5Eigen15PlainObjectBaseINS_6MatrixIfLi3ELi1ELi0ELi3ELi1EEEEC2Ev)
                  0001a304    00000004     --HOLE-- [fill = 0]
                  0001a308    0000000c     CarSim.obj (.text:_ZN5Eigen15PlainObjectBaseINS_6MatrixIfLi3ELi4ELi0ELi3ELi4EEEE4dataEv)
                  0001a314    00000004     --HOLE-- [fill = 0]
                  0001a318    0000000c     CarSim.obj (.text:_ZN5Eigen15PlainObjectBaseINS_6MatrixIfLi3ELi4ELi0ELi3ELi4EEEEC2Ev)
                  0001a324    00000004     --HOLE-- [fill = 0]
                  0001a328    0000000c     PathGenerator.obj (.text:_ZN5Eigen16CwiseUnaryOpImplINS_8internal14scalar_abs2_opIfEEKNS_13CwiseBinaryOpINS1_20scalar_difference_opIffEEKNS_6MatrixIfLi2ELi1ELi0ELi2ELi1EEES9_EENS_5DenseEEC2Ev)
                  0001a334    00000004     --HOLE-- [fill = 0]
                  0001a338    0000000c     PathGenerator.obj (.text:_ZN5Eigen16CwiseUnaryOpImplINS_8internal14scalar_abs2_opIfEEKNS_6MatrixIfLi2ELi1ELi0ELi2ELi1EEENS_5DenseEEC2Ev)
                  0001a344    00000004     --HOLE-- [fill = 0]
                  0001a348    0000000c     PathTrackSim.obj (.text:_ZN5Eigen16CwiseUnaryOpImplINS_8internal14scalar_abs2_opIfEEKNS_6MatrixIfLi3ELi1ELi0ELi3ELi1EEENS_5DenseEEC2Ev)
                  0001a354    00000004     --HOLE-- [fill = 0]
                  0001a358    0000000c     PathTrackSim.obj (.text:_ZN5Eigen16CwiseUnaryOpImplINS_8internal18scalar_opposite_opIfEEKNS_6MatrixIfLi2ELi1ELi0ELi2ELi1EEENS_5DenseEEC2Ev)
                  0001a364    00000004     --HOLE-- [fill = 0]
                  0001a368    0000000c     PathTrackSim.obj (.text:_ZN5Eigen17CwiseBinaryOpImplINS_8internal13scalar_sum_opIffEEKNS_13CwiseBinaryOpINS1_17scalar_product_opIffEEKNS_14CwiseNullaryOpINS1_18scalar_constant_opIfEEKNS_6MatrixIfLi3ELi1ELi0ELi3ELi1EEEEESC_EESG_NS_5DenseEEC2Ev)
                  0001a374    00000004     --HOLE-- [fill = 0]
                  0001a378    0000000c     CarSim.obj (.text:_ZN5Eigen17CwiseBinaryOpImplINS_8internal13scalar_sum_opIffEEKNS_13CwiseBinaryOpIS3_KNS4_IS3_KNS_5BlockINS_6MatrixIfLi3ELi4ELi0ELi3ELi4EEELi3ELi1ELb1EEEKNS4_INS1_17scalar_product_opIffEEKNS_14CwiseNullaryOpINS1_18scalar_constant_opIfEEKNS6_IfLi3ELi1ELi0ELi3ELi1EEEEES9_EEEESK_EES9_NS_5DenseEEC2Ev)
                  0001a384    00000004     --HOLE-- [fill = 0]
                  0001a388    0000000c     CarSim.obj (.text:_ZN5Eigen17CwiseBinaryOpImplINS_8internal13scalar_sum_opIffEEKNS_13CwiseBinaryOpIS3_KNS_5BlockINS_6MatrixIfLi3ELi4ELi0ELi3ELi4EEELi3ELi1ELb1EEEKNS4_INS1_17scalar_product_opIffEEKNS_14CwiseNullaryOpINS1_18scalar_constant_opIfEEKNS6_IfLi3ELi1ELi0ELi3ELi1EEEEES9_EEEESK_NS_5DenseEEC2Ev)
                  0001a394    00000004     --HOLE-- [fill = 0]
                  0001a398    0000000c     CarSim.obj (.text:_ZN5Eigen17CwiseBinaryOpImplINS_8internal13scalar_sum_opIffEEKNS_5BlockINS_6MatrixIfLi3ELi4ELi0ELi3ELi4EEELi3ELi1ELb1EEEKNS_13CwiseBinaryOpINS1_17scalar_product_opIffEEKNS_14CwiseNullaryOpINS1_18scalar_constant_opIfEEKNS5_IfLi3ELi1ELi0ELi3ELi1EEEEES8_EENS_5DenseEEC2Ev)
                  0001a3a4    00000004     --HOLE-- [fill = 0]
                  0001a3a8    0000000c     PathGenerator.obj (.text:_ZN5Eigen17CwiseBinaryOpImplINS_8internal13scalar_sum_opIffEEKNS_6MatrixIfLi2ELi1ELi0ELi2ELi1EEEKNS_13CwiseBinaryOpINS1_17scalar_product_opIffEEKNS_14CwiseNullaryOpINS1_18scalar_constant_opIfEES6_EEKNS7_INS1_20scalar_difference_opIffEES6_S6_EEEENS_5DenseEEC2Ev)
                  0001a3b4    00000004     --HOLE-- [fill = 0]
                  0001a3b8    0000000c     PathGenerator.obj (.text:_ZN5Eigen17CwiseBinaryOpImplINS_8internal13scalar_sum_opIffEEKNS_6MatrixIfLi2ELi1ELi0ELi2ELi1EEEKNS_13CwiseBinaryOpINS1_17scalar_product_opIffEEKNS_14CwiseNullaryOpINS1_18scalar_constant_opIfEES6_EES6_EENS_5DenseEEC2Ev)
                  0001a3c4    00000004     --HOLE-- [fill = 0]
                  0001a3c8    0000000c     PathGenerator.obj (.text:_ZN5Eigen17CwiseBinaryOpImplINS_8internal13scalar_sum_opIffEEKNS_6MatrixIfLi2ELi1ELi0ELi2ELi1EEES6_NS_5DenseEEC2Ev)
                  0001a3d4    00000004     --HOLE-- [fill = 0]
                  0001a3d8    0000000c     CarSim.obj (.text:_ZN5Eigen17CwiseBinaryOpImplINS_8internal13scalar_sum_opIffEEKNS_6MatrixIfLi3ELi1ELi0ELi3ELi1EEEKNS_13CwiseBinaryOpINS1_17scalar_product_opIffEEKNS_14CwiseNullaryOpINS1_18scalar_constant_opIfEES6_EEKNS7_IS3_KNS7_IS3_KNS7_IS3_KNS_5BlockINS4_IfLi3ELi4ELi0ELi3ELi4EEELi3ELi1ELb1EEEKNS7_IS9_SE_SI_EEEESK_EESI_EEEENS_5DenseEEC2Ev)
                  0001a3e4    00000004     --HOLE-- [fill = 0]
                  0001a3e8    0000000c     PathGenerator.obj (.text:_ZN5Eigen17CwiseBinaryOpImplINS_8internal17scalar_product_opIffEEKNS_14CwiseNullaryOpINS1_18scalar_constant_opIfEEKNS_6MatrixIfLi2ELi1ELi0ELi2ELi1EEEEEKNS_13CwiseBinaryOpINS1_20scalar_difference_opIffEES9_S9_EENS_5DenseEEC2Ev)
                  0001a3f4    00000004     --HOLE-- [fill = 0]
                  0001a3f8    0000000c     PathGenerator.obj (.text:_ZN5Eigen17CwiseBinaryOpImplINS_8internal17scalar_product_opIffEEKNS_14CwiseNullaryOpINS1_18scalar_constant_opIfEEKNS_6MatrixIfLi2ELi1ELi0ELi2ELi1EEEEES9_NS_5DenseEEC2Ev)
                  0001a404    00000004     --HOLE-- [fill = 0]
                  0001a408    0000000c     CarSim.obj (.text:_ZN5Eigen17CwiseBinaryOpImplINS_8internal17scalar_product_opIffEEKNS_14CwiseNullaryOpINS1_18scalar_constant_opIfEEKNS_6MatrixIfLi3ELi1ELi0ELi3ELi1EEEEEKNS_13CwiseBinaryOpINS1_13scalar_sum_opIffEEKNSC_ISE_KNSC_ISE_KNS_5BlockINS7_IfLi3ELi4ELi0ELi3ELi4EEELi3ELi1ELb1EEEKNSC_IS3_SB_SI_EEEESK_EESI_EENS_5DenseEEC2Ev)
                  0001a414    00000004     --HOLE-- [fill = 0]
                  0001a418    0000000c     CarSim.obj (.text:_ZN5Eigen17CwiseBinaryOpImplINS_8internal17scalar_product_opIffEEKNS_14CwiseNullaryOpINS1_18scalar_constant_opIfEEKNS_6MatrixIfLi3ELi1ELi0ELi3ELi1EEEEEKNS_5BlockINS7_IfLi3ELi4ELi0ELi3ELi4EEELi3ELi1ELb1EEENS_5DenseEEC2Ev)
                  0001a424    00000004     --HOLE-- [fill = 0]
                  0001a428    0000000c     PathTrackSim.obj (.text:_ZN5Eigen17CwiseBinaryOpImplINS_8internal17scalar_product_opIffEEKNS_14CwiseNullaryOpINS1_18scalar_constant_opIfEEKNS_6MatrixIfLi3ELi1ELi0ELi3ELi1EEEEES9_NS_5DenseEEC2Ev)
                  0001a434    00000004     --HOLE-- [fill = 0]
                  0001a438    0000000c     PathGenerator.obj (.text:_ZN5Eigen17CwiseBinaryOpImplINS_8internal20scalar_difference_opIffEEKNS_6MatrixIfLi2ELi1ELi0ELi2ELi1EEES6_NS_5DenseEEC2Ev)
                  0001a444    00000004     --HOLE-- [fill = 0]
                  0001a448    0000000c     PathGenerator.obj (.text:_ZN5Eigen17CwiseBinaryOpImplINS_8internal22scalar_conj_product_opIffEEKNS_6MatrixIfLi2ELi1ELi0ELi2ELi1EEES6_NS_5DenseEEC2Ev)
                  0001a454    00000004     --HOLE-- [fill = 0]
                  0001a458    0000000c     PathTrackSim.obj (.text:_ZN5Eigen17CwiseBinaryOpImplINS_8internal22scalar_conj_product_opIffEEKNS_6MatrixIfLi3ELi1ELi0ELi3ELi1EEES6_NS_5DenseEEC2Ev)
                  0001a464    00000004     --HOLE-- [fill = 0]
                  0001a468    0000000c     PathGenerator.obj (.text:_ZN5Eigen6numext4abs2IfEENS_8internal11abs2_retvalINS2_36global_math_functions_filtering_baseIT_vE4typeEE4typeERKS5_)
                  0001a474    00000004     --HOLE-- [fill = 0]
                  0001a478    0000000c     PathTrackSim.obj (.text:_ZN5Eigen6numext4conjIfEENS_8internal11conj_retvalINS2_36global_math_functions_filtering_baseIT_vE4typeEE4typeERKS5_)
                  0001a484    00000004     --HOLE-- [fill = 0]
                  0001a488    0000000c     PathGenerator.obj (.text:_ZN5Eigen6numext4realIfEENS_8internal11real_retvalINS2_36global_math_functions_filtering_baseIT_vE4typeEE4typeERKS5_)
                  0001a494    00000004     --HOLE-- [fill = 0]
                  0001a498    0000000c     PathGenerator.obj (.text:_ZN5Eigen8internal11blas_traitsINS_5BlockINS_6MatrixIfLi2ELi2ELi0ELi2ELi2EEELin1ELin1ELb0EEEE7extractERKS5_)
                  0001a4a4    00000004     --HOLE-- [fill = 0]
                  0001a4a8    0000000c     PathGenerator.obj (.text:_ZN5Eigen8internal11blas_traitsINS_6MatrixIfLi2ELi1ELi0ELi2ELi1EEEE7extractERKS3_)
                  0001a4b4    00000004     --HOLE-- [fill = 0]
                  0001a4b8    0000000c     Car.obj (.text:_ZN5Eigen8internal11noncopyableC1Ev)
                  0001a4c4    00000004     --HOLE-- [fill = 0]
                  0001a4c8    0000000c     Car.obj (.text:_ZN5Eigen8internal11noncopyableC2Ev)
                  0001a4d4    00000004     --HOLE-- [fill = 0]
                  0001a4d8    0000000c     Car.obj (.text:_ZN5Eigen8internal11noncopyableD1Ev)
                  0001a4e4    00000004     --HOLE-- [fill = 0]
                  0001a4e8    0000000c     Car.obj (.text:_ZN5Eigen8internal11noncopyableD2Ev)
                  0001a4f4    00000004     --HOLE-- [fill = 0]
                  0001a4f8    0000000c     CarSim.obj (.text:_ZN5Eigen8internal11plain_arrayIfLi12ELi0ELi0EEC1Ev)
                  0001a504    00000004     --HOLE-- [fill = 0]
                  0001a508    0000000c     Task.obj (.text:_ZN5Eigen8internal11plain_arrayIfLi2ELi0ELi0EEC1Ev)
                  0001a514    00000004     --HOLE-- [fill = 0]
                  0001a518    0000000c     Car.obj (.text:_ZN5Eigen8internal11plain_arrayIfLi3ELi0ELi0EEC1Ev)
                  0001a524    00000004     --HOLE-- [fill = 0]
                  0001a528    0000000c     PathGenerator.obj (.text:_ZN5Eigen8internal11plain_arrayIfLi4ELi0ELi0EEC1Ev)
                  0001a534    00000004     --HOLE-- [fill = 0]
                  0001a538    0000000c     PathTrackSim.obj (.text:_ZN5Eigen8internal12aligned_freeEPv)
                  0001a544    00000004     --HOLE-- [fill = 0]
                  0001a548    0000000c     PathGenerator.obj (.text:_ZN5Eigen8internal12extract_dataINS_5BlockINS_6MatrixIfLi2ELi2ELi0ELi2ELi2EEELin1ELin1ELb0EEEEEPKNT_6ScalarERKS6_)
                  0001a554    00000004     --HOLE-- [fill = 0]
                  0001a558    0000000c     PathGenerator.obj (.text:_ZN5Eigen8internal12extract_dataINS_9TransposeINS_6MatrixIfLi2ELi1ELi0ELi2ELi1EEEEEEEPKNT_6ScalarERKS6_)
                  0001a564    00000004     --HOLE-- [fill = 0]
                  0001a568    0000000c     PathGenerator.obj (.text:_ZN5Eigen8internal14evaluator_baseINS_12CwiseUnaryOpINS0_14scalar_abs2_opIfEEKNS_13CwiseBinaryOpINS0_20scalar_difference_opIffEEKNS_6MatrixIfLi2ELi1ELi0ELi2ELi1EEESA_EEEEEC2Ev)
                  0001a574    00000004     --HOLE-- [fill = 0]
                  0001a578    0000000c     PathGenerator.obj (.text:_ZN5Eigen8internal14evaluator_baseINS_12CwiseUnaryOpINS0_14scalar_abs2_opIfEEKNS_13CwiseBinaryOpINS0_20scalar_difference_opIffEEKNS_6MatrixIfLi2ELi1ELi0ELi2ELi1EEESA_EEEEED2Ev)
                  0001a584    00000004     --HOLE-- [fill = 0]
                  0001a588    0000000c     PathGenerator.obj (.text:_ZN5Eigen8internal14evaluator_baseINS_12CwiseUnaryOpINS0_14scalar_abs2_opIfEEKNS_6MatrixIfLi2ELi1ELi0ELi2ELi1EEEEEEC2Ev)
                  0001a594    00000004     --HOLE-- [fill = 0]
                  0001a598    0000000c     PathGenerator.obj (.text:_ZN5Eigen8internal14evaluator_baseINS_12CwiseUnaryOpINS0_14scalar_abs2_opIfEEKNS_6MatrixIfLi2ELi1ELi0ELi2ELi1EEEEEED2Ev)
                  0001a5a4    00000004     --HOLE-- [fill = 0]
                  0001a5a8    0000000c     PathTrackSim.obj (.text:_ZN5Eigen8internal14evaluator_baseINS_12CwiseUnaryOpINS0_14scalar_abs2_opIfEEKNS_6MatrixIfLi3ELi1ELi0ELi3ELi1EEEEEEC2Ev)
                  0001a5b4    00000004     --HOLE-- [fill = 0]
                  0001a5b8    0000000c     PathTrackSim.obj (.text:_ZN5Eigen8internal14evaluator_baseINS_12CwiseUnaryOpINS0_14scalar_abs2_opIfEEKNS_6MatrixIfLi3ELi1ELi0ELi3ELi1EEEEEED2Ev)
                  0001a5c4    00000004     --HOLE-- [fill = 0]
                  0001a5c8    0000000c     PathTrackSim.obj (.text:_ZN5Eigen8internal14evaluator_baseINS_12CwiseUnaryOpINS0_18scalar_opposite_opIfEEKNS_6MatrixIfLi2ELi1ELi0ELi2ELi1EEEEEEC2Ev)
                  0001a5d4    00000004     --HOLE-- [fill = 0]
                  0001a5d8    0000000c     PathTrackSim.obj (.text:_ZN5Eigen8internal14evaluator_baseINS_12CwiseUnaryOpINS0_18scalar_opposite_opIfEEKNS_6MatrixIfLi2ELi1ELi0ELi2ELi1EEEEEED2Ev)
                  0001a5e4    00000004     --HOLE-- [fill = 0]
                  0001a5e8    0000000c     PathTrackSim.obj (.text:_ZN5Eigen8internal14evaluator_baseINS_13CwiseBinaryOpINS0_13scalar_sum_opIffEEKNS2_INS0_17scalar_product_opIffEEKNS_14CwiseNullaryOpINS0_18scalar_constant_opIfEEKNS_6MatrixIfLi3ELi1ELi0ELi3ELi1EEEEESC_EESG_EEEC2Ev)
                  0001a5f4    00000004     --HOLE-- [fill = 0]
                  0001a5f8    0000000c     PathTrackSim.obj (.text:_ZN5Eigen8internal14evaluator_baseINS_13CwiseBinaryOpINS0_13scalar_sum_opIffEEKNS2_INS0_17scalar_product_opIffEEKNS_14CwiseNullaryOpINS0_18scalar_constant_opIfEEKNS_6MatrixIfLi3ELi1ELi0ELi3ELi1EEEEESC_EESG_EEED2Ev)
                  0001a604    00000004     --HOLE-- [fill = 0]
                  0001a608    0000000c     CarSim.obj (.text:_ZN5Eigen8internal14evaluator_baseINS_13CwiseBinaryOpINS0_13scalar_sum_opIffEEKNS2_IS4_KNS2_IS4_KNS_5BlockINS_6MatrixIfLi3ELi4ELi0ELi3ELi4EEELi3ELi1ELb1EEEKNS2_INS0_17scalar_product_opIffEEKNS_14CwiseNullaryOpINS0_18scalar_constant_opIfEEKNS6_IfLi3ELi1ELi0ELi3ELi1EEEEES9_EEEESK_EES9_EEEC2Ev)
                  0001a614    00000004     --HOLE-- [fill = 0]
                  0001a618    0000000c     CarSim.obj (.text:_ZN5Eigen8internal14evaluator_baseINS_13CwiseBinaryOpINS0_13scalar_sum_opIffEEKNS2_IS4_KNS2_IS4_KNS_5BlockINS_6MatrixIfLi3ELi4ELi0ELi3ELi4EEELi3ELi1ELb1EEEKNS2_INS0_17scalar_product_opIffEEKNS_14CwiseNullaryOpINS0_18scalar_constant_opIfEEKNS6_IfLi3ELi1ELi0ELi3ELi1EEEEES9_EEEESK_EES9_EEED2Ev)
                  0001a624    00000004     --HOLE-- [fill = 0]
                  0001a628    0000000c     CarSim.obj (.text:_ZN5Eigen8internal14evaluator_baseINS_13CwiseBinaryOpINS0_13scalar_sum_opIffEEKNS2_IS4_KNS_5BlockINS_6MatrixIfLi3ELi4ELi0ELi3ELi4EEELi3ELi1ELb1EEEKNS2_INS0_17scalar_product_opIffEEKNS_14CwiseNullaryOpINS0_18scalar_constant_opIfEEKNS6_IfLi3ELi1ELi0ELi3ELi1EEEEES9_EEEESK_EEEC2Ev)
                  0001a634    00000004     --HOLE-- [fill = 0]
                  0001a638    0000000c     CarSim.obj (.text:_ZN5Eigen8internal14evaluator_baseINS_13CwiseBinaryOpINS0_13scalar_sum_opIffEEKNS2_IS4_KNS_5BlockINS_6MatrixIfLi3ELi4ELi0ELi3ELi4EEELi3ELi1ELb1EEEKNS2_INS0_17scalar_product_opIffEEKNS_14CwiseNullaryOpINS0_18scalar_constant_opIfEEKNS6_IfLi3ELi1ELi0ELi3ELi1EEEEES9_EEEESK_EEED2Ev)
                  0001a644    00000004     --HOLE-- [fill = 0]
                  0001a648    0000000c     CarSim.obj (.text:_ZN5Eigen8internal14evaluator_baseINS_13CwiseBinaryOpINS0_13scalar_sum_opIffEEKNS_5BlockINS_6MatrixIfLi3ELi4ELi0ELi3ELi4EEELi3ELi1ELb1EEEKNS2_INS0_17scalar_product_opIffEEKNS_14CwiseNullaryOpINS0_18scalar_constant_opIfEEKNS6_IfLi3ELi1ELi0ELi3ELi1EEEEES9_EEEEEC2Ev)
                  0001a654    00000004     --HOLE-- [fill = 0]
                  0001a658    0000000c     CarSim.obj (.text:_ZN5Eigen8internal14evaluator_baseINS_13CwiseBinaryOpINS0_13scalar_sum_opIffEEKNS_5BlockINS_6MatrixIfLi3ELi4ELi0ELi3ELi4EEELi3ELi1ELb1EEEKNS2_INS0_17scalar_product_opIffEEKNS_14CwiseNullaryOpINS0_18scalar_constant_opIfEEKNS6_IfLi3ELi1ELi0ELi3ELi1EEEEES9_EEEEED2Ev)
                  0001a664    00000004     --HOLE-- [fill = 0]
                  0001a668    0000000c     PathGenerator.obj (.text:_ZN5Eigen8internal14evaluator_baseINS_13CwiseBinaryOpINS0_13scalar_sum_opIffEEKNS_6MatrixIfLi2ELi1ELi0ELi2ELi1EEEKNS2_INS0_17scalar_product_opIffEEKNS_14CwiseNullaryOpINS0_18scalar_constant_opIfEES7_EEKNS2_INS0_20scalar_difference_opIffEES7_S7_EEEEEEEC2Ev)
                  0001a674    00000004     --HOLE-- [fill = 0]
                  0001a678    0000000c     PathGenerator.obj (.text:_ZN5Eigen8internal14evaluator_baseINS_13CwiseBinaryOpINS0_13scalar_sum_opIffEEKNS_6MatrixIfLi2ELi1ELi0ELi2ELi1EEEKNS2_INS0_17scalar_product_opIffEEKNS_14CwiseNullaryOpINS0_18scalar_constant_opIfEES7_EEKNS2_INS0_20scalar_difference_opIffEES7_S7_EEEEEEED2Ev)
                  0001a684    00000004     --HOLE-- [fill = 0]
                  0001a688    0000000c     PathGenerator.obj (.text:_ZN5Eigen8internal14evaluator_baseINS_13CwiseBinaryOpINS0_13scalar_sum_opIffEEKNS_6MatrixIfLi2ELi1ELi0ELi2ELi1EEEKNS2_INS0_17scalar_product_opIffEEKNS_14CwiseNullaryOpINS0_18scalar_constant_opIfEES7_EES7_EEEEEC2Ev)
                  0001a694    00000004     --HOLE-- [fill = 0]
                  0001a698    0000000c     PathGenerator.obj (.text:_ZN5Eigen8internal14evaluator_baseINS_13CwiseBinaryOpINS0_13scalar_sum_opIffEEKNS_6MatrixIfLi2ELi1ELi0ELi2ELi1EEEKNS2_INS0_17scalar_product_opIffEEKNS_14CwiseNullaryOpINS0_18scalar_constant_opIfEES7_EES7_EEEEED2Ev)
                  0001a6a4    00000004     --HOLE-- [fill = 0]
                  0001a6a8    0000000c     PathGenerator.obj (.text:_ZN5Eigen8internal14evaluator_baseINS_13CwiseBinaryOpINS0_13scalar_sum_opIffEEKNS_6MatrixIfLi2ELi1ELi0ELi2ELi1EEES7_EEEC2Ev)
                  0001a6b4    00000004     --HOLE-- [fill = 0]
                  0001a6b8    0000000c     PathGenerator.obj (.text:_ZN5Eigen8internal14evaluator_baseINS_13CwiseBinaryOpINS0_13scalar_sum_opIffEEKNS_6MatrixIfLi2ELi1ELi0ELi2ELi1EEES7_EEED2Ev)
                  0001a6c4    00000004     --HOLE-- [fill = 0]
                  0001a6c8    0000000c     CarSim.obj (.text:_ZN5Eigen8internal14evaluator_baseINS_13CwiseBinaryOpINS0_13scalar_sum_opIffEEKNS_6MatrixIfLi3ELi1ELi0ELi3ELi1EEEKNS2_INS0_17scalar_product_opIffEEKNS_14CwiseNullaryOpINS0_18scalar_constant_opIfEES7_EEKNS2_IS4_KNS2_IS4_KNS2_IS4_KNS_5BlockINS5_IfLi3ELi4ELi0ELi3ELi4EEELi3ELi1ELb1EEEKNS2_IS9_SE_SI_EEEESK_EESI_EEEEEEEC2Ev)
                  0001a6d4    00000004     --HOLE-- [fill = 0]
                  0001a6d8    0000000c     CarSim.obj (.text:_ZN5Eigen8internal14evaluator_baseINS_13CwiseBinaryOpINS0_13scalar_sum_opIffEEKNS_6MatrixIfLi3ELi1ELi0ELi3ELi1EEEKNS2_INS0_17scalar_product_opIffEEKNS_14CwiseNullaryOpINS0_18scalar_constant_opIfEES7_EEKNS2_IS4_KNS2_IS4_KNS2_IS4_KNS_5BlockINS5_IfLi3ELi4ELi0ELi3ELi4EEELi3ELi1ELb1EEEKNS2_IS9_SE_SI_EEEESK_EESI_EEEEEEED2Ev)
                  0001a6e4    00000004     --HOLE-- [fill = 0]
                  0001a6e8    0000000c     PathGenerator.obj (.text:_ZN5Eigen8internal14evaluator_baseINS_13CwiseBinaryOpINS0_17scalar_product_opIffEEKNS_14CwiseNullaryOpINS0_18scalar_constant_opIfEEKNS_6MatrixIfLi2ELi1ELi0ELi2ELi1EEEEEKNS2_INS0_20scalar_difference_opIffEESA_SA_EEEEEC2Ev)
                  0001a6f4    00000004     --HOLE-- [fill = 0]
                  0001a6f8    0000000c     PathGenerator.obj (.text:_ZN5Eigen8internal14evaluator_baseINS_13CwiseBinaryOpINS0_17scalar_product_opIffEEKNS_14CwiseNullaryOpINS0_18scalar_constant_opIfEEKNS_6MatrixIfLi2ELi1ELi0ELi2ELi1EEEEEKNS2_INS0_20scalar_difference_opIffEESA_SA_EEEEED2Ev)
                  0001a704    00000004     --HOLE-- [fill = 0]
                  0001a708    0000000c     PathGenerator.obj (.text:_ZN5Eigen8internal14evaluator_baseINS_13CwiseBinaryOpINS0_17scalar_product_opIffEEKNS_14CwiseNullaryOpINS0_18scalar_constant_opIfEEKNS_6MatrixIfLi2ELi1ELi0ELi2ELi1EEEEESA_EEEC2Ev)
                  0001a714    00000004     --HOLE-- [fill = 0]
                  0001a718    0000000c     PathGenerator.obj (.text:_ZN5Eigen8internal14evaluator_baseINS_13CwiseBinaryOpINS0_17scalar_product_opIffEEKNS_14CwiseNullaryOpINS0_18scalar_constant_opIfEEKNS_6MatrixIfLi2ELi1ELi0ELi2ELi1EEEEESA_EEED2Ev)
                  0001a724    00000004     --HOLE-- [fill = 0]
                  0001a728    0000000c     CarSim.obj (.text:_ZN5Eigen8internal14evaluator_baseINS_13CwiseBinaryOpINS0_17scalar_product_opIffEEKNS_14CwiseNullaryOpINS0_18scalar_constant_opIfEEKNS_6MatrixIfLi3ELi1ELi0ELi3ELi1EEEEEKNS2_INS0_13scalar_sum_opIffEEKNS2_ISE_KNS2_ISE_KNS_5BlockINS8_IfLi3ELi4ELi0ELi3ELi4EEELi3ELi1ELb1EEEKNS2_IS4_SC_SI_EEEESK_EESI_EEEEEC2Ev)
                  0001a734    00000004     --HOLE-- [fill = 0]
                  0001a738    0000000c     CarSim.obj (.text:_ZN5Eigen8internal14evaluator_baseINS_13CwiseBinaryOpINS0_17scalar_product_opIffEEKNS_14CwiseNullaryOpINS0_18scalar_constant_opIfEEKNS_6MatrixIfLi3ELi1ELi0ELi3ELi1EEEEEKNS2_INS0_13scalar_sum_opIffEEKNS2_ISE_KNS2_ISE_KNS_5BlockINS8_IfLi3ELi4ELi0ELi3ELi4EEELi3ELi1ELb1EEEKNS2_IS4_SC_SI_EEEESK_EESI_EEEEED2Ev)
                  0001a744    00000004     --HOLE-- [fill = 0]
                  0001a748    0000000c     CarSim.obj (.text:_ZN5Eigen8internal14evaluator_baseINS_13CwiseBinaryOpINS0_17scalar_product_opIffEEKNS_14CwiseNullaryOpINS0_18scalar_constant_opIfEEKNS_6MatrixIfLi3ELi1ELi0ELi3ELi1EEEEEKNS_5BlockINS8_IfLi3ELi4ELi0ELi3ELi4EEELi3ELi1ELb1EEEEEEC2Ev)
                  0001a754    00000004     --HOLE-- [fill = 0]
                  0001a758    0000000c     CarSim.obj (.text:_ZN5Eigen8internal14evaluator_baseINS_13CwiseBinaryOpINS0_17scalar_product_opIffEEKNS_14CwiseNullaryOpINS0_18scalar_constant_opIfEEKNS_6MatrixIfLi3ELi1ELi0ELi3ELi1EEEEEKNS_5BlockINS8_IfLi3ELi4ELi0ELi3ELi4EEELi3ELi1ELb1EEEEEED2Ev)
                  0001a764    00000004     --HOLE-- [fill = 0]
                  0001a768    0000000c     PathTrackSim.obj (.text:_ZN5Eigen8internal14evaluator_baseINS_13CwiseBinaryOpINS0_17scalar_product_opIffEEKNS_14CwiseNullaryOpINS0_18scalar_constant_opIfEEKNS_6MatrixIfLi3ELi1ELi0ELi3ELi1EEEEESA_EEEC2Ev)
                  0001a774    00000004     --HOLE-- [fill = 0]
                  0001a778    0000000c     PathTrackSim.obj (.text:_ZN5Eigen8internal14evaluator_baseINS_13CwiseBinaryOpINS0_17scalar_product_opIffEEKNS_14CwiseNullaryOpINS0_18scalar_constant_opIfEEKNS_6MatrixIfLi3ELi1ELi0ELi3ELi1EEEEESA_EEED2Ev)
                  0001a784    00000004     --HOLE-- [fill = 0]
                  0001a788    0000000c     PathGenerator.obj (.text:_ZN5Eigen8internal14evaluator_baseINS_13CwiseBinaryOpINS0_20scalar_difference_opIffEEKNS_6MatrixIfLi2ELi1ELi0ELi2ELi1EEES7_EEEC2Ev)
                  0001a794    00000004     --HOLE-- [fill = 0]
                  0001a798    0000000c     PathGenerator.obj (.text:_ZN5Eigen8internal14evaluator_baseINS_13CwiseBinaryOpINS0_20scalar_difference_opIffEEKNS_6MatrixIfLi2ELi1ELi0ELi2ELi1EEES7_EEED2Ev)
                  0001a7a4    00000004     --HOLE-- [fill = 0]
                  0001a7a8    0000000c     PathGenerator.obj (.text:_ZN5Eigen8internal14evaluator_baseINS_13CwiseBinaryOpINS0_22scalar_conj_product_opIffEEKNS_6MatrixIfLi2ELi1ELi0ELi2ELi1EEES7_EEEC2Ev)
                  0001a7b4    00000004     --HOLE-- [fill = 0]
                  0001a7b8    0000000c     PathGenerator.obj (.text:_ZN5Eigen8internal14evaluator_baseINS_13CwiseBinaryOpINS0_22scalar_conj_product_opIffEEKNS_6MatrixIfLi2ELi1ELi0ELi2ELi1EEES7_EEED2Ev)
                  0001a7c4    00000004     --HOLE-- [fill = 0]
                  0001a7c8    0000000c     PathTrackSim.obj (.text:_ZN5Eigen8internal14evaluator_baseINS_13CwiseBinaryOpINS0_22scalar_conj_product_opIffEEKNS_6MatrixIfLi3ELi1ELi0ELi3ELi1EEES7_EEEC2Ev)
                  0001a7d4    00000004     --HOLE-- [fill = 0]
                  0001a7d8    0000000c     PathTrackSim.obj (.text:_ZN5Eigen8internal14evaluator_baseINS_13CwiseBinaryOpINS0_22scalar_conj_product_opIffEEKNS_6MatrixIfLi3ELi1ELi0ELi3ELi1EEES7_EEED2Ev)
                  0001a7e4    00000004     --HOLE-- [fill = 0]
                  0001a7e8    0000000c     PathGenerator.obj (.text:_ZN5Eigen8internal14evaluator_baseINS_14CwiseNullaryOpINS0_18scalar_constant_opIfEEKNS_6MatrixIfLi2ELi1ELi0ELi2ELi1EEEEEEC2Ev)
                  0001a7f4    00000004     --HOLE-- [fill = 0]
                  0001a7f8    0000000c     PathGenerator.obj (.text:_ZN5Eigen8internal14evaluator_baseINS_14CwiseNullaryOpINS0_18scalar_constant_opIfEEKNS_6MatrixIfLi2ELi1ELi0ELi2ELi1EEEEEED2Ev)
                  0001a804    00000004     --HOLE-- [fill = 0]
                  0001a808    0000000c     CarSim.obj (.text:_ZN5Eigen8internal14evaluator_baseINS_14CwiseNullaryOpINS0_18scalar_constant_opIfEEKNS_6MatrixIfLi3ELi1ELi0ELi3ELi1EEEEEEC2Ev)
                  0001a814    00000004     --HOLE-- [fill = 0]
                  0001a818    0000000c     CarSim.obj (.text:_ZN5Eigen8internal14evaluator_baseINS_14CwiseNullaryOpINS0_18scalar_constant_opIfEEKNS_6MatrixIfLi3ELi1ELi0ELi3ELi1EEEEEED2Ev)
                  0001a824    00000004     --HOLE-- [fill = 0]
                  0001a828    0000000c     PathGenerator.obj (.text:_ZN5Eigen8internal14evaluator_baseINS_14CwiseNullaryOpINS0_18scalar_constant_opIfEENS_6MatrixIfLi2ELi1ELi0ELi2ELi1EEEEEEC2Ev)
                  0001a834    00000004     --HOLE-- [fill = 0]
                  0001a838    0000000c     PathGenerator.obj (.text:_ZN5Eigen8internal14evaluator_baseINS_14CwiseNullaryOpINS0_18scalar_constant_opIfEENS_6MatrixIfLi2ELi1ELi0ELi2ELi1EEEEEED2Ev)
                  0001a844    00000004     --HOLE-- [fill = 0]
                  0001a848    0000000c     Car.obj (.text:_ZN5Eigen8internal14evaluator_baseINS_3MapIKNS_6MatrixIfLi3ELi1ELi0ELi3ELi1EEELi0ENS_6StrideILi0ELi0EEEEEEC2Ev)
                  0001a854    00000004     --HOLE-- [fill = 0]
                  0001a858    0000000c     Car.obj (.text:_ZN5Eigen8internal14evaluator_baseINS_3MapIKNS_6MatrixIfLi3ELi1ELi0ELi3ELi1EEELi0ENS_6StrideILi0ELi0EEEEEED2Ev)
                  0001a864    00000004     --HOLE-- [fill = 0]
                  0001a868    0000000c     PathGenerator.obj (.text:_ZN5Eigen8internal14evaluator_baseINS_5BlockINS_6MatrixIfLi2ELi2ELi0ELi2ELi2EEELin1ELin1ELb0EEEEC2Ev)
                  0001a874    00000004     --HOLE-- [fill = 0]
                  0001a878    0000000c     PathGenerator.obj (.text:_ZN5Eigen8internal14evaluator_baseINS_5BlockINS_6MatrixIfLi2ELi2ELi0ELi2ELi2EEELin1ELin1ELb0EEEED2Ev)
                  0001a884    00000004     --HOLE-- [fill = 0]
                  0001a888    0000000c     CarSim.obj (.text:_ZN5Eigen8internal14evaluator_baseINS_5BlockINS_6MatrixIfLi3ELi4ELi0ELi3ELi4EEELi3ELi1ELb1EEEEC2Ev)
                  0001a894    00000004     --HOLE-- [fill = 0]
                  0001a898    0000000c     CarSim.obj (.text:_ZN5Eigen8internal14evaluator_baseINS_5BlockINS_6MatrixIfLi3ELi4ELi0ELi3ELi4EEELi3ELi1ELb1EEEED2Ev)
                  0001a8a4    00000004     --HOLE-- [fill = 0]
                  0001a8a8    0000000c     PathGenerator.obj (.text:_ZN5Eigen8internal14evaluator_baseINS_6MatrixIfLi2ELi1ELi0ELi2ELi1EEEEC2Ev)
                  0001a8b4    00000004     --HOLE-- [fill = 0]
                  0001a8b8    0000000c     PathGenerator.obj (.text:_ZN5Eigen8internal14evaluator_baseINS_6MatrixIfLi2ELi1ELi0ELi2ELi1EEEED2Ev)
                  0001a8c4    00000004     --HOLE-- [fill = 0]
                  0001a8c8    0000000c     PathGenerator.obj (.text:_ZN5Eigen8internal14evaluator_baseINS_6MatrixIfLi2ELi2ELi0ELi2ELi2EEEEC2Ev)
                  0001a8d4    00000004     --HOLE-- [fill = 0]
                  0001a8d8    0000000c     PathGenerator.obj (.text:_ZN5Eigen8internal14evaluator_baseINS_6MatrixIfLi2ELi2ELi0ELi2ELi2EEEED2Ev)
                  0001a8e4    00000004     --HOLE-- [fill = 0]
                  0001a8e8    0000000c     Car.obj (.text:_ZN5Eigen8internal14evaluator_baseINS_6MatrixIfLi3ELi1ELi0ELi3ELi1EEEEC2Ev)
                  0001a8f4    00000004     --HOLE-- [fill = 0]
                  0001a8f8    0000000c     Car.obj (.text:_ZN5Eigen8internal14evaluator_baseINS_6MatrixIfLi3ELi1ELi0ELi3ELi1EEEED2Ev)
                  0001a904    00000004     --HOLE-- [fill = 0]
                  0001a908    0000000c     CarSim.obj (.text:_ZN5Eigen8internal14evaluator_baseINS_6MatrixIfLi3ELi4ELi0ELi3ELi4EEEEC2Ev)
                  0001a914    00000004     --HOLE-- [fill = 0]
                  0001a918    0000000c     CarSim.obj (.text:_ZN5Eigen8internal14evaluator_baseINS_6MatrixIfLi3ELi4ELi0ELi3ELi4EEEED2Ev)
                  0001a924    00000004     --HOLE-- [fill = 0]
                  0001a928    0000000c     PathGenerator.obj (.text:_ZN5Eigen8internal14evaluator_baseINS_9TransposeINS_6MatrixIfLi2ELi1ELi0ELi2ELi1EEEEEEC2Ev)
                  0001a934    00000004     --HOLE-- [fill = 0]
                  0001a938    0000000c     PathGenerator.obj (.text:_ZN5Eigen8internal14evaluator_baseINS_9TransposeINS_6MatrixIfLi2ELi1ELi0ELi2ELi1EEEEEED2Ev)
                  0001a944    00000004     --HOLE-- [fill = 0]
                  0001a948    0000000c     PathGenerator.obj (.text:_ZN5Eigen8internal15block_evaluatorINS_6MatrixIfLi2ELi2ELi0ELi2ELi2EEELin1ELin1ELb0ELb1EED2Ev)
                  0001a954    00000004     --HOLE-- [fill = 0]
                  0001a958    0000000c     CarSim.obj (.text:_ZN5Eigen8internal15block_evaluatorINS_6MatrixIfLi3ELi4ELi0ELi3ELi4EEELi3ELi1ELb1ELb1EED2Ev)
                  0001a964    00000004     --HOLE-- [fill = 0]
                  0001a968    0000000c     PathGenerator.obj (.text:_ZN5Eigen8internal15unary_evaluatorINS_12CwiseUnaryOpINS0_14scalar_abs2_opIfEEKNS_13CwiseBinaryOpINS0_20scalar_difference_opIffEEKNS_6MatrixIfLi2ELi1ELi0ELi2ELi1EEESA_EEEENS0_10IndexBasedEfED2Ev)
                  0001a974    00000004     --HOLE-- [fill = 0]
                  0001a978    0000000c     PathGenerator.obj (.text:_ZN5Eigen8internal15unary_evaluatorINS_12CwiseUnaryOpINS0_14scalar_abs2_opIfEEKNS_6MatrixIfLi2ELi1ELi0ELi2ELi1EEEEENS0_10IndexBasedEfED2Ev)
                  0001a984    00000004     --HOLE-- [fill = 0]
                  0001a988    0000000c     PathTrackSim.obj (.text:_ZN5Eigen8internal15unary_evaluatorINS_12CwiseUnaryOpINS0_14scalar_abs2_opIfEEKNS_6MatrixIfLi3ELi1ELi0ELi3ELi1EEEEENS0_10IndexBasedEfED2Ev)
                  0001a994    00000004     --HOLE-- [fill = 0]
                  0001a998    0000000c     PathTrackSim.obj (.text:_ZN5Eigen8internal15unary_evaluatorINS_12CwiseUnaryOpINS0_18scalar_opposite_opIfEEKNS_6MatrixIfLi2ELi1ELi0ELi2ELi1EEEEENS0_10IndexBasedEfED2Ev)
                  0001a9a4    00000004     --HOLE-- [fill = 0]
                  0001a9a8    0000000c     PathGenerator.obj (.text:_ZN5Eigen8internal15unary_evaluatorINS_9TransposeINS_6MatrixIfLi2ELi1ELi0ELi2ELi1EEEEENS0_10IndexBasedEfED2Ev)
                  0001a9b4    00000004     --HOLE-- [fill = 0]
                  0001a9b8    0000000c     PathTrackSim.obj (.text:_ZN5Eigen8internal16binary_evaluatorINS_13CwiseBinaryOpINS0_13scalar_sum_opIffEEKNS2_INS0_17scalar_product_opIffEEKNS_14CwiseNullaryOpINS0_18scalar_constant_opIfEEKNS_6MatrixIfLi3ELi1ELi0ELi3ELi1EEEEESC_EESG_EENS0_10IndexBasedESI_ffED2Ev)
                  0001a9c4    00000004     --HOLE-- [fill = 0]
                  0001a9c8    0000000c     CarSim.obj (.text:_ZN5Eigen8internal16binary_evaluatorINS_13CwiseBinaryOpINS0_13scalar_sum_opIffEEKNS2_IS4_KNS2_IS4_KNS_5BlockINS_6MatrixIfLi3ELi4ELi0ELi3ELi4EEELi3ELi1ELb1EEEKNS2_INS0_17scalar_product_opIffEEKNS_14CwiseNullaryOpINS0_18scalar_constant_opIfEEKNS6_IfLi3ELi1ELi0ELi3ELi1EEEEES9_EEEESK_EES9_EENS0_10IndexBasedESQ_ffED2Ev)
                  0001a9d4    00000004     --HOLE-- [fill = 0]
                  0001a9d8    0000000c     CarSim.obj (.text:_ZN5Eigen8internal16binary_evaluatorINS_13CwiseBinaryOpINS0_13scalar_sum_opIffEEKNS2_IS4_KNS_5BlockINS_6MatrixIfLi3ELi4ELi0ELi3ELi4EEELi3ELi1ELb1EEEKNS2_INS0_17scalar_product_opIffEEKNS_14CwiseNullaryOpINS0_18scalar_constant_opIfEEKNS6_IfLi3ELi1ELi0ELi3ELi1EEEEES9_EEEESK_EENS0_10IndexBasedESO_ffED2Ev)
                  0001a9e4    00000004     --HOLE-- [fill = 0]
                  0001a9e8    0000000c     CarSim.obj (.text:_ZN5Eigen8internal16binary_evaluatorINS_13CwiseBinaryOpINS0_13scalar_sum_opIffEEKNS_5BlockINS_6MatrixIfLi3ELi4ELi0ELi3ELi4EEELi3ELi1ELb1EEEKNS2_INS0_17scalar_product_opIffEEKNS_14CwiseNullaryOpINS0_18scalar_constant_opIfEEKNS6_IfLi3ELi1ELi0ELi3ELi1EEEEES9_EEEENS0_10IndexBasedESM_ffED2Ev)
                  0001a9f4    00000004     --HOLE-- [fill = 0]
                  0001a9f8    0000000c     PathGenerator.obj (.text:_ZN5Eigen8internal16binary_evaluatorINS_13CwiseBinaryOpINS0_13scalar_sum_opIffEEKNS_6MatrixIfLi2ELi1ELi0ELi2ELi1EEEKNS2_INS0_17scalar_product_opIffEEKNS_14CwiseNullaryOpINS0_18scalar_constant_opIfEES7_EEKNS2_INS0_20scalar_difference_opIffEES7_S7_EEEEEENS0_10IndexBasedESM_ffED2Ev)
                  0001aa04    00000004     --HOLE-- [fill = 0]
                  0001aa08    0000000c     PathGenerator.obj (.text:_ZN5Eigen8internal16binary_evaluatorINS_13CwiseBinaryOpINS0_13scalar_sum_opIffEEKNS_6MatrixIfLi2ELi1ELi0ELi2ELi1EEEKNS2_INS0_17scalar_product_opIffEEKNS_14CwiseNullaryOpINS0_18scalar_constant_opIfEES7_EES7_EEEENS0_10IndexBasedESI_ffED2Ev)
                  0001aa14    00000004     --HOLE-- [fill = 0]
                  0001aa18    0000000c     PathGenerator.obj (.text:_ZN5Eigen8internal16binary_evaluatorINS_13CwiseBinaryOpINS0_13scalar_sum_opIffEEKNS_6MatrixIfLi2ELi1ELi0ELi2ELi1EEES7_EENS0_10IndexBasedES9_ffED2Ev)
                  0001aa24    00000004     --HOLE-- [fill = 0]
                  0001aa28    0000000c     CarSim.obj (.text:_ZN5Eigen8internal16binary_evaluatorINS_13CwiseBinaryOpINS0_13scalar_sum_opIffEEKNS_6MatrixIfLi3ELi1ELi0ELi3ELi1EEEKNS2_INS0_17scalar_product_opIffEEKNS_14CwiseNullaryOpINS0_18scalar_constant_opIfEES7_EEKNS2_IS4_KNS2_IS4_KNS2_IS4_KNS_5BlockINS5_IfLi3ELi4ELi0ELi3ELi4EEELi3ELi1ELb1EEEKNS2_IS9_SE_SI_EEEESK_EESI_EEEEEENS0_10IndexBasedESU_ffED2Ev)
                  0001aa34    00000004     --HOLE-- [fill = 0]
                  0001aa38    0000000c     PathGenerator.obj (.text:_ZN5Eigen8internal16binary_evaluatorINS_13CwiseBinaryOpINS0_17scalar_product_opIffEEKNS_14CwiseNullaryOpINS0_18scalar_constant_opIfEEKNS_6MatrixIfLi2ELi1ELi0ELi2ELi1EEEEEKNS2_INS0_20scalar_difference_opIffEESA_SA_EEEENS0_10IndexBasedESI_ffED2Ev)
                  0001aa44    00000004     --HOLE-- [fill = 0]
                  0001aa48    0000000c     PathGenerator.obj (.text:_ZN5Eigen8internal16binary_evaluatorINS_13CwiseBinaryOpINS0_17scalar_product_opIffEEKNS_14CwiseNullaryOpINS0_18scalar_constant_opIfEEKNS_6MatrixIfLi2ELi1ELi0ELi2ELi1EEEEESA_EENS0_10IndexBasedESE_ffED2Ev)
                  0001aa54    00000004     --HOLE-- [fill = 0]
                  0001aa58    0000000c     CarSim.obj (.text:_ZN5Eigen8internal16binary_evaluatorINS_13CwiseBinaryOpINS0_17scalar_product_opIffEEKNS_14CwiseNullaryOpINS0_18scalar_constant_opIfEEKNS_6MatrixIfLi3ELi1ELi0ELi3ELi1EEEEEKNS2_INS0_13scalar_sum_opIffEEKNS2_ISE_KNS2_ISE_KNS_5BlockINS8_IfLi3ELi4ELi0ELi3ELi4EEELi3ELi1ELb1EEEKNS2_IS4_SC_SI_EEEESK_EESI_EEEENS0_10IndexBasedESS_ffED2Ev)
                  0001aa64    00000004     --HOLE-- [fill = 0]
                  0001aa68    0000000c     CarSim.obj (.text:_ZN5Eigen8internal16binary_evaluatorINS_13CwiseBinaryOpINS0_17scalar_product_opIffEEKNS_14CwiseNullaryOpINS0_18scalar_constant_opIfEEKNS_6MatrixIfLi3ELi1ELi0ELi3ELi1EEEEEKNS_5BlockINS8_IfLi3ELi4ELi0ELi3ELi4EEELi3ELi1ELb1EEEEENS0_10IndexBasedESI_ffED2Ev)
                  0001aa74    00000004     --HOLE-- [fill = 0]
                  0001aa78    0000000c     PathTrackSim.obj (.text:_ZN5Eigen8internal16binary_evaluatorINS_13CwiseBinaryOpINS0_17scalar_product_opIffEEKNS_14CwiseNullaryOpINS0_18scalar_constant_opIfEEKNS_6MatrixIfLi3ELi1ELi0ELi3ELi1EEEEESA_EENS0_10IndexBasedESE_ffED2Ev)
                  0001aa84    00000004     --HOLE-- [fill = 0]
                  0001aa88    0000000c     PathGenerator.obj (.text:_ZN5Eigen8internal16binary_evaluatorINS_13CwiseBinaryOpINS0_20scalar_difference_opIffEEKNS_6MatrixIfLi2ELi1ELi0ELi2ELi1EEES7_EENS0_10IndexBasedES9_ffED2Ev)
                  0001aa94    00000004     --HOLE-- [fill = 0]
                  0001aa98    0000000c     PathGenerator.obj (.text:_ZN5Eigen8internal16binary_evaluatorINS_13CwiseBinaryOpINS0_22scalar_conj_product_opIffEEKNS_6MatrixIfLi2ELi1ELi0ELi2ELi1EEES7_EENS0_10IndexBasedES9_ffED2Ev)
                  0001aaa4    00000004     --HOLE-- [fill = 0]
                  0001aaa8    0000000c     PathTrackSim.obj (.text:_ZN5Eigen8internal16binary_evaluatorINS_13CwiseBinaryOpINS0_22scalar_conj_product_opIffEEKNS_6MatrixIfLi3ELi1ELi0ELi3ELi1EEES7_EENS0_10IndexBasedES9_ffED2Ev)
                  0001aab4    00000004     --HOLE-- [fill = 0]
                  0001aab8    0000000c     Car.obj (.text:_ZN5Eigen8internal17mapbase_evaluatorINS_3MapIKNS_6MatrixIfLi3ELi1ELi0ELi3ELi1EEELi0ENS_6StrideILi0ELi0EEEEES5_ED2Ev)
                  0001aac4    00000004     --HOLE-- [fill = 0]
                  0001aac8    0000000c     PathGenerator.obj (.text:_ZN5Eigen8internal17mapbase_evaluatorINS_5BlockINS_6MatrixIfLi2ELi2ELi0ELi2ELi2EEELin1ELin1ELb0EEENS3_IfLin1ELin1ELi0ELi2ELi2EEEED2Ev)
                  0001aad4    00000004     --HOLE-- [fill = 0]
                  0001aad8    0000000c     CarSim.obj (.text:_ZN5Eigen8internal17mapbase_evaluatorINS_5BlockINS_6MatrixIfLi3ELi4ELi0ELi3ELi4EEELi3ELi1ELb1EEENS3_IfLi3ELi1ELi0ELi3ELi1EEEED2Ev)
                  0001aae4    00000004     --HOLE-- [fill = 0]
                  0001aae8    0000000c     CarSim.obj (.text:_ZN5Eigen8internal21dense_assignment_loopINS0_31generic_dense_assignment_kernelINS0_9evaluatorINS_5BlockINS_6MatrixIfLi3ELi4ELi0ELi3ELi4EEELi3ELi1ELb1EEEEENS3_INS5_IfLi3ELi1ELi0ELi3ELi1EEEEENS0_9assign_opIffEELi0EEELi1ELi2EE3runERSD_)
                  0001aaf4    00000004     --HOLE-- [fill = 0]
                  0001aaf8    0000000c     PathTrackSim.obj (.text:_ZN5Eigen8internal21dense_assignment_loopINS0_31generic_dense_assignment_kernelINS0_9evaluatorINS_6MatrixIfLi2ELi1ELi0ELi2ELi1EEEEENS3_INS_12CwiseUnaryOpINS0_18scalar_opposite_opIfEEKS5_EEEENS0_9assign_opIffEELi0EEELi1ELi2EE3runERSF_)
                  0001ab04    00000004     --HOLE-- [fill = 0]
                  0001ab08    0000000c     PathGenerator.obj (.text:_ZN5Eigen8internal21dense_assignment_loopINS0_31generic_dense_assignment_kernelINS0_9evaluatorINS_6MatrixIfLi2ELi1ELi0ELi2ELi1EEEEENS3_INS_13CwiseBinaryOpINS0_13scalar_sum_opIffEEKS5_KNS7_INS0_17scalar_product_opIffEEKNS_14CwiseNullaryOpINS0_18scalar_constant_opIfEESA_EEKNS7_INS0_20scalar_difference_opIffEESA_SA_EEEEEEEENS0_9assign_opIffEELi0EEELi1ELi2EE3runERSS_)
                  0001ab14    00000004     --HOLE-- [fill = 0]
                  0001ab18    0000000c     PathGenerator.obj (.text:_ZN5Eigen8internal21dense_assignment_loopINS0_31generic_dense_assignment_kernelINS0_9evaluatorINS_6MatrixIfLi2ELi1ELi0ELi2ELi1EEEEENS3_INS_13CwiseBinaryOpINS0_13scalar_sum_opIffEEKS5_KNS7_INS0_17scalar_product_opIffEEKNS_14CwiseNullaryOpINS0_18scalar_constant_opIfEESA_EESA_EEEEEENS0_9assign_opIffEELi0EEELi1ELi2EE3runERSO_)
                  0001ab24    00000004     --HOLE-- [fill = 0]
                  0001ab28    0000000c     PathGenerator.obj (.text:_ZN5Eigen8internal21dense_assignment_loopINS0_31generic_dense_assignment_kernelINS0_9evaluatorINS_6MatrixIfLi2ELi1ELi0ELi2ELi1EEEEENS3_INS_13CwiseBinaryOpINS0_13scalar_sum_opIffEEKS5_SA_EEEENS0_9assign_opIffEELi0EEELi1ELi2EE3runERSF_)
                  0001ab34    00000004     --HOLE-- [fill = 0]
                  0001ab38    0000000c     PathGenerator.obj (.text:_ZN5Eigen8internal21dense_assignment_loopINS0_31generic_dense_assignment_kernelINS0_9evaluatorINS_6MatrixIfLi2ELi1ELi0ELi2ELi1EEEEENS3_INS_13CwiseBinaryOpINS0_20scalar_difference_opIffEEKS5_SA_EEEENS0_9assign_opIffEELi0EEELi1ELi2EE3runERSF_)
                  0001ab44    00000004     --HOLE-- [fill = 0]
                  0001ab48    0000000c     PathGenerator.obj (.text:_ZN5Eigen8internal21dense_assignment_loopINS0_31generic_dense_assignment_kernelINS0_9evaluatorINS_6MatrixIfLi2ELi1ELi0ELi2ELi1EEEEENS3_INS_14CwiseNullaryOpINS0_18scalar_constant_opIfEES5_EEEENS0_13mul_assign_opIffEELi0EEELi1ELi2EE3runERSE_)
                  0001ab54    00000004     --HOLE-- [fill = 0]
                  0001ab58    0000000c     PathGenerator.obj (.text:_ZN5Eigen8internal21dense_assignment_loopINS0_31generic_dense_assignment_kernelINS0_9evaluatorINS_6MatrixIfLi2ELi1ELi0ELi2ELi1EEEEES6_NS0_14swap_assign_opIfEELi0EEELi1ELi2EE3runERS9_)
                  0001ab64    00000004     --HOLE-- [fill = 0]
                  0001ab68    0000000c     PathGenerator.obj (.text:_ZN5Eigen8internal21dense_assignment_loopINS0_31generic_dense_assignment_kernelINS0_9evaluatorINS_6MatrixIfLi2ELi2ELi0ELi2ELi2EEEEES6_NS0_9assign_opIffEELi0EEELi1ELi2EE3runERS9_)
                  0001ab74    00000004     --HOLE-- [fill = 0]
                  0001ab78    0000000c     PathTrackSim.obj (.text:_ZN5Eigen8internal21dense_assignment_loopINS0_31generic_dense_assignment_kernelINS0_9evaluatorINS_6MatrixIfLi3ELi1ELi0ELi3ELi1EEEEENS3_INS_13CwiseBinaryOpINS0_13scalar_sum_opIffEEKNS7_INS0_17scalar_product_opIffEEKNS_14CwiseNullaryOpINS0_18scalar_constant_opIfEEKS5_EESF_EESJ_EEEENS0_9assign_opIffEELi0EEELi1ELi2EE3runERSO_)
                  0001ab84    00000004     --HOLE-- [fill = 0]
                  0001ab88    0000000c     CarSim.obj (.text:_ZN5Eigen8internal21dense_assignment_loopINS0_31generic_dense_assignment_kernelINS0_9evaluatorINS_6MatrixIfLi3ELi1ELi0ELi3ELi1EEEEENS3_INS_13CwiseBinaryOpINS0_13scalar_sum_opIffEEKS5_KNS7_INS0_17scalar_product_opIffEEKNS_14CwiseNullaryOpINS0_18scalar_constant_opIfEESA_EEKNS7_IS9_KNS7_IS9_KNS7_IS9_KNS_5BlockINS4_IfLi3ELi4ELi0ELi3ELi4EEELi3ELi1ELb1EEEKNS7_ISC_SH_SL_EEEESN_EESL_EEEEEEEENS0_9assign_opIffEELi0EEELi1ELi2EE3runERS10_)
                  0001ab94    00000004     --HOLE-- [fill = 0]
                  0001ab98    0000000c     PathTrackSim.obj (.text:_ZN5Eigen8internal21dense_assignment_loopINS0_31generic_dense_assignment_kernelINS0_9evaluatorINS_6MatrixIfLi3ELi1ELi0ELi3ELi1EEEEENS3_INS_13CwiseBinaryOpINS0_17scalar_product_opIffEEKNS_14CwiseNullaryOpINS0_18scalar_constant_opIfEEKS5_EEKNS7_INS0_13scalar_sum_opIffEEKNS7_ISH_KNS7_ISH_KNS_5BlockINS4_IfLi3ELi4ELi0ELi3ELi4EEELi3ELi1ELb1EEEKNS7_IS9_SF_SL_EEEESN_EESL_EEEEEENS0_13add_assign_opIffEELi0EEELi1ELi2EE3runERSY_)
                  0001aba4    00000004     --HOLE-- [fill = 0]
                  0001aba8    0000000c     PathTrackSim.obj (.text:_ZN5Eigen8internal21dense_assignment_loopINS0_31generic_dense_assignment_kernelINS0_9evaluatorINS_6MatrixIfLi3ELi1ELi0ELi3ELi1EEEEENS3_INS_13CwiseBinaryOpINS0_17scalar_product_opIffEEKNS_14CwiseNullaryOpINS0_18scalar_constant_opIfEEKS5_EESD_EEEENS0_13add_assign_opIffEELi0EEELi1ELi2EE3runERSK_)
                  0001abb4    00000004     --HOLE-- [fill = 0]
                  0001abb8    0000000c     Car.obj (.text:_ZN5Eigen8internal21dense_assignment_loopINS0_31generic_dense_assignment_kernelINS0_9evaluatorINS_6MatrixIfLi3ELi1ELi0ELi3ELi1EEEEENS3_INS_3MapIKS5_Li0ENS_6StrideILi0ELi0EEEEEEENS0_9assign_opIffEELi0EEELi1ELi2EE3runERSF_)
                  0001abc4    00000004     --HOLE-- [fill = 0]
                  0001abc8    0000000c     Car.obj (.text:_ZN5Eigen8internal21dense_assignment_loopINS0_31generic_dense_assignment_kernelINS0_9evaluatorINS_6MatrixIfLi3ELi1ELi0ELi3ELi1EEEEES6_NS0_9assign_opIffEELi0EEELi1ELi2EE3runERS9_)
                  0001abd4    00000004     --HOLE-- [fill = 0]
                  0001abd8    0000000c     PathTrackSim.obj (.text:_ZN5Eigen8internal24conditional_aligned_freeILb1EEEvPv)
                  0001abe4    00000004     --HOLE-- [fill = 0]
                  0001abe8    0000000c     PathTrackSim.obj (.text:_ZN5Eigen8internal26conditional_aligned_mallocILb1EEEPvj)
                  0001abf4    00000004     --HOLE-- [fill = 0]
                  0001abf8    0000000c     PathGenerator.obj (.text:_ZN5Eigen8internal27checkTransposeAliasing_implINS_5BlockINS_6MatrixIfLi2ELi2ELi0ELi2ELi2EEELin1ELin1ELb0EEENS3_IfLi2ELi1ELi0ELi2ELi1EEELb0EE3runERKS5_RKS6_)
                  0001ac04    00000004     --HOLE-- [fill = 0]
                  0001ac08    0000000c     CarSim.obj (.text:_ZN5Eigen8internal27checkTransposeAliasing_implINS_5BlockINS_6MatrixIfLi3ELi4ELi0ELi3ELi4EEELi3ELi1ELb1EEENS3_IfLi3ELi1ELi0ELi3ELi1EEELb0EE3runERKS5_RKS6_)
                  0001ac14    00000004     --HOLE-- [fill = 0]
                  0001ac18    0000000c     PathTrackSim.obj (.text:_ZN5Eigen8internal27checkTransposeAliasing_implINS_6MatrixIfLi2ELi1ELi0ELi2ELi1EEENS_12CwiseUnaryOpINS0_18scalar_opposite_opIfEEKS3_EELb0EE3runERS7_RKS8_)
                  0001ac24    00000004     --HOLE-- [fill = 0]
                  0001ac28    0000000c     PathGenerator.obj (.text:_ZN5Eigen8internal27checkTransposeAliasing_implINS_6MatrixIfLi2ELi1ELi0ELi2ELi1EEENS_13CwiseBinaryOpINS0_13scalar_sum_opIffEEKS3_KNS4_INS0_17scalar_product_opIffEEKNS_14CwiseNullaryOpINS0_18scalar_constant_opIfEES7_EEKNS4_INS0_20scalar_difference_opIffEES7_S7_EEEEEELb0EE3runERS7_RKSL_)
                  0001ac34    00000004     --HOLE-- [fill = 0]
                  0001ac38    0000000c     PathGenerator.obj (.text:_ZN5Eigen8internal27checkTransposeAliasing_implINS_6MatrixIfLi2ELi1ELi0ELi2ELi1EEENS_13CwiseBinaryOpINS0_13scalar_sum_opIffEEKS3_KNS4_INS0_17scalar_product_opIffEEKNS_14CwiseNullaryOpINS0_18scalar_constant_opIfEES7_EES7_EEEELb0EE3runERS7_RKSH_)
                  0001ac44    00000004     --HOLE-- [fill = 0]
                  0001ac48    0000000c     PathGenerator.obj (.text:_ZN5Eigen8internal27checkTransposeAliasing_implINS_6MatrixIfLi2ELi1ELi0ELi2ELi1EEENS_13CwiseBinaryOpINS0_13scalar_sum_opIffEEKS3_S7_EELb0EE3runERS7_RKS8_)
                  0001ac54    00000004     --HOLE-- [fill = 0]
                  0001ac58    0000000c     PathGenerator.obj (.text:_ZN5Eigen8internal27checkTransposeAliasing_implINS_6MatrixIfLi2ELi1ELi0ELi2ELi1EEENS_13CwiseBinaryOpINS0_20scalar_difference_opIffEEKS3_S7_EELb0EE3runERS7_RKS8_)
                  0001ac64    00000004     --HOLE-- [fill = 0]
                  0001ac68    0000000c     PathGenerator.obj (.text:_ZN5Eigen8internal27checkTransposeAliasing_implINS_6MatrixIfLi2ELi1ELi0ELi2ELi1EEENS_14CwiseNullaryOpINS0_18scalar_constant_opIfEES3_EELb0EE3runERKS3_RKS7_)
                  0001ac74    00000004     --HOLE-- [fill = 0]
                  0001ac78    0000000c     PathGenerator.obj (.text:_ZN5Eigen8internal27checkTransposeAliasing_implINS_6MatrixIfLi2ELi1ELi0ELi2ELi1EEES3_Lb0EE3runERKS3_S6_)
                  0001ac84    00000004     --HOLE-- [fill = 0]
                  0001ac88    0000000c     PathGenerator.obj (.text:_ZN5Eigen8internal27checkTransposeAliasing_implINS_6MatrixIfLi2ELi2ELi0ELi2ELi2EEES3_Lb0EE3runERKS3_S6_)
                  0001ac94    00000004     --HOLE-- [fill = 0]
                  0001ac98    0000000c     PathTrackSim.obj (.text:_ZN5Eigen8internal27checkTransposeAliasing_implINS_6MatrixIfLi3ELi1ELi0ELi3ELi1EEENS_13CwiseBinaryOpINS0_13scalar_sum_opIffEEKNS4_INS0_17scalar_product_opIffEEKNS_14CwiseNullaryOpINS0_18scalar_constant_opIfEEKS3_EESC_EESG_EELb0EE3runERSC_RKSH_)
                  0001aca4    00000004     --HOLE-- [fill = 0]
                  0001aca8    0000000c     CarSim.obj (.text:_ZN5Eigen8internal27checkTransposeAliasing_implINS_6MatrixIfLi3ELi1ELi0ELi3ELi1EEENS_13CwiseBinaryOpINS0_13scalar_sum_opIffEEKS3_KNS4_INS0_17scalar_product_opIffEEKNS_14CwiseNullaryOpINS0_18scalar_constant_opIfEES7_EEKNS4_IS6_KNS4_IS6_KNS4_IS6_KNS_5BlockINS2_IfLi3ELi4ELi0ELi3ELi4EEELi3ELi1ELb1EEEKNS4_IS9_SE_SI_EEEESK_EESI_EEEEEELb0EE3runERS7_RKST_)
                  0001acb4    00000004     --HOLE-- [fill = 0]
                  0001acb8    0000000c     PathTrackSim.obj (.text:_ZN5Eigen8internal27checkTransposeAliasing_implINS_6MatrixIfLi3ELi1ELi0ELi3ELi1EEENS_13CwiseBinaryOpINS0_17scalar_product_opIffEEKNS_14CwiseNullaryOpINS0_18scalar_constant_opIfEEKS3_EEKNS4_INS0_13scalar_sum_opIffEEKNS4_ISE_KNS4_ISE_KNS_5BlockINS2_IfLi3ELi4ELi0ELi3ELi4EEELi3ELi1ELb1EEEKNS4_IS6_SC_SI_EEEESK_EESI_EEEELb0EE3runERSA_RKSR_)
                  0001acc4    00000004     --HOLE-- [fill = 0]
                  0001acc8    0000000c     PathTrackSim.obj (.text:_ZN5Eigen8internal27checkTransposeAliasing_implINS_6MatrixIfLi3ELi1ELi0ELi3ELi1EEENS_13CwiseBinaryOpINS0_17scalar_product_opIffEEKNS_14CwiseNullaryOpINS0_18scalar_constant_opIfEEKS3_EESA_EELb0EE3runERSA_RKSD_)
                  0001acd4    00000004     --HOLE-- [fill = 0]
                  0001acd8    0000000c     Car.obj (.text:_ZN5Eigen8internal27checkTransposeAliasing_implINS_6MatrixIfLi3ELi1ELi0ELi3ELi1EEENS_3MapIKS3_Li0ENS_6StrideILi0ELi0EEEEELb0EE3runERS5_RKS8_)
                  0001ace4    00000004     --HOLE-- [fill = 0]
                  0001ace8    0000000c     Car.obj (.text:_ZN5Eigen8internal27checkTransposeAliasing_implINS_6MatrixIfLi3ELi1ELi0ELi3ELi1EEES3_Lb0EE3runERKS3_S6_)
                  0001acf4    00000004     --HOLE-- [fill = 0]
                  0001acf8    0000000c     PathGenerator.obj (.text:_ZN5Eigen8internal28check_rows_cols_for_overflowILi2EE3runIiEEvT_S4_)
                  0001ad04    00000004     --HOLE-- [fill = 0]
                  0001ad08    0000000c     Car.obj (.text:_ZN5Eigen8internal28check_rows_cols_for_overflowILi3EE3runIiEEvT_S4_)
                  0001ad14    00000004     --HOLE-- [fill = 0]
                  0001ad18    0000000c     PathGenerator.obj (.text:_ZN5Eigen8internal28check_rows_cols_for_overflowILi4EE3runIiEEvT_S4_)
                  0001ad24    00000004     --HOLE-- [fill = 0]
                  0001ad28    0000000c     PathGenerator.obj (.text:_ZN5Eigen8internal9abs2_implIfE3runERKf)
                  0001ad34    00000004     --HOLE-- [fill = 0]
                  0001ad38    0000000c     CarSim.obj (.text:_ZN5Eigen8internal9evaluatorINS_13CwiseBinaryOpINS0_13scalar_sum_opIffEEKNS2_IS4_KNS2_IS4_KNS_5BlockINS_6MatrixIfLi3ELi4ELi0ELi3ELi4EEELi3ELi1ELb1EEEKNS2_INS0_17scalar_product_opIffEEKNS_14CwiseNullaryOpINS0_18scalar_constant_opIfEEKNS6_IfLi3ELi1ELi0ELi3ELi1EEEEES9_EEEESK_EES9_EEED2Ev)
                  0001ad44    00000004     --HOLE-- [fill = 0]
                  0001ad48    0000000c     CarSim.obj (.text:_ZN5Eigen8internal9evaluatorINS_13CwiseBinaryOpINS0_13scalar_sum_opIffEEKNS2_IS4_KNS_5BlockINS_6MatrixIfLi3ELi4ELi0ELi3ELi4EEELi3ELi1ELb1EEEKNS2_INS0_17scalar_product_opIffEEKNS_14CwiseNullaryOpINS0_18scalar_constant_opIfEEKNS6_IfLi3ELi1ELi0ELi3ELi1EEEEES9_EEEESK_EEED2Ev)
                  0001ad54    00000004     --HOLE-- [fill = 0]
                  0001ad58    0000000c     CarSim.obj (.text:_ZN5Eigen8internal9evaluatorINS_13CwiseBinaryOpINS0_13scalar_sum_opIffEEKNS_5BlockINS_6MatrixIfLi3ELi4ELi0ELi3ELi4EEELi3ELi1ELb1EEEKNS2_INS0_17scalar_product_opIffEEKNS_14CwiseNullaryOpINS0_18scalar_constant_opIfEEKNS6_IfLi3ELi1ELi0ELi3ELi1EEEEES9_EEEEED2Ev)
                  0001ad64    00000004     --HOLE-- [fill = 0]
                  0001ad68    0000000c     PathGenerator.obj (.text:_ZN5Eigen8internal9evaluatorINS_13CwiseBinaryOpINS0_17scalar_product_opIffEEKNS_14CwiseNullaryOpINS0_18scalar_constant_opIfEEKNS_6MatrixIfLi2ELi1ELi0ELi2ELi1EEEEEKNS2_INS0_20scalar_difference_opIffEESA_SA_EEEEED2Ev)
                  0001ad74    00000004     --HOLE-- [fill = 0]
                  0001ad78    0000000c     PathGenerator.obj (.text:_ZN5Eigen8internal9evaluatorINS_13CwiseBinaryOpINS0_17scalar_product_opIffEEKNS_14CwiseNullaryOpINS0_18scalar_constant_opIfEEKNS_6MatrixIfLi2ELi1ELi0ELi2ELi1EEEEESA_EEED2Ev)
                  0001ad84    00000004     --HOLE-- [fill = 0]
                  0001ad88    0000000c     CarSim.obj (.text:_ZN5Eigen8internal9evaluatorINS_13CwiseBinaryOpINS0_17scalar_product_opIffEEKNS_14CwiseNullaryOpINS0_18scalar_constant_opIfEEKNS_6MatrixIfLi3ELi1ELi0ELi3ELi1EEEEEKNS2_INS0_13scalar_sum_opIffEEKNS2_ISE_KNS2_ISE_KNS_5BlockINS8_IfLi3ELi4ELi0ELi3ELi4EEELi3ELi1ELb1EEEKNS2_IS4_SC_SI_EEEESK_EESI_EEEEED2Ev)
                  0001ad94    00000004     --HOLE-- [fill = 0]
                  0001ad98    0000000c     CarSim.obj (.text:_ZN5Eigen8internal9evaluatorINS_13CwiseBinaryOpINS0_17scalar_product_opIffEEKNS_14CwiseNullaryOpINS0_18scalar_constant_opIfEEKNS_6MatrixIfLi3ELi1ELi0ELi3ELi1EEEEEKNS_5BlockINS8_IfLi3ELi4ELi0ELi3ELi4EEELi3ELi1ELb1EEEEEED2Ev)
                  0001ada4    00000004     --HOLE-- [fill = 0]
                  0001ada8    0000000c     PathTrackSim.obj (.text:_ZN5Eigen8internal9evaluatorINS_13CwiseBinaryOpINS0_17scalar_product_opIffEEKNS_14CwiseNullaryOpINS0_18scalar_constant_opIfEEKNS_6MatrixIfLi3ELi1ELi0ELi3ELi1EEEEESA_EEED2Ev)
                  0001adb4    00000004     --HOLE-- [fill = 0]
                  0001adb8    0000000c     PathGenerator.obj (.text:_ZN5Eigen8internal9evaluatorINS_13CwiseBinaryOpINS0_20scalar_difference_opIffEEKNS_6MatrixIfLi2ELi1ELi0ELi2ELi1EEES7_EEED2Ev)
                  0001adc4    00000004     --HOLE-- [fill = 0]
                  0001adc8    0000000c     PathGenerator.obj (.text:_ZN5Eigen8internal9evaluatorINS_14CwiseNullaryOpINS0_18scalar_constant_opIfEEKNS_6MatrixIfLi2ELi1ELi0ELi2ELi1EEEEEED2Ev)
                  0001add4    00000004     --HOLE-- [fill = 0]
                  0001add8    0000000c     CarSim.obj (.text:_ZN5Eigen8internal9evaluatorINS_14CwiseNullaryOpINS0_18scalar_constant_opIfEEKNS_6MatrixIfLi3ELi1ELi0ELi3ELi1EEEEEED2Ev)
                  0001ade4    00000004     --HOLE-- [fill = 0]
                  0001ade8    0000000c     PathGenerator.obj (.text:_ZN5Eigen8internal9evaluatorINS_15PlainObjectBaseINS_6MatrixIfLi2ELi1ELi0ELi2ELi1EEEEEED2Ev)
                  0001adf4    00000004     --HOLE-- [fill = 0]
                  0001adf8    0000000c     PathGenerator.obj (.text:_ZN5Eigen8internal9evaluatorINS_15PlainObjectBaseINS_6MatrixIfLi2ELi2ELi0ELi2ELi2EEEEEED2Ev)
                  0001ae04    00000004     --HOLE-- [fill = 0]
                  0001ae08    0000000c     Car.obj (.text:_ZN5Eigen8internal9evaluatorINS_15PlainObjectBaseINS_6MatrixIfLi3ELi1ELi0ELi3ELi1EEEEEED2Ev)
                  0001ae14    00000004     --HOLE-- [fill = 0]
                  0001ae18    0000000c     CarSim.obj (.text:_ZN5Eigen8internal9evaluatorINS_15PlainObjectBaseINS_6MatrixIfLi3ELi4ELi0ELi3ELi4EEEEEED2Ev)
                  0001ae24    00000004     --HOLE-- [fill = 0]
                  0001ae28    0000000c     CarSim.obj (.text:_ZN5Eigen8internal9evaluatorINS_5BlockINS_6MatrixIfLi3ELi4ELi0ELi3ELi4EEELi3ELi1ELb1EEEED2Ev)
                  0001ae34    00000004     --HOLE-- [fill = 0]
                  0001ae38    0000000c     PathGenerator.obj (.text:_ZN5Eigen8internal9evaluatorINS_6MatrixIfLi2ELi1ELi0ELi2ELi1EEEED2Ev)
                  0001ae44    00000004     --HOLE-- [fill = 0]
                  0001ae48    0000000c     Car.obj (.text:_ZN5Eigen8internal9evaluatorINS_6MatrixIfLi3ELi1ELi0ELi3ELi1EEEED2Ev)
                  0001ae54    00000004     --HOLE-- [fill = 0]
                  0001ae58    0000000c     PathGenerator.obj (.text:_ZN5Eigen9DenseBaseINS_12CwiseUnaryOpINS_8internal14scalar_abs2_opIfEEKNS_13CwiseBinaryOpINS2_20scalar_difference_opIffEEKNS_6MatrixIfLi2ELi1ELi0ELi2ELi1EEESA_EEEEEC1Ev)
                  0001ae64    00000004     --HOLE-- [fill = 0]
                  0001ae68    0000000c     PathGenerator.obj (.text:_ZN5Eigen9DenseBaseINS_12CwiseUnaryOpINS_8internal14scalar_abs2_opIfEEKNS_13CwiseBinaryOpINS2_20scalar_difference_opIffEEKNS_6MatrixIfLi2ELi1ELi0ELi2ELi1EEESA_EEEEEC2Ev)
                  0001ae74    00000004     --HOLE-- [fill = 0]
                  0001ae78    0000000c     PathGenerator.obj (.text:_ZN5Eigen9DenseBaseINS_12CwiseUnaryOpINS_8internal14scalar_abs2_opIfEEKNS_6MatrixIfLi2ELi1ELi0ELi2ELi1EEEEEEC1Ev)
                  0001ae84    00000004     --HOLE-- [fill = 0]
                  0001ae88    0000000c     PathGenerator.obj (.text:_ZN5Eigen9DenseBaseINS_12CwiseUnaryOpINS_8internal14scalar_abs2_opIfEEKNS_6MatrixIfLi2ELi1ELi0ELi2ELi1EEEEEEC2Ev)
                  0001ae94    00000004     --HOLE-- [fill = 0]
                  0001ae98    0000000c     PathTrackSim.obj (.text:_ZN5Eigen9DenseBaseINS_12CwiseUnaryOpINS_8internal14scalar_abs2_opIfEEKNS_6MatrixIfLi3ELi1ELi0ELi3ELi1EEEEEEC1Ev)
                  0001aea4    00000004     --HOLE-- [fill = 0]
                  0001aea8    0000000c     PathTrackSim.obj (.text:_ZN5Eigen9DenseBaseINS_12CwiseUnaryOpINS_8internal14scalar_abs2_opIfEEKNS_6MatrixIfLi3ELi1ELi0ELi3ELi1EEEEEEC2Ev)
                  0001aeb4    00000004     --HOLE-- [fill = 0]
                  0001aeb8    0000000c     PathTrackSim.obj (.text:_ZN5Eigen9DenseBaseINS_12CwiseUnaryOpINS_8internal18scalar_opposite_opIfEEKNS_6MatrixIfLi2ELi1ELi0ELi2ELi1EEEEEEC1Ev)
                  0001aec4    00000004     --HOLE-- [fill = 0]
                  0001aec8    0000000c     PathTrackSim.obj (.text:_ZN5Eigen9DenseBaseINS_12CwiseUnaryOpINS_8internal18scalar_opposite_opIfEEKNS_6MatrixIfLi2ELi1ELi0ELi2ELi1EEEEEEC2Ev)
                  0001aed4    00000004     --HOLE-- [fill = 0]
                  0001aed8    0000000c     PathTrackSim.obj (.text:_ZN5Eigen9DenseBaseINS_13CwiseBinaryOpINS_8internal13scalar_sum_opIffEEKNS1_INS2_17scalar_product_opIffEEKNS_14CwiseNullaryOpINS2_18scalar_constant_opIfEEKNS_6MatrixIfLi3ELi1ELi0ELi3ELi1EEEEESC_EESG_EEEC1Ev)
                  0001aee4    00000004     --HOLE-- [fill = 0]
                  0001aee8    0000000c     PathTrackSim.obj (.text:_ZN5Eigen9DenseBaseINS_13CwiseBinaryOpINS_8internal13scalar_sum_opIffEEKNS1_INS2_17scalar_product_opIffEEKNS_14CwiseNullaryOpINS2_18scalar_constant_opIfEEKNS_6MatrixIfLi3ELi1ELi0ELi3ELi1EEEEESC_EESG_EEEC2Ev)
                  0001aef4    00000004     --HOLE-- [fill = 0]
                  0001aef8    0000000c     CarSim.obj (.text:_ZN5Eigen9DenseBaseINS_13CwiseBinaryOpINS_8internal13scalar_sum_opIffEEKNS1_IS4_KNS1_IS4_KNS_5BlockINS_6MatrixIfLi3ELi4ELi0ELi3ELi4EEELi3ELi1ELb1EEEKNS1_INS2_17scalar_product_opIffEEKNS_14CwiseNullaryOpINS2_18scalar_constant_opIfEEKNS6_IfLi3ELi1ELi0ELi3ELi1EEEEES9_EEEESK_EES9_EEEC1Ev)
                  0001af04    00000004     --HOLE-- [fill = 0]
                  0001af08    0000000c     CarSim.obj (.text:_ZN5Eigen9DenseBaseINS_13CwiseBinaryOpINS_8internal13scalar_sum_opIffEEKNS1_IS4_KNS1_IS4_KNS_5BlockINS_6MatrixIfLi3ELi4ELi0ELi3ELi4EEELi3ELi1ELb1EEEKNS1_INS2_17scalar_product_opIffEEKNS_14CwiseNullaryOpINS2_18scalar_constant_opIfEEKNS6_IfLi3ELi1ELi0ELi3ELi1EEEEES9_EEEESK_EES9_EEEC2Ev)
                  0001af14    00000004     --HOLE-- [fill = 0]
                  0001af18    0000000c     CarSim.obj (.text:_ZN5Eigen9DenseBaseINS_13CwiseBinaryOpINS_8internal13scalar_sum_opIffEEKNS1_IS4_KNS_5BlockINS_6MatrixIfLi3ELi4ELi0ELi3ELi4EEELi3ELi1ELb1EEEKNS1_INS2_17scalar_product_opIffEEKNS_14CwiseNullaryOpINS2_18scalar_constant_opIfEEKNS6_IfLi3ELi1ELi0ELi3ELi1EEEEES9_EEEESK_EEEC1Ev)
                  0001af24    00000004     --HOLE-- [fill = 0]
                  0001af28    0000000c     CarSim.obj (.text:_ZN5Eigen9DenseBaseINS_13CwiseBinaryOpINS_8internal13scalar_sum_opIffEEKNS1_IS4_KNS_5BlockINS_6MatrixIfLi3ELi4ELi0ELi3ELi4EEELi3ELi1ELb1EEEKNS1_INS2_17scalar_product_opIffEEKNS_14CwiseNullaryOpINS2_18scalar_constant_opIfEEKNS6_IfLi3ELi1ELi0ELi3ELi1EEEEES9_EEEESK_EEEC2Ev)
                  0001af34    00000004     --HOLE-- [fill = 0]
                  0001af38    0000000c     CarSim.obj (.text:_ZN5Eigen9DenseBaseINS_13CwiseBinaryOpINS_8internal13scalar_sum_opIffEEKNS_5BlockINS_6MatrixIfLi3ELi4ELi0ELi3ELi4EEELi3ELi1ELb1EEEKNS1_INS2_17scalar_product_opIffEEKNS_14CwiseNullaryOpINS2_18scalar_constant_opIfEEKNS6_IfLi3ELi1ELi0ELi3ELi1EEEEES9_EEEEEC1Ev)
                  0001af44    00000004     --HOLE-- [fill = 0]
                  0001af48    0000000c     CarSim.obj (.text:_ZN5Eigen9DenseBaseINS_13CwiseBinaryOpINS_8internal13scalar_sum_opIffEEKNS_5BlockINS_6MatrixIfLi3ELi4ELi0ELi3ELi4EEELi3ELi1ELb1EEEKNS1_INS2_17scalar_product_opIffEEKNS_14CwiseNullaryOpINS2_18scalar_constant_opIfEEKNS6_IfLi3ELi1ELi0ELi3ELi1EEEEES9_EEEEEC2Ev)
                  0001af54    00000004     --HOLE-- [fill = 0]
                  0001af58    0000000c     PathGenerator.obj (.text:_ZN5Eigen9DenseBaseINS_13CwiseBinaryOpINS_8internal13scalar_sum_opIffEEKNS_6MatrixIfLi2ELi1ELi0ELi2ELi1EEEKNS1_INS2_17scalar_product_opIffEEKNS_14CwiseNullaryOpINS2_18scalar_constant_opIfEES7_EEKNS1_INS2_20scalar_difference_opIffEES7_S7_EEEEEEEC1Ev)
                  0001af64    00000004     --HOLE-- [fill = 0]
                  0001af68    0000000c     PathGenerator.obj (.text:_ZN5Eigen9DenseBaseINS_13CwiseBinaryOpINS_8internal13scalar_sum_opIffEEKNS_6MatrixIfLi2ELi1ELi0ELi2ELi1EEEKNS1_INS2_17scalar_product_opIffEEKNS_14CwiseNullaryOpINS2_18scalar_constant_opIfEES7_EEKNS1_INS2_20scalar_difference_opIffEES7_S7_EEEEEEEC2Ev)
                  0001af74    00000004     --HOLE-- [fill = 0]
                  0001af78    0000000c     PathGenerator.obj (.text:_ZN5Eigen9DenseBaseINS_13CwiseBinaryOpINS_8internal13scalar_sum_opIffEEKNS_6MatrixIfLi2ELi1ELi0ELi2ELi1EEEKNS1_INS2_17scalar_product_opIffEEKNS_14CwiseNullaryOpINS2_18scalar_constant_opIfEES7_EES7_EEEEEC1Ev)
                  0001af84    00000004     --HOLE-- [fill = 0]
                  0001af88    0000000c     PathGenerator.obj (.text:_ZN5Eigen9DenseBaseINS_13CwiseBinaryOpINS_8internal13scalar_sum_opIffEEKNS_6MatrixIfLi2ELi1ELi0ELi2ELi1EEEKNS1_INS2_17scalar_product_opIffEEKNS_14CwiseNullaryOpINS2_18scalar_constant_opIfEES7_EES7_EEEEEC2Ev)
                  0001af94    00000004     --HOLE-- [fill = 0]
                  0001af98    0000000c     PathGenerator.obj (.text:_ZN5Eigen9DenseBaseINS_13CwiseBinaryOpINS_8internal13scalar_sum_opIffEEKNS_6MatrixIfLi2ELi1ELi0ELi2ELi1EEES7_EEEC1Ev)
                  0001afa4    00000004     --HOLE-- [fill = 0]
                  0001afa8    0000000c     PathGenerator.obj (.text:_ZN5Eigen9DenseBaseINS_13CwiseBinaryOpINS_8internal13scalar_sum_opIffEEKNS_6MatrixIfLi2ELi1ELi0ELi2ELi1EEES7_EEEC2Ev)
                  0001afb4    00000004     --HOLE-- [fill = 0]
                  0001afb8    0000000c     CarSim.obj (.text:_ZN5Eigen9DenseBaseINS_13CwiseBinaryOpINS_8internal13scalar_sum_opIffEEKNS_6MatrixIfLi3ELi1ELi0ELi3ELi1EEEKNS1_INS2_17scalar_product_opIffEEKNS_14CwiseNullaryOpINS2_18scalar_constant_opIfEES7_EEKNS1_IS4_KNS1_IS4_KNS1_IS4_KNS_5BlockINS5_IfLi3ELi4ELi0ELi3ELi4EEELi3ELi1ELb1EEEKNS1_IS9_SE_SI_EEEESK_EESI_EEEEEEEC1Ev)
                  0001afc4    00000004     --HOLE-- [fill = 0]
                  0001afc8    0000000c     CarSim.obj (.text:_ZN5Eigen9DenseBaseINS_13CwiseBinaryOpINS_8internal13scalar_sum_opIffEEKNS_6MatrixIfLi3ELi1ELi0ELi3ELi1EEEKNS1_INS2_17scalar_product_opIffEEKNS_14CwiseNullaryOpINS2_18scalar_constant_opIfEES7_EEKNS1_IS4_KNS1_IS4_KNS1_IS4_KNS_5BlockINS5_IfLi3ELi4ELi0ELi3ELi4EEELi3ELi1ELb1EEEKNS1_IS9_SE_SI_EEEESK_EESI_EEEEEEEC2Ev)
                  0001afd4    00000004     --HOLE-- [fill = 0]
                  0001afd8    0000000c     PathGenerator.obj (.text:_ZN5Eigen9DenseBaseINS_13CwiseBinaryOpINS_8internal17scalar_product_opIffEEKNS_14CwiseNullaryOpINS2_18scalar_constant_opIfEEKNS_6MatrixIfLi2ELi1ELi0ELi2ELi1EEEEEKNS1_INS2_20scalar_difference_opIffEESA_SA_EEEEEC1Ev)
                  0001afe4    00000004     --HOLE-- [fill = 0]
                  0001afe8    0000000c     PathGenerator.obj (.text:_ZN5Eigen9DenseBaseINS_13CwiseBinaryOpINS_8internal17scalar_product_opIffEEKNS_14CwiseNullaryOpINS2_18scalar_constant_opIfEEKNS_6MatrixIfLi2ELi1ELi0ELi2ELi1EEEEEKNS1_INS2_20scalar_difference_opIffEESA_SA_EEEEEC2Ev)
                  0001aff4    00000004     --HOLE-- [fill = 0]
                  0001aff8    0000000c     PathGenerator.obj (.text:_ZN5Eigen9DenseBaseINS_13CwiseBinaryOpINS_8internal17scalar_product_opIffEEKNS_14CwiseNullaryOpINS2_18scalar_constant_opIfEEKNS_6MatrixIfLi2ELi1ELi0ELi2ELi1EEEEESA_EEEC1Ev)
                  0001b004    00000004     --HOLE-- [fill = 0]
                  0001b008    0000000c     PathGenerator.obj (.text:_ZN5Eigen9DenseBaseINS_13CwiseBinaryOpINS_8internal17scalar_product_opIffEEKNS_14CwiseNullaryOpINS2_18scalar_constant_opIfEEKNS_6MatrixIfLi2ELi1ELi0ELi2ELi1EEEEESA_EEEC2Ev)
                  0001b014    00000004     --HOLE-- [fill = 0]
                  0001b018    0000000c     CarSim.obj (.text:_ZN5Eigen9DenseBaseINS_13CwiseBinaryOpINS_8internal17scalar_product_opIffEEKNS_14CwiseNullaryOpINS2_18scalar_constant_opIfEEKNS_6MatrixIfLi3ELi1ELi0ELi3ELi1EEEEEKNS1_INS2_13scalar_sum_opIffEEKNS1_ISE_KNS1_ISE_KNS_5BlockINS8_IfLi3ELi4ELi0ELi3ELi4EEELi3ELi1ELb1EEEKNS1_IS4_SC_SI_EEEESK_EESI_EEEEEC1Ev)
                  0001b024    00000004     --HOLE-- [fill = 0]
                  0001b028    0000000c     CarSim.obj (.text:_ZN5Eigen9DenseBaseINS_13CwiseBinaryOpINS_8internal17scalar_product_opIffEEKNS_14CwiseNullaryOpINS2_18scalar_constant_opIfEEKNS_6MatrixIfLi3ELi1ELi0ELi3ELi1EEEEEKNS1_INS2_13scalar_sum_opIffEEKNS1_ISE_KNS1_ISE_KNS_5BlockINS8_IfLi3ELi4ELi0ELi3ELi4EEELi3ELi1ELb1EEEKNS1_IS4_SC_SI_EEEESK_EESI_EEEEEC2Ev)
                  0001b034    00000004     --HOLE-- [fill = 0]
                  0001b038    0000000c     CarSim.obj (.text:_ZN5Eigen9DenseBaseINS_13CwiseBinaryOpINS_8internal17scalar_product_opIffEEKNS_14CwiseNullaryOpINS2_18scalar_constant_opIfEEKNS_6MatrixIfLi3ELi1ELi0ELi3ELi1EEEEEKNS_5BlockINS8_IfLi3ELi4ELi0ELi3ELi4EEELi3ELi1ELb1EEEEEEC1Ev)
                  0001b044    00000004     --HOLE-- [fill = 0]
                  0001b048    0000000c     CarSim.obj (.text:_ZN5Eigen9DenseBaseINS_13CwiseBinaryOpINS_8internal17scalar_product_opIffEEKNS_14CwiseNullaryOpINS2_18scalar_constant_opIfEEKNS_6MatrixIfLi3ELi1ELi0ELi3ELi1EEEEEKNS_5BlockINS8_IfLi3ELi4ELi0ELi3ELi4EEELi3ELi1ELb1EEEEEEC2Ev)
                  0001b054    00000004     --HOLE-- [fill = 0]
                  0001b058    0000000c     PathTrackSim.obj (.text:_ZN5Eigen9DenseBaseINS_13CwiseBinaryOpINS_8internal17scalar_product_opIffEEKNS_14CwiseNullaryOpINS2_18scalar_constant_opIfEEKNS_6MatrixIfLi3ELi1ELi0ELi3ELi1EEEEESA_EEEC1Ev)
                  0001b064    00000004     --HOLE-- [fill = 0]
                  0001b068    0000000c     PathTrackSim.obj (.text:_ZN5Eigen9DenseBaseINS_13CwiseBinaryOpINS_8internal17scalar_product_opIffEEKNS_14CwiseNullaryOpINS2_18scalar_constant_opIfEEKNS_6MatrixIfLi3ELi1ELi0ELi3ELi1EEEEESA_EEEC2Ev)
                  0001b074    00000004     --HOLE-- [fill = 0]
                  0001b078    0000000c     PathGenerator.obj (.text:_ZN5Eigen9DenseBaseINS_13CwiseBinaryOpINS_8internal20scalar_difference_opIffEEKNS_6MatrixIfLi2ELi1ELi0ELi2ELi1EEES7_EEEC1Ev)
                  0001b084    00000004     --HOLE-- [fill = 0]
                  0001b088    0000000c     PathGenerator.obj (.text:_ZN5Eigen9DenseBaseINS_13CwiseBinaryOpINS_8internal20scalar_difference_opIffEEKNS_6MatrixIfLi2ELi1ELi0ELi2ELi1EEES7_EEEC2Ev)
                  0001b094    00000004     --HOLE-- [fill = 0]
                  0001b098    0000000c     PathGenerator.obj (.text:_ZN5Eigen9DenseBaseINS_13CwiseBinaryOpINS_8internal22scalar_conj_product_opIffEEKNS_6MatrixIfLi2ELi1ELi0ELi2ELi1EEES7_EEEC1Ev)
                  0001b0a4    00000004     --HOLE-- [fill = 0]
                  0001b0a8    0000000c     PathGenerator.obj (.text:_ZN5Eigen9DenseBaseINS_13CwiseBinaryOpINS_8internal22scalar_conj_product_opIffEEKNS_6MatrixIfLi2ELi1ELi0ELi2ELi1EEES7_EEEC2Ev)
                  0001b0b4    00000004     --HOLE-- [fill = 0]
                  0001b0b8    0000000c     PathTrackSim.obj (.text:_ZN5Eigen9DenseBaseINS_13CwiseBinaryOpINS_8internal22scalar_conj_product_opIffEEKNS_6MatrixIfLi3ELi1ELi0ELi3ELi1EEES7_EEEC1Ev)
                  0001b0c4    00000004     --HOLE-- [fill = 0]
                  0001b0c8    0000000c     PathTrackSim.obj (.text:_ZN5Eigen9DenseBaseINS_13CwiseBinaryOpINS_8internal22scalar_conj_product_opIffEEKNS_6MatrixIfLi3ELi1ELi0ELi3ELi1EEES7_EEEC2Ev)
                  0001b0d4    00000004     --HOLE-- [fill = 0]
                  0001b0d8    0000000c     PathGenerator.obj (.text:_ZN5Eigen9DenseBaseINS_14CwiseNullaryOpINS_8internal18scalar_constant_opIfEEKNS_6MatrixIfLi2ELi1ELi0ELi2ELi1EEEEEEC1Ev)
                  0001b0e4    00000004     --HOLE-- [fill = 0]
                  0001b0e8    0000000c     PathGenerator.obj (.text:_ZN5Eigen9DenseBaseINS_14CwiseNullaryOpINS_8internal18scalar_constant_opIfEEKNS_6MatrixIfLi2ELi1ELi0ELi2ELi1EEEEEEC2Ev)
                  0001b0f4    00000004     --HOLE-- [fill = 0]
                  0001b0f8    0000000c     CarSim.obj (.text:_ZN5Eigen9DenseBaseINS_14CwiseNullaryOpINS_8internal18scalar_constant_opIfEEKNS_6MatrixIfLi3ELi1ELi0ELi3ELi1EEEEEEC1Ev)
                  0001b104    00000004     --HOLE-- [fill = 0]
                  0001b108    0000000c     CarSim.obj (.text:_ZN5Eigen9DenseBaseINS_14CwiseNullaryOpINS_8internal18scalar_constant_opIfEEKNS_6MatrixIfLi3ELi1ELi0ELi3ELi1EEEEEEC2Ev)
                  0001b114    00000004     --HOLE-- [fill = 0]
                  0001b118    0000000c     PathGenerator.obj (.text:_ZN5Eigen9DenseBaseINS_14CwiseNullaryOpINS_8internal18scalar_constant_opIfEENS_6MatrixIfLi2ELi1ELi0ELi2ELi1EEEEEEC1Ev)
                  0001b124    00000004     --HOLE-- [fill = 0]
                  0001b128    0000000c     PathGenerator.obj (.text:_ZN5Eigen9DenseBaseINS_14CwiseNullaryOpINS_8internal18scalar_constant_opIfEENS_6MatrixIfLi2ELi1ELi0ELi2ELi1EEEEEEC2Ev)
                  0001b134    00000004     --HOLE-- [fill = 0]
                  0001b138    0000000c     Car.obj (.text:_ZN5Eigen9DenseBaseINS_3MapIKNS_6MatrixIfLi3ELi1ELi0ELi3ELi1EEELi0ENS_6StrideILi0ELi0EEEEEEC1Ev)
                  0001b144    00000004     --HOLE-- [fill = 0]
                  0001b148    0000000c     Car.obj (.text:_ZN5Eigen9DenseBaseINS_3MapIKNS_6MatrixIfLi3ELi1ELi0ELi3ELi1EEELi0ENS_6StrideILi0ELi0EEEEEEC2Ev)
                  0001b154    00000004     --HOLE-- [fill = 0]
                  0001b158    0000000c     PathGenerator.obj (.text:_ZN5Eigen9DenseBaseINS_5BlockINS_6MatrixIfLi2ELi2ELi0ELi2ELi2EEELin1ELin1ELb0EEEEC1Ev)
                  0001b164    00000004     --HOLE-- [fill = 0]
                  0001b168    0000000c     PathGenerator.obj (.text:_ZN5Eigen9DenseBaseINS_5BlockINS_6MatrixIfLi2ELi2ELi0ELi2ELi2EEELin1ELin1ELb0EEEEC2Ev)
                  0001b174    00000004     --HOLE-- [fill = 0]
                  0001b178    0000000c     CarSim.obj (.text:_ZN5Eigen9DenseBaseINS_5BlockINS_6MatrixIfLi3ELi4ELi0ELi3ELi4EEELi3ELi1ELb1EEEEC1Ev)
                  0001b184    00000004     --HOLE-- [fill = 0]
                  0001b188    0000000c     CarSim.obj (.text:_ZN5Eigen9DenseBaseINS_5BlockINS_6MatrixIfLi3ELi4ELi0ELi3ELi4EEELi3ELi1ELb1EEEEC2Ev)
                  0001b194    00000004     --HOLE-- [fill = 0]
                  0001b198    0000000c     Task.obj (.text:_ZN5Eigen9DenseBaseINS_6MatrixIfLi2ELi1ELi0ELi2ELi1EEEEC1Ev)
                  0001b1a4    00000004     --HOLE-- [fill = 0]
                  0001b1a8    0000000c     Task.obj (.text:_ZN5Eigen9DenseBaseINS_6MatrixIfLi2ELi1ELi0ELi2ELi1EEEEC2Ev)
                  0001b1b4    00000004     --HOLE-- [fill = 0]
                  0001b1b8    0000000c     PathGenerator.obj (.text:_ZN5Eigen9DenseBaseINS_6MatrixIfLi2ELi2ELi0ELi2ELi2EEEEC1Ev)
                  0001b1c4    00000004     --HOLE-- [fill = 0]
                  0001b1c8    0000000c     PathGenerator.obj (.text:_ZN5Eigen9DenseBaseINS_6MatrixIfLi2ELi2ELi0ELi2ELi2EEEEC2Ev)
                  0001b1d4    00000004     --HOLE-- [fill = 0]
                  0001b1d8    0000000c     Car.obj (.text:_ZN5Eigen9DenseBaseINS_6MatrixIfLi3ELi1ELi0ELi3ELi1EEEEC1Ev)
                  0001b1e4    00000004     --HOLE-- [fill = 0]
                  0001b1e8    0000000c     Car.obj (.text:_ZN5Eigen9DenseBaseINS_6MatrixIfLi3ELi1ELi0ELi3ELi1EEEEC2Ev)
                  0001b1f4    00000004     --HOLE-- [fill = 0]
                  0001b1f8    0000000c     CarSim.obj (.text:_ZN5Eigen9DenseBaseINS_6MatrixIfLi3ELi4ELi0ELi3ELi4EEEEC1Ev)
                  0001b204    00000004     --HOLE-- [fill = 0]
                  0001b208    0000000c     CarSim.obj (.text:_ZN5Eigen9DenseBaseINS_6MatrixIfLi3ELi4ELi0ELi3ELi4EEEEC2Ev)
                  0001b214    00000004     --HOLE-- [fill = 0]
                  0001b218    0000000c     PathGenerator.obj (.text:_ZN5Eigen9DenseBaseINS_9TransposeIKNS_6MatrixIfLi2ELi1ELi0ELi2ELi1EEEEEEC1Ev)
                  0001b224    00000004     --HOLE-- [fill = 0]
                  0001b228    0000000c     PathGenerator.obj (.text:_ZN5Eigen9DenseBaseINS_9TransposeIKNS_6MatrixIfLi2ELi1ELi0ELi2ELi1EEEEEEC2Ev)
                  0001b234    00000004     --HOLE-- [fill = 0]
                  0001b238    0000000c     PathGenerator.obj (.text:_ZN5Eigen9DenseBaseINS_9TransposeINS_6MatrixIfLi2ELi1ELi0ELi2ELi1EEEEEEC1Ev)
                  0001b244    00000004     --HOLE-- [fill = 0]
                  0001b248    0000000c     PathGenerator.obj (.text:_ZN5Eigen9DenseBaseINS_9TransposeINS_6MatrixIfLi2ELi1ELi0ELi2ELi1EEEEEEC2Ev)
                  0001b254    00000004     --HOLE-- [fill = 0]
                  0001b258    0000000c     PathGenerator.obj (.text:_ZN5Eigen9EigenBaseINS_5BlockINS_6MatrixIfLi2ELi2ELi0ELi2ELi2EEELin1ELin1ELb0EEEE7derivedEv)
                  0001b264    00000004     --HOLE-- [fill = 0]
                  0001b268    0000000c     CarSim.obj (.text:_ZN5Eigen9EigenBaseINS_5BlockINS_6MatrixIfLi3ELi4ELi0ELi3ELi4EEELi3ELi1ELb1EEEE7derivedEv)
                  0001b274    00000004     --HOLE-- [fill = 0]
                  0001b278    0000000c     PathGenerator.obj (.text:_ZN5Eigen9EigenBaseINS_6MatrixIfLi2ELi1ELi0ELi2ELi1EEEE7derivedEv)
                  0001b284    00000004     --HOLE-- [fill = 0]
                  0001b288    0000000c     PathGenerator.obj (.text:_ZN5Eigen9EigenBaseINS_6MatrixIfLi2ELi2ELi0ELi2ELi2EEEE7derivedEv)
                  0001b294    00000004     --HOLE-- [fill = 0]
                  0001b298    0000000c     Car.obj (.text:_ZN5Eigen9EigenBaseINS_6MatrixIfLi3ELi1ELi0ELi3ELi1EEEE7derivedEv)
                  0001b2a4    00000004     --HOLE-- [fill = 0]
                  0001b2a8    0000000c     CarSim.obj (.text:_ZN5Eigen9EigenBaseINS_6MatrixIfLi3ELi4ELi0ELi3ELi4EEEE7derivedEv)
                  0001b2b4    00000004     --HOLE-- [fill = 0]
                  0001b2b8    0000000c     PathGenerator.obj (.text:_ZN5Eigen9EigenBaseINS_9TransposeIKNS_6MatrixIfLi2ELi1ELi0ELi2ELi1EEEEEE7derivedEv)
                  0001b2c4    00000004     --HOLE-- [fill = 0]
                  0001b2c8    0000000c     MembershipFuction.obj (.text:_ZN5fuzzy17MembershipFuctionC2Ev)
                  0001b2d4    00000004     --HOLE-- [fill = 0]
                  0001b2d8    0000000c     PathTrackSim.obj (.text:_ZN9pathTrack6CarSimdlEPv)
                  0001b2e4    00000004     --HOLE-- [fill = 0]
                  0001b2e8    0000000c     PathTrackSim.obj (.text:_ZN9pathTrack6CarSimnwEj)
                  0001b2f4    00000004     --HOLE-- [fill = 0]
                  0001b2f8    0000000c     CarSim.obj (.text:_ZNK5Eigen12DenseStorageIfLi12ELi3ELi4ELi0EE4dataEv)
                  0001b304    00000004     --HOLE-- [fill = 0]
                  0001b308    0000000c     PathGenerator.obj (.text:_ZNK5Eigen12DenseStorageIfLi2ELi2ELi1ELi0EE4dataEv)
                  0001b314    00000004     --HOLE-- [fill = 0]
                  0001b318    0000000c     Car.obj (.text:_ZNK5Eigen12DenseStorageIfLi3ELi3ELi1ELi0EE4dataEv)
                  0001b324    00000004     --HOLE-- [fill = 0]
                  0001b328    0000000c     PathGenerator.obj (.text:_ZNK5Eigen12DenseStorageIfLi4ELi2ELi2ELi0EE4dataEv)
                  0001b334    00000004     --HOLE-- [fill = 0]
                  0001b338    0000000c     CarSim.obj (.text:_ZNK5Eigen13CwiseBinaryOpINS_8internal13scalar_sum_opIffEEKNS_5BlockINS_6MatrixIfLi3ELi4ELi0ELi3ELi4EEELi3ELi1ELb1EEEKNS0_INS1_17scalar_product_opIffEEKNS_14CwiseNullaryOpINS1_18scalar_constant_opIfEEKNS5_IfLi3ELi1ELi0ELi3ELi1EEEEES8_EEE3lhsEv)
                  0001b344    00000004     --HOLE-- [fill = 0]
                  0001b348    0000000c     PathGenerator.obj (.text:_ZNK5Eigen15PlainObjectBaseINS_6MatrixIfLi2ELi1ELi0ELi2ELi1EEEE4dataEv)
                  0001b354    00000004     --HOLE-- [fill = 0]
                  0001b358    0000000c     PathGenerator.obj (.text:_ZNK5Eigen15PlainObjectBaseINS_6MatrixIfLi2ELi2ELi0ELi2ELi2EEEE4dataEv)
                  0001b364    00000004     --HOLE-- [fill = 0]
                  0001b368    0000000c     Car.obj (.text:_ZNK5Eigen15PlainObjectBaseINS_6MatrixIfLi3ELi1ELi0ELi3ELi1EEEE4dataEv)
                  0001b374    00000004     --HOLE-- [fill = 0]
                  0001b378    0000000c     CarSim.obj (.text:_ZNK5Eigen15PlainObjectBaseINS_6MatrixIfLi3ELi4ELi0ELi3ELi4EEEE4dataEv)
                  0001b384    00000004     --HOLE-- [fill = 0]
                  0001b388    0000000c     Car.obj (.text:_ZNK5Eigen3MapIKNS_6MatrixIfLi3ELi1ELi0ELi3ELi1EEELi0ENS_6StrideILi0ELi0EEEE11innerStrideEv)
                  0001b394    00000004     --HOLE-- [fill = 0]
                  0001b398    0000000c     Car.obj (.text:_ZNK5Eigen3MapIKNS_6MatrixIfLi3ELi1ELi0ELi3ELi1EEELi0ENS_6StrideILi0ELi0EEEE11outerStrideEv)
                  0001b3a4    00000004     --HOLE-- [fill = 0]
                  0001b3a8    0000000c     PathGenerator.obj (.text:_ZNK5Eigen6MatrixIfLi2ELi2ELi0ELi2ELi2EE11innerStrideEv)
                  0001b3b4    00000004     --HOLE-- [fill = 0]
                  0001b3b8    0000000c     PathGenerator.obj (.text:_ZNK5Eigen6MatrixIfLi2ELi2ELi0ELi2ELi2EE11outerStrideEv)
                  0001b3c4    00000004     --HOLE-- [fill = 0]
                  0001b3c8    0000000c     CarSim.obj (.text:_ZNK5Eigen6MatrixIfLi3ELi4ELi0ELi3ELi4EE11innerStrideEv)
                  0001b3d4    00000004     --HOLE-- [fill = 0]
                  0001b3d8    0000000c     CarSim.obj (.text:_ZNK5Eigen6MatrixIfLi3ELi4ELi0ELi3ELi4EE11outerStrideEv)
                  0001b3e4    00000004     --HOLE-- [fill = 0]
                  0001b3e8    0000000c     Car.obj (.text:_ZNK5Eigen7MapBaseINS_3MapIKNS_6MatrixIfLi3ELi1ELi0ELi3ELi1EEELi0ENS_6StrideILi0ELi0EEEEELi0EE11checkSanityIS7_EEvNS_8internal9enable_ifIXeqsr5Eigen8internal6traitsIT_EE9AlignmentLi0EEPvE4typeE)
                  0001b3f4    00000004     --HOLE-- [fill = 0]
                  0001b3f8    0000000c     PathGenerator.obj (.text:_ZNK5Eigen7MapBaseINS_5BlockINS_6MatrixIfLi2ELi2ELi0ELi2ELi2EEELin1ELin1ELb0EEELi0EE11checkSanityIS4_EEvNS_8internal9enable_ifIXeqsr5Eigen8internal6traitsIT_EE9AlignmentLi0EEPvE4typeE)
                  0001b404    00000004     --HOLE-- [fill = 0]
                  0001b408    0000000c     CarSim.obj (.text:_ZNK5Eigen7MapBaseINS_5BlockINS_6MatrixIfLi3ELi4ELi0ELi3ELi4EEELi3ELi1ELb1EEELi0EE11checkSanityIS4_EEvNS_8internal9enable_ifIXeqsr5Eigen8internal6traitsIT_EE9AlignmentLi0EEPvE4typeE)
                  0001b414    00000004     --HOLE-- [fill = 0]
                  0001b418    0000000c     PathGenerator.obj (.text:_ZNK5Eigen9DenseBaseINS_5BlockINS_6MatrixIfLi2ELi2ELi0ELi2ELi2EEELin1ELin1ELb0EEEE9innerSizeEv)
                  0001b424    00000004     --HOLE-- [fill = 0]
                  0001b428    0000000c     PathGenerator.obj (.text:_ZNK5Eigen9DenseBaseINS_5BlockINS_6MatrixIfLi2ELi2ELi0ELi2ELi2EEELin1ELin1ELb0EEEE9outerSizeEv)
                  0001b434    00000004     --HOLE-- [fill = 0]
                  0001b438    0000000c     PathGenerator.obj (.text:_ZNK5Eigen9DenseBaseINS_6MatrixIfLi2ELi2ELi0ELi2ELi2EEEE9innerSizeEv)
                  0001b444    00000004     --HOLE-- [fill = 0]
                  0001b448    0000000c     CarSim.obj (.text:_ZNK5Eigen9DenseBaseINS_6MatrixIfLi3ELi4ELi0ELi3ELi4EEEE9innerSizeEv)
                  0001b454    00000004     --HOLE-- [fill = 0]
                  0001b458    0000000c     PathGenerator.obj (.text:_ZNK5Eigen9EigenBaseINS_12CwiseUnaryOpINS_8internal14scalar_abs2_opIfEEKNS_13CwiseBinaryOpINS2_20scalar_difference_opIffEEKNS_6MatrixIfLi2ELi1ELi0ELi2ELi1EEESA_EEEEE7derivedEv)
                  0001b464    00000004     --HOLE-- [fill = 0]
                  0001b468    0000000c     PathGenerator.obj (.text:_ZNK5Eigen9EigenBaseINS_12CwiseUnaryOpINS_8internal14scalar_abs2_opIfEEKNS_6MatrixIfLi2ELi1ELi0ELi2ELi1EEEEEE7derivedEv)
                  0001b474    00000004     --HOLE-- [fill = 0]
                  0001b478    0000000c     PathTrackSim.obj (.text:_ZNK5Eigen9EigenBaseINS_12CwiseUnaryOpINS_8internal14scalar_abs2_opIfEEKNS_6MatrixIfLi3ELi1ELi0ELi3ELi1EEEEEE7derivedEv)
                  0001b484    00000004     --HOLE-- [fill = 0]
                  0001b488    0000000c     PathTrackSim.obj (.text:_ZNK5Eigen9EigenBaseINS_12CwiseUnaryOpINS_8internal18scalar_opposite_opIfEEKNS_6MatrixIfLi2ELi1ELi0ELi2ELi1EEEEEE7derivedEv)
                  0001b494    00000004     --HOLE-- [fill = 0]
                  0001b498    0000000c     PathTrackSim.obj (.text:_ZNK5Eigen9EigenBaseINS_13CwiseBinaryOpINS_8internal13scalar_sum_opIffEEKNS1_INS2_17scalar_product_opIffEEKNS_14CwiseNullaryOpINS2_18scalar_constant_opIfEEKNS_6MatrixIfLi3ELi1ELi0ELi3ELi1EEEEESC_EESG_EEE7derivedEv)
                  0001b4a4    00000004     --HOLE-- [fill = 0]
                  0001b4a8    0000000c     CarSim.obj (.text:_ZNK5Eigen9EigenBaseINS_13CwiseBinaryOpINS_8internal13scalar_sum_opIffEEKNS1_IS4_KNS1_IS4_KNS_5BlockINS_6MatrixIfLi3ELi4ELi0ELi3ELi4EEELi3ELi1ELb1EEEKNS1_INS2_17scalar_product_opIffEEKNS_14CwiseNullaryOpINS2_18scalar_constant_opIfEEKNS6_IfLi3ELi1ELi0ELi3ELi1EEEEES9_EEEESK_EES9_EEE7derivedEv)
                  0001b4b4    00000004     --HOLE-- [fill = 0]
                  0001b4b8    0000000c     CarSim.obj (.text:_ZNK5Eigen9EigenBaseINS_13CwiseBinaryOpINS_8internal13scalar_sum_opIffEEKNS1_IS4_KNS_5BlockINS_6MatrixIfLi3ELi4ELi0ELi3ELi4EEELi3ELi1ELb1EEEKNS1_INS2_17scalar_product_opIffEEKNS_14CwiseNullaryOpINS2_18scalar_constant_opIfEEKNS6_IfLi3ELi1ELi0ELi3ELi1EEEEES9_EEEESK_EEE7derivedEv)
                  0001b4c4    00000004     --HOLE-- [fill = 0]
                  0001b4c8    0000000c     CarSim.obj (.text:_ZNK5Eigen9EigenBaseINS_13CwiseBinaryOpINS_8internal13scalar_sum_opIffEEKNS_5BlockINS_6MatrixIfLi3ELi4ELi0ELi3ELi4EEELi3ELi1ELb1EEEKNS1_INS2_17scalar_product_opIffEEKNS_14CwiseNullaryOpINS2_18scalar_constant_opIfEEKNS6_IfLi3ELi1ELi0ELi3ELi1EEEEES9_EEEEE7derivedEv)
                  0001b4d4    00000004     --HOLE-- [fill = 0]
                  0001b4d8    0000000c     PathGenerator.obj (.text:_ZNK5Eigen9EigenBaseINS_13CwiseBinaryOpINS_8internal13scalar_sum_opIffEEKNS_6MatrixIfLi2ELi1ELi0ELi2ELi1EEEKNS1_INS2_17scalar_product_opIffEEKNS_14CwiseNullaryOpINS2_18scalar_constant_opIfEES7_EEKNS1_INS2_20scalar_difference_opIffEES7_S7_EEEEEEE7derivedEv)
                  0001b4e4    00000004     --HOLE-- [fill = 0]
                  0001b4e8    0000000c     PathGenerator.obj (.text:_ZNK5Eigen9EigenBaseINS_13CwiseBinaryOpINS_8internal13scalar_sum_opIffEEKNS_6MatrixIfLi2ELi1ELi0ELi2ELi1EEEKNS1_INS2_17scalar_product_opIffEEKNS_14CwiseNullaryOpINS2_18scalar_constant_opIfEES7_EES7_EEEEE7derivedEv)
                  0001b4f4    00000004     --HOLE-- [fill = 0]
                  0001b4f8    0000000c     PathGenerator.obj (.text:_ZNK5Eigen9EigenBaseINS_13CwiseBinaryOpINS_8internal13scalar_sum_opIffEEKNS_6MatrixIfLi2ELi1ELi0ELi2ELi1EEES7_EEE7derivedEv)
                  0001b504    00000004     --HOLE-- [fill = 0]
                  0001b508    0000000c     CarSim.obj (.text:_ZNK5Eigen9EigenBaseINS_13CwiseBinaryOpINS_8internal13scalar_sum_opIffEEKNS_6MatrixIfLi3ELi1ELi0ELi3ELi1EEEKNS1_INS2_17scalar_product_opIffEEKNS_14CwiseNullaryOpINS2_18scalar_constant_opIfEES7_EEKNS1_IS4_KNS1_IS4_KNS1_IS4_KNS_5BlockINS5_IfLi3ELi4ELi0ELi3ELi4EEELi3ELi1ELb1EEEKNS1_IS9_SE_SI_EEEESK_EESI_EEEEEEE7derivedEv)
                  0001b514    00000004     --HOLE-- [fill = 0]
                  0001b518    0000000c     PathGenerator.obj (.text:_ZNK5Eigen9EigenBaseINS_13CwiseBinaryOpINS_8internal17scalar_product_opIffEEKNS_14CwiseNullaryOpINS2_18scalar_constant_opIfEEKNS_6MatrixIfLi2ELi1ELi0ELi2ELi1EEEEEKNS1_INS2_20scalar_difference_opIffEESA_SA_EEEEE7derivedEv)
                  0001b524    00000004     --HOLE-- [fill = 0]
                  0001b528    0000000c     PathGenerator.obj (.text:_ZNK5Eigen9EigenBaseINS_13CwiseBinaryOpINS_8internal17scalar_product_opIffEEKNS_14CwiseNullaryOpINS2_18scalar_constant_opIfEEKNS_6MatrixIfLi2ELi1ELi0ELi2ELi1EEEEESA_EEE7derivedEv)
                  0001b534    00000004     --HOLE-- [fill = 0]
                  0001b538    0000000c     CarSim.obj (.text:_ZNK5Eigen9EigenBaseINS_13CwiseBinaryOpINS_8internal17scalar_product_opIffEEKNS_14CwiseNullaryOpINS2_18scalar_constant_opIfEEKNS_6MatrixIfLi3ELi1ELi0ELi3ELi1EEEEEKNS1_INS2_13scalar_sum_opIffEEKNS1_ISE_KNS1_ISE_KNS_5BlockINS8_IfLi3ELi4ELi0ELi3ELi4EEELi3ELi1ELb1EEEKNS1_IS4_SC_SI_EEEESK_EESI_EEEEE7derivedEv)
                  0001b544    00000004     --HOLE-- [fill = 0]
                  0001b548    0000000c     CarSim.obj (.text:_ZNK5Eigen9EigenBaseINS_13CwiseBinaryOpINS_8internal17scalar_product_opIffEEKNS_14CwiseNullaryOpINS2_18scalar_constant_opIfEEKNS_6MatrixIfLi3ELi1ELi0ELi3ELi1EEEEEKNS_5BlockINS8_IfLi3ELi4ELi0ELi3ELi4EEELi3ELi1ELb1EEEEEE7derivedEv)
                  0001b554    00000004     --HOLE-- [fill = 0]
                  0001b558    0000000c     PathTrackSim.obj (.text:_ZNK5Eigen9EigenBaseINS_13CwiseBinaryOpINS_8internal17scalar_product_opIffEEKNS_14CwiseNullaryOpINS2_18scalar_constant_opIfEEKNS_6MatrixIfLi3ELi1ELi0ELi3ELi1EEEEESA_EEE7derivedEv)
                  0001b564    00000004     --HOLE-- [fill = 0]
                  0001b568    0000000c     PathGenerator.obj (.text:_ZNK5Eigen9EigenBaseINS_13CwiseBinaryOpINS_8internal20scalar_difference_opIffEEKNS_6MatrixIfLi2ELi1ELi0ELi2ELi1EEES7_EEE7derivedEv)
                  0001b574    00000004     --HOLE-- [fill = 0]
                  0001b578    0000000c     PathGenerator.obj (.text:_ZNK5Eigen9EigenBaseINS_13CwiseBinaryOpINS_8internal22scalar_conj_product_opIffEEKNS_6MatrixIfLi2ELi1ELi0ELi2ELi1EEES7_EEE7derivedEv)
                  0001b584    00000004     --HOLE-- [fill = 0]
                  0001b588    0000000c     PathTrackSim.obj (.text:_ZNK5Eigen9EigenBaseINS_13CwiseBinaryOpINS_8internal22scalar_conj_product_opIffEEKNS_6MatrixIfLi3ELi1ELi0ELi3ELi1EEES7_EEE7derivedEv)
                  0001b594    00000004     --HOLE-- [fill = 0]
                  0001b598    0000000c     Car.obj (.text:_ZNK5Eigen9EigenBaseINS_3MapIKNS_6MatrixIfLi3ELi1ELi0ELi3ELi1EEELi0ENS_6StrideILi0ELi0EEEEEE7derivedEv)
                  0001b5a4    00000004     --HOLE-- [fill = 0]
                  0001b5a8    0000000c     PathGenerator.obj (.text:_ZNK5Eigen9EigenBaseINS_5BlockINS_6MatrixIfLi2ELi2ELi0ELi2ELi2EEELin1ELin1ELb0EEEE18const_cast_derivedEv)
                  0001b5b4    00000004     --HOLE-- [fill = 0]
                  0001b5b8    0000000c     PathGenerator.obj (.text:_ZNK5Eigen9EigenBaseINS_5BlockINS_6MatrixIfLi2ELi2ELi0ELi2ELi2EEELin1ELin1ELb0EEEE7derivedEv)
                  0001b5c4    00000004     --HOLE-- [fill = 0]
                  0001b5c8    0000000c     CarSim.obj (.text:_ZNK5Eigen9EigenBaseINS_5BlockINS_6MatrixIfLi3ELi4ELi0ELi3ELi4EEELi3ELi1ELb1EEEE18const_cast_derivedEv)
                  0001b5d4    00000004     --HOLE-- [fill = 0]
                  0001b5d8    0000000c     CarSim.obj (.text:_ZNK5Eigen9EigenBaseINS_5BlockINS_6MatrixIfLi3ELi4ELi0ELi3ELi4EEELi3ELi1ELb1EEEE7derivedEv)
                  0001b5e4    00000004     --HOLE-- [fill = 0]
                  0001b5e8    0000000c     PathGenerator.obj (.text:_ZNK5Eigen9EigenBaseINS_6MatrixIfLi2ELi1ELi0ELi2ELi1EEEE18const_cast_derivedEv)
                  0001b5f4    00000004     --HOLE-- [fill = 0]
                  0001b5f8    0000000c     PathGenerator.obj (.text:_ZNK5Eigen9EigenBaseINS_6MatrixIfLi2ELi1ELi0ELi2ELi1EEEE7derivedEv)
                  0001b604    00000004     --HOLE-- [fill = 0]
                  0001b608    0000000c     PathGenerator.obj (.text:_ZNK5Eigen9EigenBaseINS_6MatrixIfLi2ELi2ELi0ELi2ELi2EEEE18const_cast_derivedEv)
                  0001b614    00000004     --HOLE-- [fill = 0]
                  0001b618    0000000c     PathGenerator.obj (.text:_ZNK5Eigen9EigenBaseINS_6MatrixIfLi2ELi2ELi0ELi2ELi2EEEE7derivedEv)
                  0001b624    00000004     --HOLE-- [fill = 0]
                  0001b628    0000000c     Car.obj (.text:_ZNK5Eigen9EigenBaseINS_6MatrixIfLi3ELi1ELi0ELi3ELi1EEEE18const_cast_derivedEv)
                  0001b634    00000004     --HOLE-- [fill = 0]
                  0001b638    0000000c     Car.obj (.text:_ZNK5Eigen9EigenBaseINS_6MatrixIfLi3ELi1ELi0ELi3ELi1EEEE7derivedEv)
                  0001b644    00000004     --HOLE-- [fill = 0]
                  0001b648    0000000c     CarSim.obj (.text:_ZNK5Eigen9EigenBaseINS_6MatrixIfLi3ELi4ELi0ELi3ELi4EEEE7derivedEv)
                  0001b654    00000004     --HOLE-- [fill = 0]
                  0001b658    0000000c     PathGenerator.obj (.text:_ZNK5Eigen9EigenBaseINS_9TransposeINS_6MatrixIfLi2ELi1ELi0ELi2ELi1EEEEEE7derivedEv)
                  0001b664    00000004     --HOLE-- [fill = 0]
                  0001b668    0000000c     PathGenerator.obj (.text:_ZNKSt3__217__compressed_pairIPNS_11__list_nodeIPN9pathTrack8PathPartEPvEENS_22__allocator_destructorINS_9allocatorIS6_EEEEE5firstEv)
                  0001b674    00000004     --HOLE-- [fill = 0]
                  0001b678    0000000c     PathTrackSim.obj (.text:_ZNKSt3__217__compressed_pairIPNS_11__list_nodeIfPvEENS_22__allocator_destructorINS_9allocatorIS3_EEEEE5firstEv)
                  0001b684    00000004     --HOLE-- [fill = 0]
                  0001b688    0000000c     PathGenerator.obj (.text:_ZNKSt3__217__compressed_pairIPtNS_9allocatorItEEE5firstEv)
                  0001b694    00000004     --HOLE-- [fill = 0]
                  0001b698    0000000c     PathGenerator.obj (.text:_ZNKSt3__217__compressed_pairIPtNS_9allocatorItEEE6secondEv)
                  0001b6a4    00000004     --HOLE-- [fill = 0]
                  0001b6a8    0000000c     PathGenerator.obj (.text:_ZNKSt3__217__compressed_pairIPtRNS_9allocatorItEEE5firstEv)
                  0001b6b4    00000004     --HOLE-- [fill = 0]
                  0001b6b8    0000000c     PathGenerator.obj (.text:_ZNKSt3__217__compressed_pairIjNS_9allocatorINS_11__list_nodeIPN9pathTrack8PathPartEPvEEEEE5firstEv)
                  0001b6c4    00000004     --HOLE-- [fill = 0]
                  0001b6c8    0000000c     PathTrackSim.obj (.text:_ZNKSt3__217__compressed_pairIjNS_9allocatorINS_11__list_nodeIfPvEEEEE5firstEv)
                  0001b6d4    00000004     --HOLE-- [fill = 0]
                  0001b6d8    0000000c     PathGenerator.obj (.text:_ZNKSt3__217__compressed_pairIjNS_9allocatorIjEEE5firstEv)
                  0001b6e4    00000004     --HOLE-- [fill = 0]
                  0001b6e8    0000000c     PathGenerator.obj (.text:_ZNKSt3__217__compressed_pairIjNS_9allocatorIjEEE6secondEv)
                  0001b6f4    0000000c     rtsv7M4_T_le_v4SPD16_eabi.lib : vector.cpp.obj (.text:_ZNKSt3__220__vector_base_commonILb1EE20__throw_length_errorEv)
                  0001b700    0000000c     PathGenerator.obj (.text:_ZNKSt3__222__compressed_pair_elemINS_9allocatorIjEELi1ELb1EE5__getEv)
                  0001b70c    00000004     --HOLE-- [fill = 0]
                  0001b710    0000000c     PathGenerator.obj (.text:_ZNKSt3__222__compressed_pair_elemINS_9allocatorItEELi1ELb1EE5__getEv)
                  0001b71c    00000004     --HOLE-- [fill = 0]
                  0001b720    0000000c     PathGenerator.obj (.text:_ZNKSt3__222__compressed_pair_elemIPNS_11__list_nodeIPN9pathTrack8PathPartEPvEELi0ELb0EE5__getEv)
                  0001b72c    00000004     --HOLE-- [fill = 0]
                  0001b730    0000000c     PathTrackSim.obj (.text:_ZNKSt3__222__compressed_pair_elemIPNS_11__list_nodeIfPvEELi0ELb0EE5__getEv)
                  0001b73c    00000004     --HOLE-- [fill = 0]
                  0001b740    0000000c     PathGenerator.obj (.text:_ZNKSt3__222__compressed_pair_elemIPtLi0ELb0EE5__getEv)
                  0001b74c    00000004     --HOLE-- [fill = 0]
                  0001b750    0000000c     PathGenerator.obj (.text:_ZNKSt3__222__compressed_pair_elemIjLi0ELb0EE5__getEv)
                  0001b75c    00000004     --HOLE-- [fill = 0]
                  0001b760    0000000c     PathGenerator.obj (.text:_ZNKSt3__24listIPN9pathTrack8PathPartENS_9allocatorIS3_EEE5emptyEv)
                  0001b76c    00000004     --HOLE-- [fill = 0]
                  0001b770    0000000c     PathGenerator.obj (.text:_ZNKSt3__26vectorItNS_9allocatorItEEE8capacityEv)
                  0001b77c    00000004     --HOLE-- [fill = 0]
                  0001b780    0000000c     PathGenerator.obj (.text:_ZNSt3__210__allocateEj)
                  0001b78c    00000004     --HOLE-- [fill = 0]
                  0001b790    0000000c     PathGenerator.obj (.text:_ZNSt3__210__list_impIPN9pathTrack8PathPartENS_9allocatorIS3_EEEC2Ev)
                  0001b79c    00000004     --HOLE-- [fill = 0]
                  0001b7a0    0000000c     PathTrackSim.obj (.text:_ZNSt3__210__list_impIPN9pathTrack8PathPartENS_9allocatorIS3_EEED2Ev)
                  0001b7ac    00000004     --HOLE-- [fill = 0]
                  0001b7b0    0000000c     PathTrackSim.obj (.text:_ZNSt3__210__list_impIfNS_9allocatorIfEEEC2Ev)
                  0001b7bc    00000004     --HOLE-- [fill = 0]
                  0001b7c0    0000000c     PathTrackSim.obj (.text:_ZNSt3__210__list_impIfNS_9allocatorIfEEED2Ev)
                  0001b7cc    00000004     --HOLE-- [fill = 0]
                  0001b7d0    0000000c     PathGenerator.obj (.text:_ZNSt3__211__list_nodeIPN9pathTrack8PathPartEPvE9__as_linkEv)
                  0001b7dc    00000004     --HOLE-- [fill = 0]
                  0001b7e0    0000000c     PathTrackSim.obj (.text:_ZNSt3__211__list_nodeIfPvE9__as_linkEv)
                  0001b7ec    00000004     --HOLE-- [fill = 0]
                  0001b7f0    0000000c     PathGenerator.obj (.text:_ZNSt3__213__vector_baseItNS_9allocatorItEEEC2Ev)
                  0001b7fc    00000004     --HOLE-- [fill = 0]
                  0001b800    0000000c     PathTrackSim.obj (.text:_ZNSt3__213__vector_baseItNS_9allocatorItEEED2Ev)
                  0001b80c    00000004     --HOLE-- [fill = 0]
                  0001b810    0000000c     PathGenerator.obj (.text:_ZNSt3__214pointer_traitsIPNS_16__list_node_baseIPN9pathTrack8PathPartEPvEEE10pointer_toERS6_)
                  0001b81c    00000004     --HOLE-- [fill = 0]
                  0001b820    0000000c     PathTrackSim.obj (.text:_ZNSt3__214pointer_traitsIPNS_16__list_node_baseIfPvEEE10pointer_toERS3_)
                  0001b82c    00000004     --HOLE-- [fill = 0]
                  0001b830    0000000c     PathGenerator.obj (.text:_ZNSt3__216__list_node_baseIPN9pathTrack8PathPartEPvE6__selfEv)
                  0001b83c    00000004     --HOLE-- [fill = 0]
                  0001b840    0000000c     PathGenerator.obj (.text:_ZNSt3__216__list_node_baseIPN9pathTrack8PathPartEPvE9__as_nodeEv)
                  0001b84c    00000004     --HOLE-- [fill = 0]
                  0001b850    0000000c     PathTrackSim.obj (.text:_ZNSt3__216__list_node_baseIfPvE6__selfEv)
                  0001b85c    00000004     --HOLE-- [fill = 0]
                  0001b860    0000000c     PathTrackSim.obj (.text:_ZNSt3__216__list_node_baseIfPvE9__as_nodeEv)
                  0001b86c    00000004     --HOLE-- [fill = 0]
                  0001b870    0000000c     PathGenerator.obj (.text:_ZNSt3__216__to_raw_pointerIjEEPT_S2_)
                  0001b87c    00000004     --HOLE-- [fill = 0]
                  0001b880    0000000c     PathGenerator.obj (.text:_ZNSt3__216__to_raw_pointerItEEPT_S2_)
                  0001b88c    00000004     --HOLE-- [fill = 0]
                  0001b890    0000000c     PathGenerator.obj (.text:_ZNSt3__217__compressed_pairIPNS_11__list_nodeIPN9pathTrack8PathPartEPvEENS_22__allocator_destructorINS_9allocatorIS6_EEEEE5firstEv)
                  0001b89c    00000004     --HOLE-- [fill = 0]
                  0001b8a0    0000000c     PathTrackSim.obj (.text:_ZNSt3__217__compressed_pairIPNS_11__list_nodeIfPvEENS_22__allocator_destructorINS_9allocatorIS3_EEEEE5firstEv)
                  0001b8ac    00000004     --HOLE-- [fill = 0]
                  0001b8b0    0000000c     PathGenerator.obj (.text:_ZNSt3__217__compressed_pairIPtNS_9allocatorItEEE5firstEv)
                  0001b8bc    00000004     --HOLE-- [fill = 0]
                  0001b8c0    0000000c     PathGenerator.obj (.text:_ZNSt3__217__compressed_pairIPtNS_9allocatorItEEE6secondEv)
                  0001b8cc    00000004     --HOLE-- [fill = 0]
                  0001b8d0    0000000c     PathGenerator.obj (.text:_ZNSt3__217__compressed_pairIPtRNS_9allocatorItEEE5firstEv)
                  0001b8dc    00000004     --HOLE-- [fill = 0]
                  0001b8e0    0000000c     PathGenerator.obj (.text:_ZNSt3__217__compressed_pairIjNS_9allocatorINS_11__list_nodeIPN9pathTrack8PathPartEPvEEEEE5firstEv)
                  0001b8ec    00000004     --HOLE-- [fill = 0]
                  0001b8f0    0000000c     PathGenerator.obj (.text:_ZNSt3__217__compressed_pairIjNS_9allocatorINS_11__list_nodeIPN9pathTrack8PathPartEPvEEEEE6secondEv)
                  0001b8fc    00000004     --HOLE-- [fill = 0]
                  0001b900    0000000c     PathTrackSim.obj (.text:_ZNSt3__217__compressed_pairIjNS_9allocatorINS_11__list_nodeIfPvEEEEE5firstEv)
                  0001b90c    00000004     --HOLE-- [fill = 0]
                  0001b910    0000000c     PathTrackSim.obj (.text:_ZNSt3__217__compressed_pairIjNS_9allocatorINS_11__list_nodeIfPvEEEEE6secondEv)
                  0001b91c    00000004     --HOLE-- [fill = 0]
                  0001b920    0000000c     PathGenerator.obj (.text:_ZNSt3__217__compressed_pairIjNS_9allocatorIjEEE5firstEv)
                  0001b92c    00000004     --HOLE-- [fill = 0]
                  0001b930    0000000c     PathGenerator.obj (.text:_ZNSt3__217__compressed_pairIjNS_9allocatorIjEEE6secondEv)
                  0001b93c    00000004     --HOLE-- [fill = 0]
                  0001b940    0000000c     PathGenerator.obj (.text:_ZNSt3__219__libcpp_deallocateEPv)
                  0001b94c    00000004     --HOLE-- [fill = 0]
                  0001b950    0000000c     PathGenerator.obj (.text:_ZNSt3__222__compressed_pair_elemINS_22__allocator_destructorINS_9allocatorINS_11__list_nodeIPN9pathTrack8PathPartEPvEEEEEELi1ELb0EE5__getEv)
                  0001b95c    00000004     --HOLE-- [fill = 0]
                  0001b960    0000000c     PathTrackSim.obj (.text:_ZNSt3__222__compressed_pair_elemINS_22__allocator_destructorINS_9allocatorINS_11__list_nodeIfPvEEEEEELi1ELb0EE5__getEv)
                  0001b96c    00000004     --HOLE-- [fill = 0]
                  0001b970    0000000c     PathGenerator.obj (.text:_ZNSt3__222__compressed_pair_elemINS_9allocatorINS_11__list_nodeIPN9pathTrack8PathPartEPvEEEELi1ELb1EE5__getEv)
                  0001b97c    00000004     --HOLE-- [fill = 0]
                  0001b980    0000000c     PathGenerator.obj (.text:_ZNSt3__222__compressed_pair_elemINS_9allocatorINS_11__list_nodeIPN9pathTrack8PathPartEPvEEEELi1ELb1EEC2Ev)
                  0001b98c    00000004     --HOLE-- [fill = 0]
                  0001b990    0000000c     PathTrackSim.obj (.text:_ZNSt3__222__compressed_pair_elemINS_9allocatorINS_11__list_nodeIfPvEEEELi1ELb1EE5__getEv)
                  0001b99c    00000004     --HOLE-- [fill = 0]
                  0001b9a0    0000000c     PathTrackSim.obj (.text:_ZNSt3__222__compressed_pair_elemINS_9allocatorINS_11__list_nodeIfPvEEEELi1ELb1EEC2Ev)
                  0001b9ac    00000004     --HOLE-- [fill = 0]
                  0001b9b0    0000000c     PathGenerator.obj (.text:_ZNSt3__222__compressed_pair_elemINS_9allocatorIjEELi1ELb1EE5__getEv)
                  0001b9bc    00000004     --HOLE-- [fill = 0]
                  0001b9c0    0000000c     PathGenerator.obj (.text:_ZNSt3__222__compressed_pair_elemINS_9allocatorIjEELi1ELb1EEC2Ev)
                  0001b9cc    00000004     --HOLE-- [fill = 0]
                  0001b9d0    0000000c     PathGenerator.obj (.text:_ZNSt3__222__compressed_pair_elemINS_9allocatorItEELi1ELb1EE5__getEv)
                  0001b9dc    00000004     --HOLE-- [fill = 0]
                  0001b9e0    0000000c     PathGenerator.obj (.text:_ZNSt3__222__compressed_pair_elemINS_9allocatorItEELi1ELb1EEC2Ev)
                  0001b9ec    00000004     --HOLE-- [fill = 0]
                  0001b9f0    0000000c     PathGenerator.obj (.text:_ZNSt3__222__compressed_pair_elemIPNS_11__list_nodeIPN9pathTrack8PathPartEPvEELi0ELb0EE5__getEv)
                  0001b9fc    00000004     --HOLE-- [fill = 0]
                  0001ba00    0000000c     PathTrackSim.obj (.text:_ZNSt3__222__compressed_pair_elemIPNS_11__list_nodeIfPvEELi0ELb0EE5__getEv)
                  0001ba0c    00000004     --HOLE-- [fill = 0]
                  0001ba10    0000000c     PathGenerator.obj (.text:_ZNSt3__222__compressed_pair_elemIPtLi0ELb0EE5__getEv)
                  0001ba1c    00000004     --HOLE-- [fill = 0]
                  0001ba20    0000000c     PathGenerator.obj (.text:_ZNSt3__222__compressed_pair_elemIjLi0ELb0EE5__getEv)
                  0001ba2c    00000004     --HOLE-- [fill = 0]
                  0001ba30    0000000c     PathGenerator.obj (.text:_ZNSt3__226__list_node_pointer_traitsIPN9pathTrack8PathPartEPvE26__unsafe_link_pointer_castEPNS_16__list_node_baseIS3_S4_EE)
                  0001ba3c    00000004     --HOLE-- [fill = 0]
                  0001ba40    0000000c     PathTrackSim.obj (.text:_ZNSt3__226__list_node_pointer_traitsIfPvE26__unsafe_link_pointer_castEPNS_16__list_node_baseIfS1_EE)
                  0001ba4c    00000004     --HOLE-- [fill = 0]
                  0001ba50    0000000c     PathGenerator.obj (.text:_ZNSt3__24listIPN9pathTrack8PathPartENS_9allocatorIS3_EEE3endEv)
                  0001ba5c    00000004     --HOLE-- [fill = 0]
                  0001ba60    0000000c     PathGenerator.obj (.text:_ZNSt3__24listIPN9pathTrack8PathPartENS_9allocatorIS3_EEE5beginEv)
                  0001ba6c    00000004     --HOLE-- [fill = 0]
                  0001ba70    0000000c     PathGenerator.obj (.text:_ZNSt3__24listIPN9pathTrack8PathPartENS_9allocatorIS3_EEE5clearEv)
                  0001ba7c    00000004     --HOLE-- [fill = 0]
                  0001ba80    0000000c     PathTrackSim.obj (.text:_ZNSt3__24listIfNS_9allocatorIfEEE3endEv)
                  0001ba8c    00000004     --HOLE-- [fill = 0]
                  0001ba90    0000000c     PathTrackSim.obj (.text:_ZNSt3__24listIfNS_9allocatorIfEEE5beginEv)
                  0001ba9c    00000004     --HOLE-- [fill = 0]
                  0001baa0    0000000c     PathGenerator.obj (.text:_ZNSt3__24moveIRNS_22__allocator_destructorINS_9allocatorINS_11__list_nodeIPN9pathTrack8PathPartEPvEEEEEEEEONS_16remove_referenceIT_E4typeEOSD_)
                  0001baac    00000004     --HOLE-- [fill = 0]
                  0001bab0    0000000c     PathTrackSim.obj (.text:_ZNSt3__24moveIRNS_22__allocator_destructorINS_9allocatorINS_11__list_nodeIfPvEEEEEEEEONS_16remove_referenceIT_E4typeEOSA_)
                  0001babc    00000004     --HOLE-- [fill = 0]
                  0001bac0    0000000c     PathGenerator.obj (.text:_ZNSt3__24moveIRPN9pathTrack8PathPartEEEONS_16remove_referenceIT_E4typeEOS6_)
                  0001bacc    00000004     --HOLE-- [fill = 0]
                  0001bad0    0000000c     PathGenerator.obj (.text:_ZNSt3__24moveIRPjEEONS_16remove_referenceIT_E4typeEOS4_)
                  0001badc    00000004     --HOLE-- [fill = 0]
                  0001bae0    0000000c     PathGenerator.obj (.text:_ZNSt3__24moveIRPtEEONS_16remove_referenceIT_E4typeEOS4_)
                  0001baec    00000004     --HOLE-- [fill = 0]
                  0001baf0    0000000c     PathGenerator.obj (.text:_ZNSt3__24moveIRfEEONS_16remove_referenceIT_E4typeEOS3_)
                  0001bafc    00000004     --HOLE-- [fill = 0]
                  0001bb00    0000000c     PathGenerator.obj (.text:_ZNSt3__24moveIRjEEONS_16remove_referenceIT_E4typeEOS3_)
                  0001bb0c    00000004     --HOLE-- [fill = 0]
                  0001bb10    0000000c     PathGenerator.obj (.text:_ZNSt3__27forwardIDnEEOT_RNS_16remove_referenceIS1_E4typeE)
                  0001bb1c    00000004     --HOLE-- [fill = 0]
                  0001bb20    0000000c     PathGenerator.obj (.text:_ZNSt3__27forwardINS_22__allocator_destructorINS_9allocatorINS_11__list_nodeIPN9pathTrack8PathPartEPvEEEEEEEEOT_RNS_16remove_referenceISB_E4typeE)
                  0001bb2c    00000004     --HOLE-- [fill = 0]
                  0001bb30    0000000c     PathTrackSim.obj (.text:_ZNSt3__27forwardINS_22__allocator_destructorINS_9allocatorINS_11__list_nodeIfPvEEEEEEEEOT_RNS_16remove_referenceIS8_E4typeE)
                  0001bb3c    00000004     --HOLE-- [fill = 0]
                  0001bb40    0000000c     PathGenerator.obj (.text:_ZNSt3__27forwardINS_9allocatorIjEEEEOT_RNS_16remove_referenceIS3_E4typeE)
                  0001bb4c    00000004     --HOLE-- [fill = 0]
                  0001bb50    0000000c     PathGenerator.obj (.text:_ZNSt3__27forwardIPN9pathTrack8PathPartEEEOT_RNS_16remove_referenceIS4_E4typeE)
                  0001bb5c    00000004     --HOLE-- [fill = 0]
                  0001bb60    0000000c     PathGenerator.obj (.text:_ZNSt3__27forwardIRKfEEOT_RNS_16remove_referenceIS3_E4typeE)
                  0001bb6c    00000004     --HOLE-- [fill = 0]
                  0001bb70    0000000c     PathGenerator.obj (.text:_ZNSt3__27forwardIRKtEEOT_RNS_16remove_referenceIS3_E4typeE)
                  0001bb7c    00000004     --HOLE-- [fill = 0]
                  0001bb80    0000000c     PathGenerator.obj (.text:_ZNSt3__27forwardIRNS_9allocatorItEEEEOT_RNS_16remove_referenceIS4_E4typeE)
                  0001bb8c    00000004     --HOLE-- [fill = 0]
                  0001bb90    0000000c     PathGenerator.obj (.text:_ZNSt3__27forwardIRPNS_11__list_nodeIPN9pathTrack8PathPartEPvEEEEOT_RNS_16remove_referenceIS9_E4typeE)
                  0001bb9c    00000004     --HOLE-- [fill = 0]
                  0001bba0    0000000c     PathTrackSim.obj (.text:_ZNSt3__27forwardIRPNS_11__list_nodeIfPvEEEEOT_RNS_16remove_referenceIS6_E4typeE)
                  0001bbac    00000004     --HOLE-- [fill = 0]
                  0001bbb0    0000000c     PathGenerator.obj (.text:_ZNSt3__27forwardIiEEOT_RNS_16remove_referenceIS1_E4typeE)
                  0001bbbc    00000004     --HOLE-- [fill = 0]
                  0001bbc0    0000000c     PathGenerator.obj (.text:_ZNSt3__29addressofINS_16__list_node_baseIPN9pathTrack8PathPartEPvEEEEPT_RS7_)
                  0001bbcc    00000004     --HOLE-- [fill = 0]
                  0001bbd0    0000000c     PathTrackSim.obj (.text:_ZNSt3__29addressofINS_16__list_node_baseIfPvEEEEPT_RS4_)
                  0001bbdc    00000004     --HOLE-- [fill = 0]
                  0001bbe0    0000000c     PathGenerator.obj (.text:_ZNSt3__29addressofIPN9pathTrack8PathPartEEEPT_RS4_)
                  0001bbec    00000004     --HOLE-- [fill = 0]
                  0001bbf0    0000000c     PathTrackSim.obj (.text:_ZNSt3__29addressofIfEEPT_RS1_)
                  0001bbfc    00000004     --HOLE-- [fill = 0]
                  0001bc00    0000000c     PathGenerator.obj (.text:_ZNSt3__29allocatorINS_11__list_nodeIPN9pathTrack8PathPartEPvEEEC1Ev)
                  0001bc0c    00000004     --HOLE-- [fill = 0]
                  0001bc10    0000000c     PathGenerator.obj (.text:_ZNSt3__29allocatorINS_11__list_nodeIPN9pathTrack8PathPartEPvEEEC2Ev)
                  0001bc1c    00000004     --HOLE-- [fill = 0]
                  0001bc20    0000000c     PathTrackSim.obj (.text:_ZNSt3__29allocatorINS_11__list_nodeIfPvEEEC1Ev)
                  0001bc2c    00000004     --HOLE-- [fill = 0]
                  0001bc30    0000000c     PathTrackSim.obj (.text:_ZNSt3__29allocatorINS_11__list_nodeIfPvEEEC2Ev)
                  0001bc3c    00000004     --HOLE-- [fill = 0]
                  0001bc40    0000000c     PathGenerator.obj (.text:_ZNSt3__29allocatorIjEC1Ev)
                  0001bc4c    00000004     --HOLE-- [fill = 0]
                  0001bc50    0000000c     PathGenerator.obj (.text:_ZNSt3__29allocatorIjEC2Ev)
                  0001bc5c    00000004     --HOLE-- [fill = 0]
                  0001bc60    0000000c     PathGenerator.obj (.text:_ZNSt3__29allocatorItE7destroyEPt)
                  0001bc6c    00000004     --HOLE-- [fill = 0]
                  0001bc70    0000000c     PathGenerator.obj (.text:_ZNSt3__29allocatorItEC1Ev)
                  0001bc7c    00000004     --HOLE-- [fill = 0]
                  0001bc80    0000000c     PathGenerator.obj (.text:_ZNSt3__29allocatorItEC2Ev)
                  0001bc8c    0000000c     rtsv7M4_T_le_v4SPD16_eabi.lib : new.cpp.obj (.text:_ZSt15get_new_handlerv)
                  0001bc98    0000000c                                   : dtor_list.c.obj (.text:__cxa_finalize)
                  0001bca4    0000000c                                   : guard.c.obj (.text:__cxa_guard_acquire)
                  0001bcb0    0000000c                                   : copy_zero_init.c.obj (.text:decompress:ZI:__TI_zero_init)
                  0001bcbc    00000004     --HOLE-- [fill = 0]
                  0001bcc0    0000000a     CarSim.obj (.text:_ZN5Eigen8internal54copy_using_evaluator_LinearTraversal_CompleteUnrollingINS0_31generic_dense_assignment_kernelINS0_9evaluatorINS_5BlockINS_6MatrixIfLi3ELi4ELi0ELi3ELi4EEELi3ELi1ELb1EEEEENS3_INS5_IfLi3ELi1ELi0ELi3ELi1EEEEENS0_9assign_opIffEELi0EEELi3ELi3EE3runERSD_)
                  0001bcca    00000006     --HOLE-- [fill = 0]
                  0001bcd0    0000000a     PathTrackSim.obj (.text:_ZN5Eigen8internal54copy_using_evaluator_LinearTraversal_CompleteUnrollingINS0_31generic_dense_assignment_kernelINS0_9evaluatorINS_6MatrixIfLi2ELi1ELi0ELi2ELi1EEEEENS3_INS_12CwiseUnaryOpINS0_18scalar_opposite_opIfEEKS5_EEEENS0_9assign_opIffEELi0EEELi2ELi2EE3runERSF_)
                  0001bcda    00000006     --HOLE-- [fill = 0]
                  0001bce0    0000000a     PathGenerator.obj (.text:_ZN5Eigen8internal54copy_using_evaluator_LinearTraversal_CompleteUnrollingINS0_31generic_dense_assignment_kernelINS0_9evaluatorINS_6MatrixIfLi2ELi1ELi0ELi2ELi1EEEEENS3_INS_13CwiseBinaryOpINS0_13scalar_sum_opIffEEKS5_KNS7_INS0_17scalar_product_opIffEEKNS_14CwiseNullaryOpINS0_18scalar_constant_opIfEESA_EEKNS7_INS0_20scalar_difference_opIffEESA_SA_EEEEEEEENS0_9assign_opIffEELi0EEELi2ELi2EE3runERSS_)
                  0001bcea    00000006     --HOLE-- [fill = 0]
                  0001bcf0    0000000a     PathGenerator.obj (.text:_ZN5Eigen8internal54copy_using_evaluator_LinearTraversal_CompleteUnrollingINS0_31generic_dense_assignment_kernelINS0_9evaluatorINS_6MatrixIfLi2ELi1ELi0ELi2ELi1EEEEENS3_INS_13CwiseBinaryOpINS0_13scalar_sum_opIffEEKS5_KNS7_INS0_17scalar_product_opIffEEKNS_14CwiseNullaryOpINS0_18scalar_constant_opIfEESA_EESA_EEEEEENS0_9assign_opIffEELi0EEELi2ELi2EE3runERSO_)
                  0001bcfa    00000006     --HOLE-- [fill = 0]
                  0001bd00    0000000a     PathGenerator.obj (.text:_ZN5Eigen8internal54copy_using_evaluator_LinearTraversal_CompleteUnrollingINS0_31generic_dense_assignment_kernelINS0_9evaluatorINS_6MatrixIfLi2ELi1ELi0ELi2ELi1EEEEENS3_INS_13CwiseBinaryOpINS0_13scalar_sum_opIffEEKS5_SA_EEEENS0_9assign_opIffEELi0EEELi2ELi2EE3runERSF_)
                  0001bd0a    00000006     --HOLE-- [fill = 0]
                  0001bd10    0000000a     PathGenerator.obj (.text:_ZN5Eigen8internal54copy_using_evaluator_LinearTraversal_CompleteUnrollingINS0_31generic_dense_assignment_kernelINS0_9evaluatorINS_6MatrixIfLi2ELi1ELi0ELi2ELi1EEEEENS3_INS_13CwiseBinaryOpINS0_20scalar_difference_opIffEEKS5_SA_EEEENS0_9assign_opIffEELi0EEELi2ELi2EE3runERSF_)
                  0001bd1a    00000006     --HOLE-- [fill = 0]
                  0001bd20    0000000a     PathGenerator.obj (.text:_ZN5Eigen8internal54copy_using_evaluator_LinearTraversal_CompleteUnrollingINS0_31generic_dense_assignment_kernelINS0_9evaluatorINS_6MatrixIfLi2ELi1ELi0ELi2ELi1EEEEENS3_INS_14CwiseNullaryOpINS0_18scalar_constant_opIfEES5_EEEENS0_13mul_assign_opIffEELi0EEELi2ELi2EE3runERSE_)
                  0001bd2a    00000006     --HOLE-- [fill = 0]
                  0001bd30    0000000a     PathGenerator.obj (.text:_ZN5Eigen8internal54copy_using_evaluator_LinearTraversal_CompleteUnrollingINS0_31generic_dense_assignment_kernelINS0_9evaluatorINS_6MatrixIfLi2ELi1ELi0ELi2ELi1EEEEES6_NS0_14swap_assign_opIfEELi0EEELi2ELi2EE3runERS9_)
                  0001bd3a    00000006     --HOLE-- [fill = 0]
                  0001bd40    0000000a     PathGenerator.obj (.text:_ZN5Eigen8internal54copy_using_evaluator_LinearTraversal_CompleteUnrollingINS0_31generic_dense_assignment_kernelINS0_9evaluatorINS_6MatrixIfLi2ELi2ELi0ELi2ELi2EEEEES6_NS0_9assign_opIffEELi0EEELi4ELi4EE3runERS9_)
                  0001bd4a    00000006     --HOLE-- [fill = 0]
                  0001bd50    0000000a     PathTrackSim.obj (.text:_ZN5Eigen8internal54copy_using_evaluator_LinearTraversal_CompleteUnrollingINS0_31generic_dense_assignment_kernelINS0_9evaluatorINS_6MatrixIfLi3ELi1ELi0ELi3ELi1EEEEENS3_INS_13CwiseBinaryOpINS0_13scalar_sum_opIffEEKNS7_INS0_17scalar_product_opIffEEKNS_14CwiseNullaryOpINS0_18scalar_constant_opIfEEKS5_EESF_EESJ_EEEENS0_9assign_opIffEELi0EEELi3ELi3EE3runERSO_)
                  0001bd5a    00000006     --HOLE-- [fill = 0]
                  0001bd60    0000000a     CarSim.obj (.text:_ZN5Eigen8internal54copy_using_evaluator_LinearTraversal_CompleteUnrollingINS0_31generic_dense_assignment_kernelINS0_9evaluatorINS_6MatrixIfLi3ELi1ELi0ELi3ELi1EEEEENS3_INS_13CwiseBinaryOpINS0_13scalar_sum_opIffEEKS5_KNS7_INS0_17scalar_product_opIffEEKNS_14CwiseNullaryOpINS0_18scalar_constant_opIfEESA_EEKNS7_IS9_KNS7_IS9_KNS7_IS9_KNS_5BlockINS4_IfLi3ELi4ELi0ELi3ELi4EEELi3ELi1ELb1EEEKNS7_ISC_SH_SL_EEEESN_EESL_EEEEEEEENS0_9assign_opIffEELi0EEELi3ELi3EE3runERS10_)
                  0001bd6a    00000006     --HOLE-- [fill = 0]
                  0001bd70    0000000a     PathTrackSim.obj (.text:_ZN5Eigen8internal54copy_using_evaluator_LinearTraversal_CompleteUnrollingINS0_31generic_dense_assignment_kernelINS0_9evaluatorINS_6MatrixIfLi3ELi1ELi0ELi3ELi1EEEEENS3_INS_13CwiseBinaryOpINS0_17scalar_product_opIffEEKNS_14CwiseNullaryOpINS0_18scalar_constant_opIfEEKS5_EEKNS7_INS0_13scalar_sum_opIffEEKNS7_ISH_KNS7_ISH_KNS_5BlockINS4_IfLi3ELi4ELi0ELi3ELi4EEELi3ELi1ELb1EEEKNS7_IS9_SF_SL_EEEESN_EESL_EEEEEENS0_13add_assign_opIffEELi0EEELi3ELi3EE3runERSY_)
                  0001bd7a    00000006     --HOLE-- [fill = 0]
                  0001bd80    0000000a     PathTrackSim.obj (.text:_ZN5Eigen8internal54copy_using_evaluator_LinearTraversal_CompleteUnrollingINS0_31generic_dense_assignment_kernelINS0_9evaluatorINS_6MatrixIfLi3ELi1ELi0ELi3ELi1EEEEENS3_INS_13CwiseBinaryOpINS0_17scalar_product_opIffEEKNS_14CwiseNullaryOpINS0_18scalar_constant_opIfEEKS5_EESD_EEEENS0_13add_assign_opIffEELi0EEELi3ELi3EE3runERSK_)
                  0001bd8a    00000006     --HOLE-- [fill = 0]
                  0001bd90    0000000a     Car.obj (.text:_ZN5Eigen8internal54copy_using_evaluator_LinearTraversal_CompleteUnrollingINS0_31generic_dense_assignment_kernelINS0_9evaluatorINS_6MatrixIfLi3ELi1ELi0ELi3ELi1EEEEENS3_INS_3MapIKS5_Li0ENS_6StrideILi0ELi0EEEEEEENS0_9assign_opIffEELi0EEELi3ELi3EE3runERSF_)
                  0001bd9a    00000006     --HOLE-- [fill = 0]
                  0001bda0    0000000a     Car.obj (.text:_ZN5Eigen8internal54copy_using_evaluator_LinearTraversal_CompleteUnrollingINS0_31generic_dense_assignment_kernelINS0_9evaluatorINS_6MatrixIfLi3ELi1ELi0ELi3ELi1EEEEES6_NS0_9assign_opIffEELi0EEELi3ELi3EE3runERS9_)
                  0001bdaa    00000006     --HOLE-- [fill = 0]
                  0001bdb0    0000000a     PathGenerator.obj (.text:_ZNK5Eigen14CwiseNullaryOpINS_8internal18scalar_constant_opIfEEKNS_6MatrixIfLi2ELi1ELi0ELi2ELi1EEEE4colsEv)
                  0001bdba    00000006     --HOLE-- [fill = 0]
                  0001bdc0    0000000a     PathGenerator.obj (.text:_ZNK5Eigen14CwiseNullaryOpINS_8internal18scalar_constant_opIfEEKNS_6MatrixIfLi2ELi1ELi0ELi2ELi1EEEE4rowsEv)
                  0001bdca    00000006     --HOLE-- [fill = 0]
                  0001bdd0    0000000a     CarSim.obj (.text:_ZNK5Eigen14CwiseNullaryOpINS_8internal18scalar_constant_opIfEEKNS_6MatrixIfLi3ELi1ELi0ELi3ELi1EEEE4colsEv)
                  0001bdda    00000006     --HOLE-- [fill = 0]
                  0001bde0    0000000a     CarSim.obj (.text:_ZNK5Eigen14CwiseNullaryOpINS_8internal18scalar_constant_opIfEEKNS_6MatrixIfLi3ELi1ELi0ELi3ELi1EEEE4rowsEv)
                  0001bdea    00000006     --HOLE-- [fill = 0]
                  0001bdf0    0000000a     PathGenerator.obj (.text:_ZNK5Eigen14CwiseNullaryOpINS_8internal18scalar_constant_opIfEENS_6MatrixIfLi2ELi1ELi0ELi2ELi1EEEE4colsEv)
                  0001bdfa    00000006     --HOLE-- [fill = 0]
                  0001be00    0000000a     PathGenerator.obj (.text:_ZNK5Eigen14CwiseNullaryOpINS_8internal18scalar_constant_opIfEENS_6MatrixIfLi2ELi1ELi0ELi2ELi1EEEE4rowsEv)
                  0001be0a    00000006     --HOLE-- [fill = 0]
                  0001be10    0000000a     PathGenerator.obj (.text:_ZNK5Eigen15PlainObjectBaseINS_6MatrixIfLi2ELi1ELi0ELi2ELi1EEEE4colsEv)
                  0001be1a    00000006     --HOLE-- [fill = 0]
                  0001be20    0000000a     PathGenerator.obj (.text:_ZNK5Eigen15PlainObjectBaseINS_6MatrixIfLi2ELi1ELi0ELi2ELi1EEEE4rowsEv)
                  0001be2a    00000006     --HOLE-- [fill = 0]
                  0001be30    0000000a     PathGenerator.obj (.text:_ZNK5Eigen15PlainObjectBaseINS_6MatrixIfLi2ELi2ELi0ELi2ELi2EEEE4colsEv)
                  0001be3a    00000006     --HOLE-- [fill = 0]
                  0001be40    0000000a     PathGenerator.obj (.text:_ZNK5Eigen15PlainObjectBaseINS_6MatrixIfLi2ELi2ELi0ELi2ELi2EEEE4rowsEv)
                  0001be4a    00000006     --HOLE-- [fill = 0]
                  0001be50    0000000a     Car.obj (.text:_ZNK5Eigen15PlainObjectBaseINS_6MatrixIfLi3ELi1ELi0ELi3ELi1EEEE4colsEv)
                  0001be5a    00000006     --HOLE-- [fill = 0]
                  0001be60    0000000a     Car.obj (.text:_ZNK5Eigen15PlainObjectBaseINS_6MatrixIfLi3ELi1ELi0ELi3ELi1EEEE4rowsEv)
                  0001be6a    00000006     --HOLE-- [fill = 0]
                  0001be70    0000000a     CarSim.obj (.text:_ZNK5Eigen15PlainObjectBaseINS_6MatrixIfLi3ELi4ELi0ELi3ELi4EEEE4colsEv)
                  0001be7a    00000006     --HOLE-- [fill = 0]
                  0001be80    0000000a     CarSim.obj (.text:_ZNK5Eigen15PlainObjectBaseINS_6MatrixIfLi3ELi4ELi0ELi3ELi4EEEE4rowsEv)
                  0001be8a    00000006     --HOLE-- [fill = 0]
                  0001be90    0000000a     Car.obj (.text:_ZNK5Eigen6StrideILi0ELi0EE5innerEv)
                  0001be9a    00000006     --HOLE-- [fill = 0]
                  0001bea0    0000000a     Car.obj (.text:_ZNK5Eigen6StrideILi0ELi0EE5outerEv)
                  0001beaa    00000006     --HOLE-- [fill = 0]
                  0001beb0    0000000a     Car.obj (.text:_ZNK5Eigen7MapBaseINS_3MapIKNS_6MatrixIfLi3ELi1ELi0ELi3ELi1EEELi0ENS_6StrideILi0ELi0EEEEELi0EE4colsEv)
                  0001beba    00000006     --HOLE-- [fill = 0]
                  0001bec0    0000000a     Car.obj (.text:_ZNK5Eigen7MapBaseINS_3MapIKNS_6MatrixIfLi3ELi1ELi0ELi3ELi1EEELi0ENS_6StrideILi0ELi0EEEEELi0EE4rowsEv)
                  0001beca    00000006     --HOLE-- [fill = 0]
                  0001bed0    0000000a     CarSim.obj (.text:_ZNK5Eigen7MapBaseINS_5BlockINS_6MatrixIfLi3ELi4ELi0ELi3ELi4EEELi3ELi1ELb1EEELi0EE4colsEv)
                  0001beda    00000006     --HOLE-- [fill = 0]
                  0001bee0    0000000a     CarSim.obj (.text:_ZNK5Eigen7MapBaseINS_5BlockINS_6MatrixIfLi3ELi4ELi0ELi3ELi4EEELi3ELi1ELb1EEELi0EE4rowsEv)
                  0001beea    00000006     --HOLE-- [fill = 0]
                  0001bef0    0000000a     PathGenerator.obj (.text:_ZNK5Eigen8internal17mapbase_evaluatorINS_5BlockINS_6MatrixIfLi2ELi2ELi0ELi2ELi2EEELin1ELin1ELb0EEENS3_IfLin1ELin1ELi0ELi2ELi2EEEE9colStrideEv)
                  0001befa    00000006     --HOLE-- [fill = 0]
                  0001bf00    0000000a     PathGenerator.obj (.text:_ZNK5Eigen8internal17mapbase_evaluatorINS_5BlockINS_6MatrixIfLi2ELi2ELi0ELi2ELi2EEELin1ELin1ELb0EEENS3_IfLin1ELin1ELi0ELi2ELi2EEEE9rowStrideEv)
                  0001bf0a    00000006     --HOLE-- [fill = 0]
                  0001bf10    0000000a     PathGenerator.obj (.text:_ZNSt3__210__list_impIPN9pathTrack8PathPartENS_9allocatorIS3_EEE26__invalidate_all_iteratorsEv)
                  0001bf1a    00000006     --HOLE-- [fill = 0]
                  0001bf20    0000000a     PathTrackSim.obj (.text:_ZNSt3__210__list_impIfNS_9allocatorIfEEE26__invalidate_all_iteratorsEv)
                  0001bf2a    00000006     --HOLE-- [fill = 0]
                  0001bf30    0000000a     PathGenerator.obj (.text:_ZNSt3__220__throw_length_errorEPKc)
                  0001bf3a    00000006     --HOLE-- [fill = 0]
                  0001bf40    0000000a     PathGenerator.obj (.text:_ZNSt3__26vectorIbNS_9allocatorIbEEE26__invalidate_all_iteratorsEv)
                  0001bf4a    00000006     --HOLE-- [fill = 0]
                  0001bf50    0000000a     PathGenerator.obj (.text:_ZNSt3__26vectorItNS_9allocatorItEEE24__RAII_IncreaseAnnotator6__doneEv)
                  0001bf5a    00000006     --HOLE-- [fill = 0]
                  0001bf60    0000000a     PathGenerator.obj (.text:_ZNSt3__26vectorItNS_9allocatorItEEE26__invalidate_all_iteratorsEv)
                  0001bf6a    0000000a     rtsv7M4_T_le_v4SPD16_eabi.lib : guard.c.obj (.text:__cxa_guard_release)
                  0001bf74    0000000a                                   : sprintf.c.obj (.text:_outc)
                  0001bf7e    00000008                                   : new.cpp.obj (.text:_ZdlPv)
                  0001bf86    00000002     --HOLE-- [fill = 0]
                  0001bf88    00000008                                   : errno.c.obj (.text:__aeabi_errno_addr)
                  0001bf90    00000008                                   : memory.c.obj (.text:malloc)
                  0001bf98    00000004     CarSim.obj (.text:_ZN5Eigen12DenseStorageIfLi12ELi3ELi4ELi0EE4colsEv)
                  0001bf9c    00000004     --HOLE-- [fill = 0]
                  0001bfa0    00000004     CarSim.obj (.text:_ZN5Eigen12DenseStorageIfLi12ELi3ELi4ELi0EE4rowsEv)
                  0001bfa4    00000004     --HOLE-- [fill = 0]
                  0001bfa8    00000004     PathGenerator.obj (.text:_ZN5Eigen12DenseStorageIfLi2ELi2ELi1ELi0EE4colsEv)
                  0001bfac    00000004     --HOLE-- [fill = 0]
                  0001bfb0    00000004     PathGenerator.obj (.text:_ZN5Eigen12DenseStorageIfLi2ELi2ELi1ELi0EE4rowsEv)
                  0001bfb4    00000004     --HOLE-- [fill = 0]
                  0001bfb8    00000004     Car.obj (.text:_ZN5Eigen12DenseStorageIfLi3ELi3ELi1ELi0EE4colsEv)
                  0001bfbc    00000004     --HOLE-- [fill = 0]
                  0001bfc0    00000004     Car.obj (.text:_ZN5Eigen12DenseStorageIfLi3ELi3ELi1ELi0EE4rowsEv)
                  0001bfc4    00000004     --HOLE-- [fill = 0]
                  0001bfc8    00000004     PathGenerator.obj (.text:_ZN5Eigen12DenseStorageIfLi4ELi2ELi2ELi0EE4colsEv)
                  0001bfcc    00000004     --HOLE-- [fill = 0]
                  0001bfd0    00000004     PathGenerator.obj (.text:_ZN5Eigen12DenseStorageIfLi4ELi2ELi2ELi0EE4rowsEv)
                  0001bfd4    00000004     --HOLE-- [fill = 0]
                  0001bfd8    00000004     Car.obj (.text:_ZN5Eigen8internal19variable_if_dynamicIiLi0EE5valueEv)
                  0001bfdc    00000004     --HOLE-- [fill = 0]
                  0001bfe0    00000004     Car.obj (.text:_ZN5Eigen8internal19variable_if_dynamicIiLi1EE5valueEv)
                  0001bfe4    00000004     --HOLE-- [fill = 0]
                  0001bfe8    00000004     PathGenerator.obj (.text:_ZN5Eigen8internal19variable_if_dynamicIiLi2EE5valueEv)
                  0001bfec    00000004     --HOLE-- [fill = 0]
                  0001bff0    00000004     Car.obj (.text:_ZN5Eigen8internal19variable_if_dynamicIiLi3EE5valueEv)
                  0001bff4    00000004     --HOLE-- [fill = 0]
                  0001bff8    00000002     Task.obj (.text:_ZN5Eigen15PlainObjectBaseINS_6MatrixIfLi2ELi1ELi0ELi2ELi1EEEE22_check_template_paramsEv)
                  0001bffa    00000006     --HOLE-- [fill = 0]
                  0001c000    00000002     PathGenerator.obj (.text:_ZN5Eigen15PlainObjectBaseINS_6MatrixIfLi2ELi2ELi0ELi2ELi2EEEE22_check_template_paramsEv)
                  0001c002    00000006     --HOLE-- [fill = 0]
                  0001c008    00000002     Car.obj (.text:_ZN5Eigen15PlainObjectBaseINS_6MatrixIfLi3ELi1ELi0ELi3ELi1EEEE22_check_template_paramsEv)
                  0001c00a    00000006     --HOLE-- [fill = 0]
                  0001c010    00000002     CarSim.obj (.text:_ZN5Eigen15PlainObjectBaseINS_6MatrixIfLi3ELi4ELi0ELi3ELi4EEEE22_check_template_paramsEv)
                  0001c012    00000006     --HOLE-- [fill = 0]
                  0001c018    00000002     CarSim.obj (.text:_ZN5Eigen8internal28check_static_allocation_sizeIfLi12EEEvv)
                  0001c01a    00000006     --HOLE-- [fill = 0]
                  0001c020    00000002     Task.obj (.text:_ZN5Eigen8internal28check_static_allocation_sizeIfLi2EEEvv)
                  0001c022    00000006     --HOLE-- [fill = 0]
                  0001c028    00000002     Car.obj (.text:_ZN5Eigen8internal28check_static_allocation_sizeIfLi3EEEvv)
                  0001c02a    00000006     --HOLE-- [fill = 0]
                  0001c030    00000002     PathGenerator.obj (.text:_ZN5Eigen8internal28check_static_allocation_sizeIfLi4EEEvv)
                  0001c032    00000006     --HOLE-- [fill = 0]
                  0001c038    00000002     PathTrackSim.obj (.text:_ZN5Eigen8internal28check_that_malloc_is_allowedEv)

.const     0    0001c040    00007099     
                  0001c040    00002000     PathGenerator.obj (.const:$P$T448$1)
                  0001e040    00000d5c     MyOledFont.obj (.const:asc2_2412)
                  0001ed9c    000005f0     MyOledFont.obj (.const:asc2_1608)
                  0001f38c    00000474     MyOledFont.obj (.const:asc2_1206)
                  0001f800    000001f1     PathGenerator.obj (.const:.string:_ZZN5Eigen15PlainObjectBaseINS_6MatrixIfLi2ELi1ELi0ELi2ELi1EEEE6resizeEiiEs_0)
                  0001f9f1    000001f1     PathGenerator.obj (.const:.string:_ZZN5Eigen15PlainObjectBaseINS_6MatrixIfLi2ELi2ELi0ELi2ELi2EEEE6resizeEiiEs_0)
                  0001fbe2    000001f1     Car.obj (.const:.string:_ZZN5Eigen15PlainObjectBaseINS_6MatrixIfLi3ELi1ELi0ELi3ELi1EEEE6resizeEiiEs_0)
                  0001fdd3    0000016f     PathGenerator.obj (.const:.string:_ZZN5Eigen8internal27checkTransposeAliasing_implINS_5BlockINS_6MatrixIfLi2ELi2ELi0ELi2ELi2EEELin1ELin1ELb0EEENS_9TransposeINS3_IfLi2ELi1ELi0ELi2ELi1EEEEELb1EE3runERKS5_RKS8_Es_0)
                  0001ff42    00000002     --HOLE-- [fill = 0]
                  0001ff44    00000004     Encoder.obj (.const)
                  0001ff48    00000158     rtsv7M4_T_le_v4SPD16_eabi.lib : k_rem_pio2.c.obj (.const:$O1$$)
                  000200a0    00000105     PathGenerator.obj (.const:.string:_ZZN5Eigen8internal15block_evaluatorINS_6MatrixIfLi2ELi2ELi0ELi2ELi2EEELin1ELin1ELb0ELb1EEC1ERKNS_5BlockIS3_Lin1ELin1ELb0EEEEs_0)
                  000201a5    00000105     CarSim.obj (.const:.string:_ZZN5Eigen8internal15block_evaluatorINS_6MatrixIfLi3ELi4ELi0ELi3ELi4EEELi3ELi1ELb1ELb1EEC1ERKNS_5BlockIS3_Li3ELi1ELb1EEEEs_0)
                  000202aa    00000104     PathGenerator.obj (.const:.string:_ZZN5Eigen7MapBaseINS_5BlockINS_6MatrixIfLi2ELi2ELi0ELi2ELi2EEELin1ELin1ELb0EEELi0EEC1EPfiiEs)
                  000203ae    00000104     CarSim.obj (.const:.string:_ZZN5Eigen7MapBaseINS_5BlockINS_6MatrixIfLi3ELi4ELi0ELi3ELi4EEELi3ELi1ELb1EEELi0EEC1EPfiiEs)
                  000204b2    00000101     rtsv7M4_T_le_v4SPD16_eabi.lib : ctype.c.obj (.const:.string:_ctypes_)
                  000205b3    000000ff     CarSim.obj (.const:.string:_ZZN5Eigen5BlockINS_6MatrixIfLi3ELi4ELi0ELi3ELi4EEELi3ELi1ELb1EEC1ERS2_iEs)
                  000206b2    000000f5     PathGenerator.obj (.const:.string:_ZZN5Eigen14CwiseNullaryOpINS_8internal18scalar_constant_opIfEEKNS_6MatrixIfLi2ELi1ELi0ELi2ELi1EEEEC1EiiRKS3_Es)
                  000207a7    000000f5     CarSim.obj (.const:.string:_ZZN5Eigen14CwiseNullaryOpINS_8internal18scalar_constant_opIfEEKNS_6MatrixIfLi3ELi1ELi0ELi3ELi1EEEEC1EiiRKS3_Es)
                  0002089c    000000f5     PathGenerator.obj (.const:.string:_ZZN5Eigen14CwiseNullaryOpINS_8internal18scalar_constant_opIfEENS_6MatrixIfLi2ELi1ELi0ELi2ELi1EEEEC1EiiRKS3_Es)
                  00020991    000000e7     PathGenerator.obj (.const:.string:_ZZN5Eigen5BlockINS_6MatrixIfLi2ELi2ELi0ELi2ELi2EEELin1ELin1ELb0EEC1ERS2_iiiiEs_0)
                  00020a78    000000c5     PathGenerator.obj (.const:.string:_ZZN5Eigen9DenseBaseINS_5BlockINS_6MatrixIfLi2ELi2ELi0ELi2ELi2EEELin1ELin1ELb0EEEE6resizeEiiEs_0)
                  00020b3d    000000c5     CarSim.obj (.const:.string:_ZZN5Eigen9DenseBaseINS_5BlockINS_6MatrixIfLi3ELi4ELi0ELi3ELi4EEELi3ELi1ELb1EEEE6resizeEiiEs_0)
                  00020c02    0000009c     PathGenerator.obj (.const:.string:_ZZNK5Eigen9DenseBaseINS_12CwiseUnaryOpINS_8internal14scalar_abs2_opIfEEKNS_13CwiseBinaryOpINS2_20scalar_difference_opIffEEKNS_6MatrixIfLi2ELi1ELi0ELi2ELi1EEESA_EEEEE5reduxINS2_13scalar_sum_opIffEEEEfRKT_Es_0)
                  00020c9e    0000009c     PathGenerator.obj (.const:.string:_ZZNK5Eigen9DenseBaseINS_12CwiseUnaryOpINS_8internal14scalar_abs2_opIfEEKNS_6MatrixIfLi2ELi1ELi0ELi2ELi1EEEEEE5reduxINS2_13scalar_sum_opIffEEEEfRKT_Es_0)
                  00020d3a    0000009c     PathTrackSim.obj (.const:.string:_ZZNK5Eigen9DenseBaseINS_12CwiseUnaryOpINS_8internal14scalar_abs2_opIfEEKNS_6MatrixIfLi3ELi1ELi0ELi3ELi1EEEEEE5reduxINS2_13scalar_sum_opIffEEEEfRKT_Es_0)
                  00020dd6    0000009c     PathGenerator.obj (.const:.string:_ZZNK5Eigen9DenseBaseINS_13CwiseBinaryOpINS_8internal22scalar_conj_product_opIffEEKNS_6MatrixIfLi2ELi1ELi0ELi2ELi1EEES7_EEE5reduxINS2_13scalar_sum_opIffEEEEfRKT_Es_0)
                  00020e72    0000009c     PathTrackSim.obj (.const:.string:_ZZNK5Eigen9DenseBaseINS_13CwiseBinaryOpINS_8internal22scalar_conj_product_opIffEEKNS_6MatrixIfLi3ELi1ELi0ELi3ELi1EEES7_EEE5reduxINS2_13scalar_sum_opIffEEEEfRKT_Es_0)
                  00020f0e    00000099     PathTrackSim.obj (.const:.string:_ZZN5Eigen13CwiseBinaryOpINS_8internal13scalar_sum_opIffEEKNS0_INS1_17scalar_product_opIffEEKNS_14CwiseNullaryOpINS1_18scalar_constant_opIfEEKNS_6MatrixIfLi3ELi1ELi0ELi3ELi1EEEEESB_EESF_EC1ERSF_SH_RKS3_Es_1)
                  00020fa7    00000099     CarSim.obj (.const:.string:_ZZN5Eigen13CwiseBinaryOpINS_8internal13scalar_sum_opIffEEKNS0_IS3_KNS0_IS3_KNS_5BlockINS_6MatrixIfLi3ELi4ELi0ELi3ELi4EEELi3ELi1ELb1EEEKNS0_INS1_17scalar_product_opIffEEKNS_14CwiseNullaryOpINS1_18scalar_constant_opIfEEKNS5_IfLi3ELi1ELi0ELi3ELi1EEEEES8_EEEESJ_EES8_EC1ERSN_RS8_RKS3_Es_1)
                  00021040    00000099     CarSim.obj (.const:.string:_ZZN5Eigen13CwiseBinaryOpINS_8internal13scalar_sum_opIffEEKNS0_IS3_KNS_5BlockINS_6MatrixIfLi3ELi4ELi0ELi3ELi4EEELi3ELi1ELb1EEEKNS0_INS1_17scalar_product_opIffEEKNS_14CwiseNullaryOpINS1_18scalar_constant_opIfEEKNS5_IfLi3ELi1ELi0ELi3ELi1EEEEES8_EEEESJ_EC1ERSL_RSJ_RKS3_Es_1)
                  000210d9    00000099     CarSim.obj (.const:.string:_ZZN5Eigen13CwiseBinaryOpINS_8internal13scalar_sum_opIffEEKNS_5BlockINS_6MatrixIfLi3ELi4ELi0ELi3ELi4EEELi3ELi1ELb1EEEKNS0_INS1_17scalar_product_opIffEEKNS_14CwiseNullaryOpINS1_18scalar_constant_opIfEEKNS5_IfLi3ELi1ELi0ELi3ELi1EEEEES8_EEEC1ERS8_RSJ_RKS3_Es_1)
                  00021172    00000099     PathGenerator.obj (.const:.string:_ZZN5Eigen13CwiseBinaryOpINS_8internal13scalar_sum_opIffEEKNS_6MatrixIfLi2ELi1ELi0ELi2ELi1EEEKNS0_INS1_17scalar_product_opIffEEKNS_14CwiseNullaryOpINS1_18scalar_constant_opIfEES6_EEKNS0_INS1_20scalar_difference_opIffEES6_S6_EEEEEC1ERS6_RSJ_RKS3_Es_1)
                  0002120b    00000099     PathGenerator.obj (.const:.string:_ZZN5Eigen13CwiseBinaryOpINS_8internal13scalar_sum_opIffEEKNS_6MatrixIfLi2ELi1ELi0ELi2ELi1EEEKNS0_INS1_17scalar_product_opIffEEKNS_14CwiseNullaryOpINS1_18scalar_constant_opIfEES6_EES6_EEEC1ERS6_RSF_RKS3_Es_1)
                  000212a4    00000099     PathGenerator.obj (.const:.string:_ZZN5Eigen13CwiseBinaryOpINS_8internal13scalar_sum_opIffEEKNS_6MatrixIfLi2ELi1ELi0ELi2ELi1EEES6_EC1ERS6_S8_RKS3_Es_1)
                  0002133d    00000099     CarSim.obj (.const:.string:_ZZN5Eigen13CwiseBinaryOpINS_8internal13scalar_sum_opIffEEKNS_6MatrixIfLi3ELi1ELi0ELi3ELi1EEEKNS0_INS1_17scalar_product_opIffEEKNS_14CwiseNullaryOpINS1_18scalar_constant_opIfEES6_EEKNS0_IS3_KNS0_IS3_KNS0_IS3_KNS_5BlockINS4_IfLi3ELi4ELi0ELi3ELi4EEELi3ELi1ELb1EEEKNS0_IS8_SD_SH_EEEESJ_EESH_EEEEEC1ERS6_RSR_RKS3_Es_1)
                  000213d6    00000099     PathGenerator.obj (.const:.string:_ZZN5Eigen13CwiseBinaryOpINS_8internal17scalar_product_opIffEEKNS_14CwiseNullaryOpINS1_18scalar_constant_opIfEEKNS_6MatrixIfLi2ELi1ELi0ELi2ELi1EEEEEKNS0_INS1_20scalar_difference_opIffEES9_S9_EEEC1ERSB_RSF_RKS3_Es_1)
                  0002146f    00000099     PathGenerator.obj (.const:.string:_ZZN5Eigen13CwiseBinaryOpINS_8internal17scalar_product_opIffEEKNS_14CwiseNullaryOpINS1_18scalar_constant_opIfEEKNS_6MatrixIfLi2ELi1ELi0ELi2ELi1EEEEES9_EC1ERSB_RS9_RKS3_Es_1)
                  00021508    00000099     CarSim.obj (.const:.string:_ZZN5Eigen13CwiseBinaryOpINS_8internal17scalar_product_opIffEEKNS_14CwiseNullaryOpINS1_18scalar_constant_opIfEEKNS_6MatrixIfLi3ELi1ELi0ELi3ELi1EEEEEKNS0_INS1_13scalar_sum_opIffEEKNS0_ISD_KNS0_ISD_KNS_5BlockINS7_IfLi3ELi4ELi0ELi3ELi4EEELi3ELi1ELb1EEEKNS0_IS3_SB_SH_EEEESJ_EESH_EEEC1ERSB_RSP_RKS3_Es_1)
                  000215a1    00000099     CarSim.obj (.const:.string:_ZZN5Eigen13CwiseBinaryOpINS_8internal17scalar_product_opIffEEKNS_14CwiseNullaryOpINS1_18scalar_constant_opIfEEKNS_6MatrixIfLi3ELi1ELi0ELi3ELi1EEEEEKNS_5BlockINS7_IfLi3ELi4ELi0ELi3ELi4EEELi3ELi1ELb1EEEEC1ERSB_RSF_RKS3_Es_1)
                  0002163a    00000099     PathTrackSim.obj (.const:.string:_ZZN5Eigen13CwiseBinaryOpINS_8internal17scalar_product_opIffEEKNS_14CwiseNullaryOpINS1_18scalar_constant_opIfEEKNS_6MatrixIfLi3ELi1ELi0ELi3ELi1EEEEES9_EC1ERSB_RS9_RKS3_Es_1)
                  000216d3    00000099     PathGenerator.obj (.const:.string:_ZZN5Eigen13CwiseBinaryOpINS_8internal20scalar_difference_opIffEEKNS_6MatrixIfLi2ELi1ELi0ELi2ELi1EEES6_EC1ERS6_S8_RKS3_Es_1)
                  0002176c    00000099     PathGenerator.obj (.const:.string:_ZZN5Eigen13CwiseBinaryOpINS_8internal22scalar_conj_product_opIffEEKNS_6MatrixIfLi2ELi1ELi0ELi2ELi1EEES6_EC1ERS6_S8_RKS3_Es_1)
                  00021805    00000099     PathTrackSim.obj (.const:.string:_ZZN5Eigen13CwiseBinaryOpINS_8internal22scalar_conj_product_opIffEEKNS_6MatrixIfLi3ELi1ELi0ELi3ELi1EEES6_EC1ERS6_S8_RKS3_Es_1)
                  0002189e    00000097     CarSim.obj (.const:.string:_ZZN5Eigen15DenseCoeffsBaseINS_6MatrixIfLi3ELi4ELi0ELi3ELi4EEELi1EEclEiiEs)
                  00021935    00000097     PathGenerator.obj (.const:.string:_ZZN5Eigen8internal17resize_if_allowedINS_6MatrixIfLi2ELi1ELi0ELi2ELi1EEENS_14CwiseNullaryOpINS0_18scalar_constant_opIfEES3_EENS0_13mul_assign_opIffEEEEvRT_RKT0_RKT1_Es)
                  000219cc    00000097     PathGenerator.obj (.const:.string:_ZZN5Eigen8internal17resize_if_allowedINS_6MatrixIfLi2ELi1ELi0ELi2ELi1EEES3_NS0_14swap_assign_opIfEEEEvRT_RKT0_RKT1_Es)
                  00021a63    00000097     PathTrackSim.obj (.const:.string:_ZZN5Eigen8internal17resize_if_allowedINS_6MatrixIfLi3ELi1ELi0ELi3ELi1EEENS_13CwiseBinaryOpINS0_17scalar_product_opIffEEKNS_14CwiseNullaryOpINS0_18scalar_constant_opIfEEKS3_EEKNS4_INS0_13scalar_sum_opIffEEKNS4_ISE_KNS4_ISE_KNS_5BlockINS2_IfLi3ELi4ELi0ELi3ELi4EEELi3ELi1ELb1EEEKNS4_IS6_SC_SI_EEEESK_EESI_EEEENS0_13add_assign_opIffEEEEvRT_RKT0_RKT1_Es)
                  00021afa    00000097     PathTrackSim.obj (.const:.string:_ZZN5Eigen8internal17resize_if_allowedINS_6MatrixIfLi3ELi1ELi0ELi3ELi1EEENS_13CwiseBinaryOpINS0_17scalar_product_opIffEEKNS_14CwiseNullaryOpINS0_18scalar_constant_opIfEEKS3_EESA_EENS0_13add_assign_opIffEEEEvRT_RKT0_RKT1_Es)
                  00021b91    00000091     PathGenerator.obj (.const:.string:_ZZN5Eigen8internal17resize_if_allowedINS_5BlockINS_6MatrixIfLi2ELi2ELi0ELi2ELi2EEELin1ELin1ELb0EEENS3_IfLi2ELi1ELi0ELi2ELi1EEEffEEvRT_RKT0_RKNS0_9assign_opIT1_T2_EEEs)
                  00021c22    00000091     PathGenerator.obj (.const:.string:_ZZN5Eigen8internal17resize_if_allowedINS_5BlockINS_6MatrixIfLi2ELi2ELi0ELi2ELi2EEELin1ELin1ELb0EEENS_9TransposeINS3_IfLi2ELi1ELi0ELi2ELi1EEEEEffEEvRT_RKT0_RKNS0_9assign_opIT1_T2_EEEs)
                  00021cb3    00000091     CarSim.obj (.const:.string:_ZZN5Eigen8internal17resize_if_allowedINS_5BlockINS_6MatrixIfLi3ELi4ELi0ELi3ELi4EEELi3ELi1ELb1EEENS3_IfLi3ELi1ELi0ELi3ELi1EEEffEEvRT_RKT0_RKNS0_9assign_opIT1_T2_EEEs)
                  00021d44    00000091     PathTrackSim.obj (.const:.string:_ZZN5Eigen8internal17resize_if_allowedINS_6MatrixIfLi2ELi1ELi0ELi2ELi1EEENS_12CwiseUnaryOpINS0_18scalar_opposite_opIfEEKS3_EEffEEvRT_RKT0_RKNS0_9assign_opIT1_T2_EEEs)
                  00021dd5    00000091     PathGenerator.obj (.const:.string:_ZZN5Eigen8internal17resize_if_allowedINS_6MatrixIfLi2ELi1ELi0ELi2ELi1EEENS_13CwiseBinaryOpINS0_13scalar_sum_opIffEEKS3_KNS4_INS0_17scalar_product_opIffEEKNS_14CwiseNullaryOpINS0_18scalar_constant_opIfEES7_EEKNS4_INS0_20scalar_difference_opIffEES7_S7_EEEEEEffEEvRT_RKT0_RKNS0_9assign_opIT1_T2_EEEs)
                  00021e66    00000091     PathGenerator.obj (.const:.string:_ZZN5Eigen8internal17resize_if_allowedINS_6MatrixIfLi2ELi1ELi0ELi2ELi1EEENS_13CwiseBinaryOpINS0_13scalar_sum_opIffEEKS3_KNS4_INS0_17scalar_product_opIffEEKNS_14CwiseNullaryOpINS0_18scalar_constant_opIfEES7_EES7_EEEEffEEvRT_RKT0_RKNS0_9assign_opIT1_T2_EEEs)
                  00021ef7    00000091     PathGenerator.obj (.const:.string:_ZZN5Eigen8internal17resize_if_allowedINS_6MatrixIfLi2ELi1ELi0ELi2ELi1EEENS_13CwiseBinaryOpINS0_13scalar_sum_opIffEEKS3_S7_EEffEEvRT_RKT0_RKNS0_9assign_opIT1_T2_EEEs)
                  00021f88    00000091     PathGenerator.obj (.const:.string:_ZZN5Eigen8internal17resize_if_allowedINS_6MatrixIfLi2ELi1ELi0ELi2ELi1EEENS_13CwiseBinaryOpINS0_20scalar_difference_opIffEEKS3_S7_EEffEEvRT_RKT0_RKNS0_9assign_opIT1_T2_EEEs)
                  00022019    00000091     PathGenerator.obj (.const:.string:_ZZN5Eigen8internal17resize_if_allowedINS_6MatrixIfLi2ELi2ELi0ELi2ELi2EEES3_ffEEvRT_RKT0_RKNS0_9assign_opIT1_T2_EEEs)
                  000220aa    00000091     PathTrackSim.obj (.const:.string:_ZZN5Eigen8internal17resize_if_allowedINS_6MatrixIfLi3ELi1ELi0ELi3ELi1EEENS_13CwiseBinaryOpINS0_13scalar_sum_opIffEEKNS4_INS0_17scalar_product_opIffEEKNS_14CwiseNullaryOpINS0_18scalar_constant_opIfEEKS3_EESC_EESG_EEffEEvRT_RKT0_RKNS0_9assign_opIT1_T2_EEEs)
                  0002213b    00000091     CarSim.obj (.const:.string:_ZZN5Eigen8internal17resize_if_allowedINS_6MatrixIfLi3ELi1ELi0ELi3ELi1EEENS_13CwiseBinaryOpINS0_13scalar_sum_opIffEEKS3_KNS4_INS0_17scalar_product_opIffEEKNS_14CwiseNullaryOpINS0_18scalar_constant_opIfEES7_EEKNS4_IS6_KNS4_IS6_KNS4_IS6_KNS_5BlockINS2_IfLi3ELi4ELi0ELi3ELi4EEELi3ELi1ELb1EEEKNS4_IS9_SE_SI_EEEESK_EESI_EEEEEEffEEvRT_RKT0_RKNS0_9assign_opIT1_T2_EEEs)
                  000221cc    00000091     Car.obj (.const:.string:_ZZN5Eigen8internal17resize_if_allowedINS_6MatrixIfLi3ELi1ELi0ELi3ELi1EEENS_3MapIKS3_Li0ENS_6StrideILi0ELi0EEEEEffEEvRT_RKT0_RKNS0_9assign_opIT1_T2_EEEs)
                  0002225d    00000091     Car.obj (.const:.string:_ZZN5Eigen8internal17resize_if_allowedINS_6MatrixIfLi3ELi1ELi0ELi3ELi1EEES3_ffEEvRT_RKT0_RKNS0_9assign_opIT1_T2_EEEs)
                  000222ee    00000089     PathGenerator.obj (.const:.string:_ZZN5Eigen15PlainObjectBaseINS_6MatrixIfLi2ELi1ELi0ELi2ELi1EEEE10resizeLikeINS_13CwiseBinaryOpINS_8internal13scalar_sum_opIffEEKS2_KNS5_INS6_17scalar_product_opIffEEKNS_14CwiseNullaryOpINS6_18scalar_constant_opIfEES9_EEKNS5_INS6_20scalar_difference_opIffEES9_S9_EEEEEEEEvRKNS_9EigenBaseIT_EEEs_0)
                  00022377    00000089     PathGenerator.obj (.const:.string:_ZZN5Eigen15PlainObjectBaseINS_6MatrixIfLi2ELi1ELi0ELi2ELi1EEEE10resizeLikeINS_13CwiseBinaryOpINS_8internal13scalar_sum_opIffEEKS2_KNS5_INS6_17scalar_product_opIffEEKNS_14CwiseNullaryOpINS6_18scalar_constant_opIfEES9_EES9_EEEEEEvRKNS_9EigenBaseIT_EEEs_0)
                  00022400    00000089     PathGenerator.obj (.const:.string:_ZZN5Eigen15PlainObjectBaseINS_6MatrixIfLi2ELi1ELi0ELi2ELi1EEEE10resizeLikeINS_13CwiseBinaryOpINS_8internal20scalar_difference_opIffEEKS2_S9_EEEEvRKNS_9EigenBaseIT_EEEs_0)
                  00022489    00000089     PathGenerator.obj (.const:.string:_ZZN5Eigen9DenseBaseINS_6MatrixIfLi2ELi1ELi0ELi2ELi1EEEE4swapIS2_EEvRNS_15PlainObjectBaseIT_EEEs)
                  00022512    00000003     my_uart.obj (.const:.string:$P$T3$7)
                  00022515    00000003     --HOLE-- [fill = 0]
                  00022518    00000080     rtsv7M4_T_le_v4SPD16_eabi.lib : k_tan.c.obj (.const:xxx)
                  00022598    0000007f     PathGenerator.obj (.const:.string:_ZZN5Eigen15DenseCoeffsBaseINS_6MatrixIfLi2ELi1ELi0ELi2ELi1EEELi1EEixEiEs_0)
                  00022617    0000007f     Task.obj (.const:.string:_ZZN5Eigen15DenseCoeffsBaseINS_6MatrixIfLi3ELi1ELi0ELi3ELi1EEELi1EEixEiEs_0)
                  00022696    0000006f     Car.obj (.const:.string:_ZZN5Eigen8internal19variable_if_dynamicIiLi0EEC1EiEs)
                  00022705    0000006f     Car.obj (.const:.string:_ZZN5Eigen8internal19variable_if_dynamicIiLi1EEC1EiEs)
                  00022774    0000006f     PathGenerator.obj (.const:.string:_ZZN5Eigen8internal19variable_if_dynamicIiLi2EEC1EiEs)
                  000227e3    0000006f     Car.obj (.const:.string:_ZZN5Eigen8internal19variable_if_dynamicIiLi3EEC1EiEs)
                  00022852    0000006c     PathGenerator.obj (.const:.string:_ZZNK5Eigen10MatrixBaseINS_6MatrixIfLi2ELi1ELi0ELi2ELi1EEEE3dotIS2_EENS_20ScalarBinaryOpTraitsIfNS_8internal6traitsIT_E6ScalarENS6_17scalar_product_opIfSA_EEE10ReturnTypeERKNS0_IS8_EEEs_2)
                  000228be    0000006c     PathGenerator.obj (.const:.string:_ZZNK5Eigen10MatrixBaseINS_6MatrixIfLi2ELi2ELi0ELi2ELi2EEEE11determinantEvEs)
                  0002292a    0000006c     PathTrackSim.obj (.const:.string:_ZZNK5Eigen10MatrixBaseINS_6MatrixIfLi3ELi1ELi0ELi3ELi1EEEE3dotIS2_EENS_20ScalarBinaryOpTraitsIfNS_8internal6traitsIT_E6ScalarENS6_17scalar_product_opIfSA_EEE10ReturnTypeERKNS0_IS8_EEEs_2)
                  00022996    00000044     PathGenerator.obj (.const:.string:_ZZNSt3__29allocatorINS_11__list_nodeIPN9pathTrack8PathPartEPvEEE8allocateEjPKvEs)
                  000229da    00000044     PathTrackSim.obj (.const:.string:_ZZNSt3__29allocatorINS_11__list_nodeIfPvEEE8allocateEjPKvEs)
                  00022a1e    00000044     PathGenerator.obj (.const:.string:_ZZNSt3__29allocatorIjE8allocateEjPKvEs)
                  00022a62    00000044     PathGenerator.obj (.const:.string:_ZZNSt3__29allocatorItE8allocateEjPKvEs)
                  00022aa6    00000002     --HOLE-- [fill = 0]
                  00022aa8    00000034     rtsv7M4_T_le_v4SPD16_eabi.lib : s_atanf.c.obj (.const:$O1$$)
                  00022adc    00000004     --HOLE-- [fill = 0]
                  00022ae0    00000030                                   : e_pow.c.obj (.const:$O1$$)
                  00022b10    00000030     msp432p4xx_driverlib.lib : gpio.o (.const:GPIO_PORT_TO_BASE)
                  00022b40    00000028     my_uart.obj (.const:$P$T0$1)
                  00022b68    00000028     my_uart.obj (.const:$P$T1$2)
                  00022b90    00000028     my_uart.obj (.const:$P$T2$3)
                  00022bb8    00000025     rtsv7M4_T_le_v4SPD16_eabi.lib : typeinfo.c.obj (.const:.typeinfo:_ZTSN10__cxxabiv120__si_class_type_infoE)
                  00022bdd    00000022                                   : typeinfo.c.obj (.const:.typeinfo:_ZTSN10__cxxabiv117__class_type_infoE)
                  00022bff    00000021     FuzzyController.obj (.const:.typeinfo:_ZTSN5fuzzy22Fuzzy3InputsControllerE)
                  00022c20    0000001e     FuzzyController.obj (.const:.typeinfo:_ZTSN5fuzzy19FuzzyControllerBaseE)
                  00022c3e    0000001d     Task.obj (.const:.typeinfo:_ZTSN7carTask16PathTrackSimTaskE)
                  00022c5b    0000001c     MembershipFuction.obj (.const:.typeinfo:_ZTSN5fuzzy17MembershipFuctionE)
                  00022c77    0000001a     PIDController.obj (.const:.typeinfo:_ZTS23PIDParkAdjustController)
                  00022c91    00000019     PIDController.obj (.const:.typeinfo:_ZTS22PIDPathTrackController)
                  00022caa    00000002     --HOLE-- [fill = 0]
                  00022cac    00000018     rtsv7M4_T_le_v4SPD16_eabi.lib : e_powf.c.obj (.const:$O1$$)
                  00022cc4    00000018     Encoder.obj (.const:$P$T40$1)
                  00022cdc    00000018     Motor.obj (.const:$P$T40$1)
                  00022cf4    00000018     Encoder.obj (.const:$P$T41$2)
                  00022d0c    00000018     PIDController.obj (.const:.typeinfo:_ZTS21PIDDistanceController)
                  00022d24    00000016     MembershipFuction.obj (.const:.typeinfo:_ZTSN5fuzzy11TrapezoidMFE)
                  00022d3a    00000016     PathGenerator.obj (.const:.typeinfo:_ZTSN9pathTrack8LinePathE)
                  00022d50    00000016     PathGenerator.obj (.const:.typeinfo:_ZTSN9pathTrack8PathPartE)
                  00022d66    00000015     PIDController.obj (.const:.typeinfo:_ZTS18ESOSpeedController)
                  00022d7b    00000015     PIDController.obj (.const:.typeinfo:_ZTS18PIDSpeedController)
                  00022d90    00000015     MembershipFuction.obj (.const:.typeinfo:_ZTSN5fuzzy10TriangleMFE)
                  00022da5    00000015     PathGenerator.obj (.const:.typeinfo:_ZTSN9pathTrack7ArcPathE)
                  00022dba    00000014     Task.obj (.const:.typeinfo:_ZTSN7carTask8TaskBaseE)
                  00022dce    00000002     --HOLE-- [fill = 0]
                  00022dd0    00000014     PIDController.obj (.const:_ZTV13PIDController)
                  00022de4    00000014     PIDController.obj (.const:_ZTV18ESOSpeedController)
                  00022df8    00000014     PIDController.obj (.const:_ZTV18PIDSpeedController)
                  00022e0c    00000014     PIDController.obj (.const:_ZTV21PIDDistanceController)
                  00022e20    00000014     PIDController.obj (.const:_ZTV22PIDPathTrackController)
                  00022e34    00000014     PIDController.obj (.const:_ZTV23PIDParkAdjustController)
                  00022e48    00000014     MembershipFuction.obj (.const:_ZTVN5fuzzy10TriangleMFE)
                  00022e5c    00000014     MembershipFuction.obj (.const:_ZTVN5fuzzy11TrapezoidMFE)
                  00022e70    00000014     MembershipFuction.obj (.const:_ZTVN5fuzzy17MembershipFuctionE)
                  00022e84    00000014     FuzzyController.obj (.const:_ZTVN5fuzzy19FuzzyControllerBaseE)
                  00022e98    00000014     FuzzyController.obj (.const:_ZTVN5fuzzy22Fuzzy3InputsControllerE)
                  00022eac    00000014     Task.obj (.const:_ZTVN7carTask16PathTrackSimTaskE)
                  00022ec0    00000014     Task.obj (.const:_ZTVN7carTask8TaskBaseE)
                  00022ed4    00000014     PathGenerator.obj (.const:_ZTVN9pathTrack7ArcPathE)
                  00022ee8    00000014     PathGenerator.obj (.const:_ZTVN9pathTrack8LinePathE)
                  00022efc    00000014     PathGenerator.obj (.const:_ZTVN9pathTrack8PathPartE)
                  00022f10    00000010     main.obj (.const:$P$T48$5)
                  00022f20    00000010     PIDController.obj (.const:.typeinfo:_ZTS13PIDController)
                  00022f30    00000010     Motor.obj (.const:_ZTV5Motor)
                  00022f40    00000010     rtsv7M4_T_le_v4SPD16_eabi.lib : typeinfo.c.obj (.const:_ZTVN10__cxxabiv117__class_type_infoE)
